(dp0
S'Mary Morrell'
p1
(lp2
VThomas Delaney
p3
aVMrs. Robert Morrell
p4
aVSamuel DiMaria
p5
asS'Russell Kitto'
p6
(lp7
VBereniece Baldwin
p8
asS'Joe Bentzenhoffer'
p9
(lp10
VJoseph Bezen
p11
asS'Henry Meihs'
p12
(lp13
VLee Lundgren
p14
asS'Nora Hallgren'
p15
(lp16
VMrs. George Hall
p17
aVRichard Collins
p18
aVFrank Tuttle
p19
aVIsobel Lennart
p20
asS'Madelaine Ruthven'
p21
(lp22
VRichard Collins
p23
aVMeta Reis Rosenberg
p24
aVFrank Tuttle
p25
aVDavid Raksin
p26
aVElizaltetb Wilson
p27
aVIsobel Lennart
p28
asS'Bess Taffel'
p29
(lp30
VLeo Townsend
p31
asS'Perry Dunson'
p32
(lp33
VRoy Thompson
p34
asS'Dave Moore'
p35
(lp36
VBereniece Baldwin
p37
asS'Alice Buchmah'
p38
(lp39
VMorris L. Appelman
p40
aVMorris L. Appelman
p41
asS'Malcolm Wright'
p42
(lp43
VBereniece Baldwin
p44
asS'Helen Tenney'
p45
(lp46
VLouis F. Budenz
p47
asS'Tiba Willner'
p48
(lp49
VIsobel Lennart
p50
asS'Clarence Hathaway'
p51
(lp52
VCharles Judson
p53
asS'Albert Maltz'
p54
(lp55
VRichard Collins
p56
aVReis Rosenberg
p57
aVEdward Dmytryk
p58
aVFrank Tuttle
p59
aVAnne Rav Frank
p60
aVIsobel Lennart
p61
aVBernard Schoenfeld
p62
asS'Ken Pettus'
p63
(lp64
VOwen Vinson
p65
asS'Van Brook'
p66
(lp67
VBereniece Baldwin
p68
asS'Nat Praeger'
p69
(lp70
VHarold Ashe
p71
aVMildred Ashe
p72
asS'Arthur Lishner'
p73
(lp74
VMr. Lishner
p75
asS'Phillis McRay'
p76
(lp77
VMrs. Otis McRay
p78
asS'Ida Terkel'
p79
(lp80
VOwen Vinson
p81
asS'John Berry'
p82
(lp83
VFrank Tuttle
p84
aVStanley Roberts
p85
aVBernard Schoenfeld
p86
asS'Jack White'
p87
(lp88
VRichard F. O'Hair
p89
aVWayne B. Salisbury
p90
aVBereniece Baldwin
p91
asS'Art Braunlich'
p92
(lp93
VWayne B. Salisbury
p94
asS'Leo Cefkin'
p95
(lp96
VDr. Mendell M. Krieger
p97
asS'Jules Abercauph'
p98
(lp99
VSamuel DiMaria
p100
asS'Ann Delancey'
p101
(lp102
VRichard F. O'Hair
p103
asS'Pat Amato'
p104
(lp105
VLee Lundgren
p106
aVIrving Krane
p107
asS'Otis Revis'
p108
(lp109
VBereniece Baldwin
p110
asS'Gladys Liefchild'
p111
(lp112
VMrs. Gerald Lief
p113
aVAlice Bennett
p114
asS'Fred Gebelle'
p115
(lp116
VBereniece Baldwin
p117
asS'Gus Jurist'
p118
(lp119
VBereniece Baldwin
p120
asS'Alexander Trachtenberg'
p121
(lp122
VLouis F. Budenz
p123
asS'Robert Scott'
p124
(lp125
VLee Lundgren
p126
asS'Olga Zenchuck'
p127
(lp128
VBereniece Baldwin
p129
asS'Pasco Soso'
p130
(lp131
VLee Lundgren
p132
asS'Joe Dougher'
p133
(lp134
VSamuel DiMaria
p135
asS'Merle Work'
p136
(lp137
VWayne B. Salisbury
p138
aVBereniece Baldwin
p139
asS'Ben Margolis'
p140
(lp141
VMilton Tyre
p142
asS'Cliff Bollin'
p143
(lp144
VBereniece Baldwin
p145
asS'Ben Terry'
p146
(lp147
VRoy Thompson
p148
asS'Martha Schkurman'
p149
(lp150
VBereniece Baldwin
p151
asS'Joseph Starobin'
p152
(lp153
VLee Lundgren
p154
asS'Mildred Pearlstein'
p155
(lp156
VBereniece Baldwin
p157
aVMildred Pierce
p158
asS'Dr Hittleman'
p159
(lp160
VJoseph Louise Light Silver
p161
aVSam Reznick
p162
asS'Georgia Backus'
p163
(lp164
VPaul Marion
p165
aVOwen Vinson
p166
asS'Rose Most'
p167
(lp168
VAlice Bennett
p169
asS'William Wolff'
p170
(lp171
VPaul Marion
p172
aVOwen Vinson
p173
asS'James Jones'
p174
(lp175
VShelton Tappes
p176
asS'Verne Piazza'
p177
(lp178
VBereniece Baldwin
p179
asS'Stanley Waxman'
p180
(lp181
VPaul Marion
p182
aVOwen Vinson
p183
asS'Sis Cunningham'
p184
(lp185
VRichard F. O'Hair
p186
aVMrs. Gordon Friesen
p187
aVMrs. Milton Freeman
p188
asS'Leola Cones'
p189
(lp190
VWayne B. Salisbury
p191
asS'Bob Cummins'
p192
(lp193
VBereniece Baldwin
p194
asS'Mr Black'
p195
(lp196
VWayne B. Salisbury
p197
asS'Jay Gorney'
p198
(lp199
VLeo Townsend
p200
aVCharles Daggett
p201
asS'Helen Winter'
p202
(lp203
VMrs. Carl Richard F. O'Hair
p204
aVWalter Scott Dunn
p205
aVWayne B. Salisbury
p206
aVBereniece Baldwin
p207
asS'Julius Sorbonya'
p208
(lp209
VBereniece Baldwin
p210
asS'Frank Allen'
p211
(lp212
VLee Lundgren
p213
aVRoy Thompson
p214
asS'Yal Burton'
p215
(lp216
VRoy Huggins
p217
asS'Mortimer Offner'
p218
(lp219
VLeo Townsend
p220
aVElizabeth Wilson
p221
aVMelvin Levy
p222
aVCatherine Martin
p223
aVMrs. Bob Roberts
p224
asS'Marjorie MacGregor'
p225
(lp226
VMarjorie Manoff
p227
asS'Philip Abraham Bart'
p228
(lp229
VThomas Delaney
p230
aVSamuel DiMaria
p231
asS'Victor Kaplan'
p232
(lp233
VDavid Aaron
p234
aVAlbert Herzig
p235
aVWilliam G. Israel
p236
aVMilton S. Tyre
p237
asS'Tersil T. Obriot'
p238
(lp239
VBereniece Baldwin
p240
aVShelton Tappes
p241
asS'Lee Pressman'
p242
(lp243
VLouis F. Budenz
p244
aVLouis F. Budenz
p245
asS'Herbert Biberman'
p246
(lp247
VReis Rosenberg
p248
aVEdward Dmytryk
p249
aVBudd Schulberg
p250
aVFrank Tuttle
p251
aVDavid Raksin
p252
aVElizabeth Wilson
p253
aVIsobel Lennart
p254
aVStanley Roberts
p255
aVBernard Schoenfeld
p256
asS'Percy Llewelyn'
p257
(lp258
VWalter Scott Dunn
p259
aVBereniece Baldwin
p260
asS'Gale Sondergaard'
p261
(lp262
VEdith Holm Sond
p263
aVMrs. Herbert Biberman
p264
asS'Bob Washington'
p265
(lp266
VWayne B. Salisbury
p267
asS'Walter Lowenfels'
p268
(lp269
VSamuel DiMaria
p270
asS'Lib Hilberman'
p271
(lp272
VMrs. David Hilber
p273
aVEugene Fleury
p274
asS'Clarence Stoecker'
p275
(lp276
VJohn Edward Cooke
p277
asS'Bob Cohn'
p278
(lp279
VAlice Bennett
p280
asS'Tom DeFazio'
p281
(lp282
VThomas Delaney
p283
aVDan Samuel DiMaria
p284
asS'Ernie Sorenson'
p285
(lp286
VBereniece Baldwin
p287
aVBarbara Richard F. O'Hair
p288
asS'Michael Gordon'
p289
(lp290
VFrank Tuttle
p291
asS'James Anderson'
p292
(lp293
VRichard F. O'Hair
p294
aVWalter Scott Dunn
p295
asS'Norma Barzman'
p296
(lp297
VLeo Townsend
p298
aVRoy Huggins
p299
asS'Guy Endore'
p300
(lp301
VRoy Huggins
p302
asS'Sondra Gorney'
p303
(lp304
VLeo Townsend
p305
aVCharles Daggett
p306
asS'Jerry Bond'
p307
(lp308
VWayne B. Salisbury
p309
asS'Paula Miller'
p310
(lp311
VElia Kazan
p312
aVMrs. Lee Strasberg
p313
aVMr. Kazan
p314
aVPaula Miller
p315
asS'Raynal Lofgren'
p316
(lp317
VLee Lundgren
p318
aVIrving Krane
p319
asS'Tillie Lerner'
p320
(lp321
VBudd Schulberg
p322
asS'Mike Karpa'
p323
(lp324
VLee Lundgren
p325
asS'Jessie Obitz'
p326
(lp327
VRoy Thompson
p328
asS'Mrs Juris'
p329
(lp330
VGus Bereniece Baldwin
p331
asS'Fred Rinaldo'
p332
(lp333
VFrank Tuttle
p334
aVLeo Townsend
p335
aVElizabeth Wilson
p336
asS'Paul Endicott'
p337
(lp338
VWayne B. Salisbury
p339
aVChrysler Bereniece Baldwin
p340
asS'Vida Drown'
p341
(lp342
VWayne B. Salisbury
p343
asS'Matilda Mcintosh'
p344
(lp345
VWayne B. Salisbury
p346
aVMrs. Ronald Mcintosh
p347
asS'Simon Moskalik'
p348
(lp349
VDave Averill
p350
asS'Philip Edward Stevenson'
p351
(lp352
VRoy Huggins
p353
asS'Paul Trivers'
p354
(lp355
VEdward Dmytryk
p356
aVFrank Tuttle
p357
aVStanley Roberts
p358
aVBernard Schoenfeld
p359
asS'Yield Kramer'
p360
(lp361
VJohn Edward Cooke
p362
asS'Levi Johnson'
p363
(lp364
VRoy Thompson
p365
asS'Hy Gordon'
p366
(lp367
VBereniece Baldwin
p368
asS'John Schmies'
p369
(lp370
VT. Kratz
p371
aVDonald O. Spencer
p372
asS'Dr Roberts'
p373
(lp374
VBertram L. Louise Light Silver
p375
asS'Miss Susan Wells'
p376
(lp377
VMrs. Arnaud D'Us
p378
asS'Esther Shandler'
p379
(lp380
VWilliam G. Israel
p381
aVMilton S. Tyre
p382
asS'Phil Hommer'
p383
(lp384
VBereniece Baldwin
p385
asS'Mr McAllister'
p386
(lp387
VWayne B. Salisbury
p388
asS'Paul Brooks'
p389
(lp390
VRichard F. O'Hair
p391
aVBereniece Baldwin
p392
asS'Nancy Reeves'
p393
(lp394
VDavid Aaron
p395
asS'Lou Amster'
p396
(lp397
VUrcel Daniel
p398
asS'Tom Chapman'
p399
(lp400
VElizabeth Wilson
p401
asS'Jessie Burns'
p402
(lp403
VElizabeth Wilson
p404
aVIsobel Lennart
p405
asS'Gurley Walker'
p406
(lp407
VBereniece Baldwin
p408
asS'Dr Reznick'
p409
(lp410
VDr. Reznick
p411
asS'Jules Yanover'
p412
(lp413
VRichard O'Hair
p414
asS'John Nowak'
p415
(lp416
VBereniece Baldwin
p417
asS'Julian Shapiro'
p418
(lp419
VJohn Sanford
p420
aVDavid Aaron
p421
asS'Willie Gale'
p422
(lp423
VRichard F. O'Hair
p424
asS'Irving J. White'
p425
(lp426
VPaul Marion
p427
asS'Mildred Pierce'
p428
(lp429
VMildred Perl
p430
asS'George Green'
p431
(lp432
VRoy Thompson
p433
asS'William Schneiderman'
p434
(lp435
VRichard Collins
p436
asS'Jerry Fielde'
p437
(lp438
VDonald O. Spencer
p439
asS'Norris Wood'
p440
(lp441
VThomas Delaney
p442
a(lp443
VSamuel DiMaria
p444
aasS'William Holther'
p445
(lp446
VMildred Ashe
p447
asS'Herbert Blache'
p448
(lp449
VRichard Collins
p450
asS'Anthony Matusek'
p451
(lp452
VJohn Edward Cooke
p453
asS'Pat Callahan'
p454
(lp455
VHarold Ashe
p456
asS'Louise Koczyalka'
p457
(lp458
VThomas Delaney
p459
aVLouise Koszalka
p460
asS'Charley Hayes'
p461
(lp462
VRoy Thompson
p463
asS'Carl Dorfman'
p464
(lp465
VWilliam Z. Foster
p466
asS'Davida Franchi'
p467
(lp468
VCharles Judson
p469
aVAlice Bennett
p470
asS'Barbara Springer'
p471
(lp472
VRichard F. O'Hair
p473
asS'Walter Barry'
p474
(lp475
VThomas Delaney
p476
asS'Alvin Hammer'
p477
(lp478
VIrving Paul Marion
p479
asS'Sam Darcy'
p480
(lp481
VHarold Ashe
p482
aVMildred Ashe
p483
asS'Mrs Campbell'
p484
(lp485
VDorothy Parker
p486
asS'Cliff Lechrome'
p487
(lp488
VHarold Ashe
p489
asS'Jeannie Kudlik'
p490
(lp491
VBereniece Baldwin
p492
asS'Pauline Lauber'
p493
(lp494
VPauline Lauber Finn
p495
asS'Herta Uerkvitz'
p496
(lp497
VElizabeth Wilson
p498
asS'John Wexley'
p499
(lp500
VEdward Dmytryk
p501
aVLeo Townsend
p502
asS'Matt Richman'
p503
(lp504
VDavid Aaron
p505
aVMarburg Yerkes
p506
asS'Walter Dorosh'
p507
(lp508
VBereniece Baldwin
p509
aVShelton Tappes
p510
asS'Hugo Butler'
p511
(lp512
VFrank Tuttle
p513
aVStanley Roberts
p514
aVBernard Schoenfeld
p515
asS'Henry Jansen'
p516
(lp517
VBereniece Baldwin
p518
asS'Harold Wells'
p519
(lp520
VBereniece Baldwin
p521
asS'Leon Katzen'
p522
(lp523
VLee Lundgren
p524
asS'Tania Tuttle'
p525
(lp526
VReis Rosenberg
p527
aVBudd Schulberg
p528
aVBernard Schoenfeld
p529
asS'Gay Bailey'
p530
(lp531
VRichard F. O'Hair
p532
asS'Jerry McHale'
p533
(lp534
VDonald O. Spencer
p535
asS'Sam Adams Darcy'
p536
(lp537
VThomas Delaney
p538
asS'Peter Hassen'
p539
(lp540
VAlcide T. Kratz
p541
asS'Will Geer'
p542
(lp543
VHarold Ashe
p544
asS'Emil Freed'
p545
(lp546
VHarold Ashe
p547
aVGeorge Glass
p548
aVM. E. Harold Ashe
p549
asS'George Sklar'
p550
(lp551
VIsobel Lennart
p552
aVRoy Huggins
p553
asS'Celia Edwards'
p554
(lp555
VBereniece Baldwin
p556
asS'Ann Roth'
p557
(lp558
VAnn Roth Morgan Richards
p559
asS'Rose Rosenberg'
p560
(lp561
VMilton S. Tyre
p562
asS'Mrs Moore'
p563
(lp564
VJack Harold Ashe
p565
asS'Mollie Penkovosky'
p566
(lp567
VRoy Thompson
p568
asS'Sam Hammersmark'
p569
(lp570
VLee Lundgren
p571
asS'David Engelstein'
p572
(lp573
VLee Lundgren
p574
asS'Felix Miller'
p575
(lp576
VRichard F. O'Hair
p577
aVWalter Scott Dunn
p578
asS'William Connors'
p579
(lp580
VRichard F. O'Hair
p581
asS'Melva Cook'
p582
(lp583
VBereniece Baldwin
p584
aVMrs. George Cook
p585
aVJ. Will Richard F. O'Hair
p586
asS'Jack Moore'
p587
(lp588
VHarold Ashe
p589
asS'Mrs Davis'
p590
(lp591
VEdwin Howard
p592
aVDr. Mendell Krieger
p593
aVRoy Huggins
p594
asS'Bill Oliver'
p595
(lp596
VAlice Bennett
p597
aVUrcel Daniel
p598
asS'Mrs Hunter'
p599
(lp600
VIan Martin
p601
asS'During your Congress'
p602
(lp603
VWilliam L.Patterson
p604
asS'Carl Winter'
p605
(lp606
VRichard F. O'Hair
p607
aVWayne B. Salisbury
p608
aVBereniece Baldwin
p609
a(lp610
VRichard Collins
p611
aVReis Rosenberg
p612
aVFrank Tuttle
p613
aVLeo Townsend
p614
aasS'Ed Robbins'
p615
(lp616
VCharles Daggett
p617
aVCharles Judson
p618
aVAlice Bennett
p619
aVUrcel Daniel
p620
asS'Ring Lardner'
p621
(lp622
VRichard Collins
p623
aVBudd Schulberg
p624
aVFrank Tuttle
p625
aVCharles Daggett
p626
aVAnne Ray Frank
p627
aVElizabeth Wilson
p628
aVElizabeth Wilson
p629
aVRing Lardner
p630
asS'Freda Marcus'
p631
(lp632
VAlice Bennett
p633
asS'Roland Kibbee'
p634
(lp635
VIsobel Lennart
p636
asS'Gil Green'
p637
(lp638
VLee Lundgren
p639
aVIrving Krane
p640
aVJohn Edward Cooke
p641
aVRoy Thompson
p642
asS'William Ingham'
p643
(lp644
VHarold Ashe
p645
aVJ. E. Alice Bennett
p646
asS'Maureen Ryan'
p647
(lp648
VAlice Bennett
p649
asS'Aaron Bindman'
p650
(lp651
VLee Lundgren
p652
asS'Clara Ward'
p653
(lp654
VHarold Ashe
p655
aVMildred Ashe
p656
asS'Kathleen Goldman'
p657
(lp658
VMrs. Harold Gold
p659
asS'Max Helfand'
p660
(lp661
VMac Thomas Delaney
p662
asS'Lucy Stander'
p663
(lp664
VHarold Ashe
p665
aVMildred Ashe
p666
aVCharles Daggett
p667
asS'Carl Rogers'
p668
(lp669
VWalter Scott Dunn
p670
asS'Miss Campbell'
p671
(lp672
VWayne B. Salisbury
p673
asS'Milton Schleicher'
p674
(lp675
VBereniece Baldwin
p676
asS'Rachael Carter'
p677
(lp678
VEdward Cooke
p679
aVJohn Alcide T. Kratz
p680
asS'Barbara Stern'
p681
(lp682
VRichard F. O'Hair
p683
aVNick Bereniece Baldwin
p684
asS'Elizabeth Grant'
p685
(lp686
VElizabeth Wilson
p687
asS'Otty Heller'
p688
(lp689
VSamuel DiMaria
p690
asS'Dr Decker'
p691
(lp692
VS. Harold Ashe
p693
asS'Michael Wilson'
p694
(lp695
VBernard Schoenfeld
p696
asS'Janette Scofield'
p697
(lp698
VOwen Vinson
p699
asS'John Howard Lawson'
p700
(lp701
VRichard Collins
p702
asS'Robert Lieberman'
p703
(lp704
VDave Averill
p705
asS'Leo Gallagher'
p706
(lp707
VDavid Aaron
p708
asS'Omar Kidwell'
p709
(lp710
VWayne B. Salisbury
p711
asS'Herman Waldman'
p712
(lp713
VPaul Marion
p714
aVOwen Vinson
p715
asS'Matilda Maxwell'
p716
(lp717
VRichard F. O'Hair
p718
aVMrs. Jesse Parrish
p719
asS'Clarence Sanders'
p720
(lp721
VBereniece Baldwin
p722
asS'Howland Chamberlin'
p723
(lp724
VMr. Cham
p725
asS'Leonard Cohen'
p726
(lp727
VBereniece Baldwin
p728
asS'James Dawkins'
p729
(lp730
VLee Lundgren
p731
aVIrving Krane
p732
asS'Sid Levy'
p733
(lp734
VThomas Delaney
p735
asS'Sally Davis'
p736
(lp737
VBereniece Baldwin
p738
asS'Ida Whipple'
p739
(lp740
VWayne B. Salisbury
p741
asS'George Siskin'
p742
(lp743
VThomas Delaney
p744
aVN. Y.
p745
asS'Melvin Krantzler'
p746
(lp747
VLee Lundgren
p748
asS'Seymour Mandell'
p749
(lp750
VDavid Aaron
p751
aVWilliam G. Israel
p752
aVMilton S. Tyre
p753
asS'Jean Johnson'
p754
(lp755
VRichard F. O'Hair
p756
asS'Lauren Taylor'
p757
(lp758
VThomas Delaney
p759
aVBaldwin Locomotive
p760
asS'Charles Lindouf'
p761
(lp762
VBereniece Baldwin
p763
asS'Bay Teeple'
p764
(lp765
VDonald O. Spencer
p766
asS'Katie Lee'
p767
(lp768
VRichard F. O'Hair
p769
aVImogene Williams Brantley Bereniece Baldwin
p770
asS'Ginny Lee'
p771
(lp772
VWayne B. Salisbury
p773
asS'John Williamson'
p774
(lp775
VWayne B. Salisbury
p776
a(lp777
VSamuel DiMaria
p778
aasS'Coleman Young'
p779
(lp780
VBereniece Baldwin
p781
asS'Edwin Schoenfeld'
p782
(lp783
VJohn Edward Cooke
p784
asS'Prokop Jack Prokop'
p785
(lp786
VMr. Prokop
p787
asS'Pete Kowal'
p788
(lp789
VBereniece Baldwin
p790
asS'Elizabeth Wilson'
p791
(lp792
VMrs. Richard Wil
p793
asS'Russell Coppock'
p794
(lp795
VWayne B. Salisbury
p796
asS'Louis Seofield'
p797
(lp798
VOwen Vinson
p799
aVMr. Vinson
p800
aVMr. Seofield
p801
asS'Felix Maise'
p802
(lp803
VBereniece Baldwin
p804
asS'Saul Grossman'
p805
(lp806
VBereniece Baldwin
p807
asS'William A. Rodgers'
p808
(lp809
VRichard F. O'Hair
p810
asS'Alice Smith'
p811
(lp812
VLee Lundgren
p813
aVIrving Krane
p814
asS'Eva Shafran'
p815
(lp816
VFrank Tuttle
p817
aVHarold Ashe
p818
asS'Bob Reed'
p819
(lp820
VRichard F. O'Hair
p821
aVWayne B. Salisbury
p822
asS'Ray Blossom'
p823
(lp824
VWayne B. Salisbury
p825
aVBereniece Baldwin
p826
asS'Joe Bernstein'
p827
(lp828
VRichard F. O'Hair
p829
aVWalter Scott Dunn
p830
aVBereniece Baldwin
p831
asS'Milton Freeman'
p832
(lp833
VRichard F. O'Hair
p834
asS'Sam McGhee'
p835
(lp836
VRichard F. O'Hair
p837
asS'Ruth Levitova'
p838
(lp839
VLee Lundgren
p840
asS'James Ford'
p841
(lp842
VWayne B. Salisbury
p843
asS'Francis Faragoh'
p844
(lp845
VReis Rosenberg
p846
aVEdward Dmytryk
p847
asS'Robert Travis'
p848
(lp849
VDonald O. Spencer
p850
asS'Jack Stachel'
p851
(lp852
VThomas Delaney
p853
aVN. Y.
p854
a(lp855
VElizabeth Bentley
p856
aasS'Charles Judson Newspaperman'
p857
(lp858
VAlice Bennett
p859
aVUrcel Daniel
p860
asS'Ike Greenberg'
p861
(lp862
VWayne B. Salisbury
p863
asS'Paul Cline'
p864
(lp865
VHarold Ashe
p866
aVMildred Ashe
p867
aVCharles Judson
p868
aVAlice Bennett
p869
aVUrcel Daniel
p870
asS'Rex Wheelock'
p871
(lp872
VDonald O. Spencer
p873
asS'Selma Bachelis'
p874
(lp875
VMilton S. Tyre
p876
aVDavid Aaron
p877
aVAlbert Herzig
p878
aVWilliam G. Israel
p879
asS'George Newsorne'
p880
(lp881
VRichard F. O'Hair
p882
aVFrank Novak
p883
aVWayne B. Salisbury
p884
aVMr. Novak
p885
asS'Herbert March'
p886
(lp887
VLee Lundgren
p888
aVRoy Thompson
p889
asS'Jimmy Allen'
p890
(lp891
VHarold Ashe
p892
aVMildred Ashe
p893
asS'Jack Palmquist'
p894
(lp895
VCarl Palm
p896
aVBereniece Baldwin
p897
asS'Mercier Reese'
p898
(lp899
VAlice Bennett
p900
asS'Pauline Lauber Finn'
p901
(lp902
VRichard Collins
p903
aVPauline Lauber
p904
asS'Ruth Webb'
p905
(lp906
VRichard F. O'Hair
p907
aVCasimir Rataj
p908
asS'Jane Trivers'
p909
(lp910
VStanley Roberts
p911
aVBernard Schoenfeld
p912
asS'Maurice Cook'
p913
(lp914
VRichard F. O'Hair
p915
aVElinor Lafferty Walter Scott Dunn
p916
aVWayne B. Salisbury
p917
aVBereniece Baldwin
p918
asS'Morton Grant'
p919
(lp920
VWilliam Blowitz
p921
aVElizabeth Wilson
p922
asS'Ronald Mcintosh'
p923
(lp924
VWayne B. Salisbury
p925
asS'Philip Frankfeld'
p926
(lp927
VThomas Delaney
p928
asS'Hazel Jones'
p929
(lp930
VDonald O. Spencer
p931
asS'Delaney repeated Mr'
p932
(lp933
VMr. Delaney
p934
asS'Midge Asslin'
p935
(lp936
VRichard F. O'Hair
p937
aVWalter Scott Dunn
p938
asS'Daniel Lewis James'
p939
(lp940
VLeo Townsend
p941
asS'Dan Slinger'
p942
(lp943
VSamuel DiMaria
p944
asS'Nick Baltic'
p945
(lp946
VBereniece Baldwin
p947
asS'Fred Jones'
p948
(lp949
VBereniece Baldwin
p950
aVDave Averill
p951
asS'Dorothy Pezinan'
p952
(lp953
VAlice Bennett
p954
asS'Sue Lawson'
p955
(lp956
VMrs. John Howard Law
p957
aVWilliam Blowitz
p958
aVElizabeth Wilson
p959
asS'Tom Miller'
p960
(lp961
VHarold Ashe
p962
asS'Dave Silverberg'
p963
(lp964
VRichard F. O'Hair
p965
asS'Timothy Shay'
p966
(lp967
VRichard F. O'Hair
p968
aVTim Potter
p969
aVWalter Scott Dunn
p970
asS'Nat Ganley'
p971
(lp972
VWalter Scott Dunn
p973
aVUnited Wayne B. Salisbury
p974
aVBereniece Baldwin
p975
asS'Bruno Bartnick'
p976
(lp977
VJohn Edward Cooke
p978
asS'Robert L. Richards'
p979
(lp980
VRoy Huggins
p981
asS'John Gustafson'
p982
(lp983
VBereniece Baldwin
p984
asS'Samuel Ornitz'
p985
(lp986
VRichard Collins
p987
aVReis Rosenberg
p988
aVElizabeth Wilson
p989
asS'Ned Gorgolinski'
p990
(lp991
VLee Lundgren
p992
aVIrving Krane
p993
asS'Mrs Lewis'
p994
(lp995
VPatricia Roy Thompson
p996
asS'Dr Lester'
p997
(lp998
VDr. Lester
p999
asS'Lester Cole'
p1000
(lp1001
VRichard Collins
p1002
aVReis Rosenberg
p1003
aVMarc Lawrence
p1004
aVEdward Dmytryk
p1005
aVBudd Schulberg
p1006
aVFrank Tuttle
p1007
aVWilliam Blowitz
p1008
aVElizabeth Wilson
p1009
aVMelvin Levy
p1010
aVIsobel Lennart
p1011
asS'Lydia Mates'
p1012
(lp1013
VBereniece Baldwin
p1014
aVMrs. Dave Mates
p1015
asS'Donnie Baron'
p1016
(lp1017
VBereniece Baldwin
p1018
asS'Dr Masee'
p1019
(lp1020
VJ. Richard F. O'Hair
p1021
asS'George Altman'
p1022
(lp1023
VDavid Aaron
p1024
aVWilliam G. Israel
p1025
asS'Patricia Miller'
p1026
(lp1027
VMrs. John Miller
p1028
asS'Henrietta Pally'
p1029
(lp1030
VAlice Bennett
p1031
asS'Theo Kruse'
p1032
(lp1033
VDonald O. Spencer
p1034
asS'Ed Strong'
p1035
(lp1036
VThomas Delaney
p1037
asS'Elizabeth Leech'
p1038
(lp1039
VRichard Collins
p1040
aVFrank Tuttle
p1041
aVLeo Townsend
p1042
aVWilliam Blowitz
p1043
aVElizabeth Wilson
p1044
aVIsobel Lennart
p1045
aVOwen Vinson
p1046
asS'Bernyce Polifka Fleury'
p1047
(lp1048
VMrs. Eugene
p1049
asS'Leo Simon'
p1050
(lp1051
VAlice Bennett
p1052
aVUrcel Daniel
p1053
aVCharles Daggett
p1054
asS'Mrs Watkins'
p1055
(lp1056
VCatherine Hall
p1057
asS'Imogene Brantley'
p1058
(lp1059
VImogene Brantley
p1060
asS'Leslie Dolman'
p1061
(lp1062
VWayne B. Salisbury
p1063
asS'Mrs Strasberg'
p1064
(lp1065
VPaula Miller
p1066
asS'Adeline Cole'
p1067
(lp1068
VWayne B. Salisbury
p1069
asS'Arnold Manoff'
p1070
(lp1071
VEdward Dmytryk
p1072
aVMildred Ashe
p1073
aVLeo Townsend
p1074
aVElizabeth Wilson
p1075
asS'Gus Gustofson'
p1076
(lp1077
VDonald O. Spencer
p1078
asS'Saul Wellman'
p1079
(lp1080
VBereniece Baldwin
p1081
asS'Dewey McGee'
p1082
(lp1083
VDave Averill
p1084
asS'Harold Smith'
p1085
(lp1086
VBereniece Baldwin
p1087
asS'Alex Greenherg'
p1088
(lp1089
VStanley Roberts
p1090
asS'Bettv Verri'
p1091
(lp1092
VLee Lundgren
p1093
asS'Helen Gardner'
p1094
(lp1095
VC. H. Charles Judson
p1096
aVUrcel Daniel
p1097
asS'Foss Baker'
p1098
(lp1099
VWayne B. Salisbury
p1100
asS'Reuben Ship'
p1101
(lp1102
VPaul Marion
p1103
asS'Sonja Dahl'
p1104
(lp1105
VFrank Tuttle
p1106
aVElizabeth Wilson
p1107
aVStanley Roberts
p1108
aVBob Martin
p1109
aVLeona Martin
p1110
asS'Dr Koppelman'
p1111
(lp1112
VDr. Koppel
p1113
asS'Florence Covey'
p1114
(lp1115
VAlice Bennett
p1116
asS'Sam Donchin'
p1117
(lp1118
VSam Samuel DiMaria
p1119
asS'Mr Campbell'
p1120
(lp1121
VWayne B. Salisbury
p1122
aVBen Davis Club
p1123
asS'Art Shapiro'
p1124
(lp1125
VPaul Marion
p1126
asS'Charles McClaughlan'
p1127
(lp1128
VAlbert Herzig
p1129
asS'George Corey'
p1130
(lp1131
VEdward Dmytryk
p1132
asS'Mrs Adam'
p1133
(lp1134
VLoretta Harold Ashe
p1135
asS'William Chandler'
p1136
(lp1137
VBereniece Baldwin
p1138
asS'Louis Sciverras'
p1139
(lp1140
VRichard F. OHair
p1141
asS'Dr Nedelman'
p1142
(lp1143
VDr. Nedelman
p1144
aVOleta O'Connor Mildred Ashe
p1145
aVTom Charles Judson
p1146
aVAlice Bennett
p1147
aVUrcel Daniel
p1148
asS'Eddie Pietrowski'
p1149
(lp1150
VBereniece Baldwin
p1151
asS'Chris Alston'
p1152
(lp1153
VRichard F. O'Hair
p1154
aVBereniece Baldwin
p1155
asS'Richard Criley'
p1156
(lp1157
VLee Lundgren
p1158
asS'Wilma Persley'
p1159
(lp1160
VT. Kratz
p1161
aVPeterson Alcide T. Kratz
p1162
asS'Daniel Trees'
p1163
(lp1164
VBereniece Baldwin
p1165
asS'Lottie Glicker'
p1166
(lp1167
VLee Lundgren
p1168
asS'John Sanford'
p1169
(lp1170
VElizabeth Wilson
p1171
asS'Bob Morrell'
p1172
(lp1173
VThomas Delaney
p1174
asS'Raphael Konigsburg'
p1175
(lp1176
VAlice Bennett
p1177
asS'Aldo Sandretto'
p1178
(lp1179
VBereniece Baldwin
p1180
asS'Dalton Trumbo'
p1181
(lp1182
VAnne Ray Frank
p1183
aVFrank Tuttle
p1184
aVCharles Daggett
p1185
aVStanley Roberts
p1186
aVBernard Schoenfeld
p1187
asS'Jack Tenner'
p1188
(lp1189
VDavid Aaron
p1190
aVMarburg Yerkes
p1191
aVMilton S. Tyre
p1192
asS'Faye McDonnell'
p1193
(lp1194
VWayne B. Salisbury
p1195
aVMrs. Floyd McDonnell
p1196
asS'Esther Shapiro'
p1197
(lp1198
VBereniece Baldwin
p1199
aVMrs. Harold Shapiro
p1200
asS'Louise Seidel'
p1201
(lp1202
VElizabeth Wilson
p1203
asS'Sylvia Marrow Polonsky'
p1204
(lp1205
VLeo Townsend
p1206
aVMrs. Abraham Polonsky
p1207
asS'Mrs Aidlin'
p1208
(lp1209
VJoseph Harold Ashe
p1210
asS'Katherine Lynch'
p1211
(lp1212
VRichard F. O'Hair
p1213
asS'Arthur Hendle'
p1214
(lp1215
VDonald O. Spencer
p1216
asS'Ambur Salt'
p1217
(lp1218
VRichard Collins
p1219
asS'Noum Light'
p1220
(lp1221
VDavid Aaron
p1222
asS'Sam Rizzo'
p1223
(lp1224
VShelton Tappes
p1225
asS'Henderson Gates'
p1226
(lp1227
VRichard F. O'Hair
p1228
asS'Jack Sanberg'
p1229
(lp1230
VRichard F. OHair
p1231
asS'Marguerite Sanford'
p1232
(lp1233
VMarguerite Roberts
p1234
asS'Jesse Perez'
p1235
(lp1236
VRoy Thompson
p1237
asS'Sadie Ornitz'
p1238
(lp1239
VMrs. Sam Ornitz
p1240
aVElizabeth Wilson
p1241
asS'James Cutno'
p1242
(lp1243
VRoy Thompson
p1244
asS'Alfred Levitt'
p1245
(lp1246
VMelvin Levy
p1247
asS'Pressley Green'
p1248
(lp1249
VWayne B. Salisbury
p1250
asS'Rose Segure'
p1251
(lp1252
VAlice Bennett
p1253
asS'Joe Dennis'
p1254
(lp1255
VRoy Thompson
p1256
asS'William Allan'
p1257
(lp1258
VRichard F. O'Hair
p1259
aVWalter Scott Dunn
p1260
aVWayne B. Salisbury
p1261
aVBereniece Baldwin
p1262
aVShelton Tappes
p1263
asS'George Manning'
p1264
(lp1265
VRoy Thompson
p1266
asS'Hilliard Chamblis'
p1267
(lp1268
VBereniece Baldwin
p1269
asS'Joseph McCann'
p1270
(lp1271
VThomas Delaney
p1272
asS'Esther Bigford'
p1273
(lp1274
VWayne B. Salisbury
p1275
asS'Oleta O Yates'
p1276
(lp1277
VOleta O'Connor
p1278
asS'George Kristalsky'
p1279
(lp1280
VWayne B. Salisbury
p1281
aVCasimir Rataj
p1282
asS'Ethel Spiller'
p1283
(lp1284
VThomas Delaney
p1285
asS'Rude Lambert'
p1286
(lp1287
VMildred Ashe
p1288
asS'Bridget Poison'
p1289
(lp1290
VBereniece Baldwin
p1291
asS'William R. Hood'
p1292
(lp1293
VShelton Tappes
p1294
asS'Dr Schoen'
p1295
(lp1296
VMax Louise Light Silver
p1297
asS'Rose Elfman'
p1298
(lp1299
VMildred Ashe
p1300
asS'Mabel Wilson'
p1301
(lp1302
VDonald O. Spencer
p1303
asS'Darr Smith'
p1304
(lp1305
VCharles Judson
p1306
aVAlice Bennett
p1307
aVUrcel Daniel
p1308
asS'Gerald Jerry Boyd'
p1309
(lp1310
VRichard F. O'Hair
p1311
aVWayne B. Salisbury
p1312
asS'Capt Tompkins'
p1313
(lp1314
VMrs. Lee Leo Townsend
p1315
aVMr. Townsend
p1316
aVMrs. Townsend
p1317
asS'Elliot Maraniss'
p1318
(lp1319
VBereniece Baldwin
p1320
asS'Helen Sanberg'
p1321
(lp1322
VRichard F. OHair
p1323
aVMrs. Jack Sanberg
p1324
asS'Frank Pestana'
p1325
(lp1326
VDavid Aaron
p1327
aVWilliam G. Israel
p1328
aVMilton S. Tyre
p1329
asS'Leo Townsend Physician'
p1330
(lp1331
VDavid Raksin
p1332
aVElizabeth Wilson
p1333
asS'Pope Huff'
p1334
(lp1335
VJohn Edward Cooke
p1336
asS'Mrs Solotoy'
p1337
(lp1338
VHarold Ashe
p1339
aVMildred Ashe
p1340
aVAlice Bennett
p1341
asS'Mabel Mitchell'
p1342
(lp1343
VRichard F. O'Hair
p1344
asS'Betty Gannett'
p1345
(lp1346
VRichard F. O'Hair
p1347
a(lp1348
VSamuel DiMaria
p1349
aasS'Dr Riskin'
p1350
(lp1351
VSam Reznick
p1352
asS'Charles Young'
p1353
(lp1354
VMildred Ashe
p1355
asS'Peggy Wellman'
p1356
(lp1357
VBereniece Baldwin
p1358
asS'Sidney Barclay'
p1359
(lp1360
VBereniece Baldwin
p1361
asS'Beatrice Buchman'
p1362
(lp1363
VMrs. Sidney Buch
p1364
asS'John McTernan'
p1365
(lp1366
VDavid Aaron
p1367
aVWilliam G. Israel
p1368
aVMilton S. Tyre
p1369
asS'Charlotte Hull'
p1370
(lp1371
VMildred Ashe
p1372
aVHarold Ashe
p1373
asS'Ceorge Shanta'
p1374
(lp1375
VAlcide T. Kratz
p1376
asS'Frank Stepanchenko'
p1377
(lp1378
VDave Averill
p1379
asS'Harry Freed'
p1380
(lp1381
VLee Lundgren
p1382
asS'Sylvia Jarrico'
p1383
(lp1384
VLeo Townsend
p1385
aVElizabeth Wilson
p1386
aVElizabeth Wilson
p1387
aVSylvia Jarrico
p1388
asS'Charles Lassiter'
p1389
(lp1390
VJohn Edward Cooke
p1391
asS'Jack Robinson'
p1392
(lp1393
VPaul Marion
p1394
asS'Sven Falk'
p1395
(lp1396
VBereniece Baldwin
p1397
aVWayne B. Salisbury
p1398
asS'Boleslaw Gebert'
p1399
(lp1400
VCasimir Rataj
p1401
asS'Mrs Cole'
p1402
(lp1403
VLester William Blowitz
p1404
asS'Radio Electrical'
p1405
(lp1406
VIrving Krane
p1407
aVLee Lundgren
p1408
aVRoy Thompson
p1409
aVAlcide T. Kratz
p1410
aVJohn Edward Cooke
p1411
aVDonald O. Spencer
p1412
asS'Gerald Liefchild'
p1413
(lp1414
VAlice Bennett
p1415
asS'Jack Raskin'
p1416
(lp1417
VWayne B. Salisbury
p1418
aVBereniece Baldwin
p1419
asS'Alvah Bessie'
p1420
(lp1421
VEdward Dmytryk
p1422
aVFrank Tuttle
p1423
aVLeo Townsend
p1424
aVWilliam Blowitz
p1425
aVIsobel Lennart
p1426
asS'Sam Witczak'
p1427
(lp1428
VDr. Mendell M. Krieger
p1429
asS'Mrs Dillard'
p1430
(lp1431
VRichard F. O'Hair
p1432
asS'Billie Mogill'
p1433
(lp1434
VBereniece Baldwin
p1435
aVMrs. George Mogill
p1436
asS'Virginia Kibre'
p1437
(lp1438
VHarold Ashe
p1439
aVMildred Ashe
p1440
asS'Mr Dillard'
p1441
(lp1442
VRichard F. O'Hair
p1443
asS'Lee York'
p1444
(lp1445
VSee Lee
p1446
asS'Irving Herman'
p1447
(lp1448
VLee Lundgren
p1449
asS'Anthony Koss'
p1450
(lp1451
VIrving Krane
p1452
asS'Karen Morley'
p1453
(lp1454
VMarc Lawrence
p1455
aVLeo Townsend
p1456
aVCharles Daggett
p1457
aVStanley Roberts
p1458
aVPaul Marion
p1459
asS'Stanley Adamski'
p1460
(lp1461
VBereniece Baldwin
p1462
aVG. Wayne B. Salisbury
p1463
aVJeorge Wayne B. Salisbury
p1464
asS'Elizabeth Clark'
p1465
(lp1466
VRichard F. O'Hair
p1467
asS'Nemmy Sparks'
p1468
(lp1469
VRichard Collins
p1470
aVFrank Tuttle
p1471
aVLeo Townsend
p1472
asS'Ann Beiswenger'
p1473
(lp1474
VRichard F. O'Hair
p1475
aVMrs. Hugo Beiswenger
p1476
aVWalter Scott Dunn
p1477
aVWayne B. Salisbury
p1478
aVDave Averill
p1479
asS'Dr Lieberman'
p1480
(lp1481
VDr. Lieber
p1482
asS'Arthur Storey'
p1483
(lp1484
VThomas Delaney
p1485
asS'Thomas Wood'
p1486
(lp1487
VRoy Thompson
p1488
asS'Willie Howell'
p1489
(lp1490
VRoy Thompson
p1491
asS'Charles Walters'
p1492
(lp1493
VBereniece Baldwin
p1494
asS'Jake Jacobowitz'
p1495
(lp1496
VBereniece Baldwin
p1497
asS'Eugene R. Stone'
p1498
(lp1499
VPaul Marion
p1500
aVOwen Vinson
p1501
asS'As a Condon'
p1502
(lp1503
VDr. Condon
p1504
aVDr. Condon
p1505
aVDr. Condon
p1506
aVDr. Condon
p1507
asS'Phil Raymond'
p1508
(lp1509
VWayne B. Salisbury
p1510
aVBereniece Baldwin
p1511
asS'Elinor Lafferty Cook'
p1512
(lp1513
VRichard F. O'Hair
p1514
aVMrs. Elinor Maki
p1515
aVWalter Scott Dunn
p1516
asS'Dr Davis'
p1517
(lp1518
VEdwin Howard Dr. Mendell Krieger
p1519
aVRoy Huggins
p1520
asS'Norman Smith'
p1521
(lp1522
VThomas Delaney
p1523
asS'William Esterman'
p1524
(lp1525
VDavid Aaron
p1526
aVWilliam G. Israel
p1527
aVMilton S. Tyre
p1528
asS'Samuel Meyer Kaplan'
p1529
(lp1530
VThomas Delaney
p1531
asS'Max Chait'
p1532
(lp1533
VBereniece Baldwin
p1534
aVShelton Tappes
p1535
asS'Janet Stevenson'
p1536
(lp1537
VMrs. Philip Steven
p1538
aVRoy Huggins
p1539
aVJanet Stephenson
p1540
asS'Catherine Hall'
p1541
(lp1542
VMrs. John Donald O. Spencer
p1543
asS'Lloyd Gough'
p1544
(lp1545
VStanley Roberts
p1546
aVPaul Marion
p1547
asS'Jeff Kibre'
p1548
(lp1549
VBarry Harold Ashe
p1550
aVMildred Ashe
p1551
asS'Mattie Lee Woodson'
p1552
(lp1553
VRichard F. O'Hair
p1554
aVWayne B. Salisbury
p1555
asS'Dorothy Hillyer'
p1556
(lp1557
VDonald O. Spencer
p1558
asS'Casper Kennedy'
p1559
(lp1560
VWayne B. Salisbury
p1561
asS'Branislaus Zukas'
p1562
(lp1563
VAlice Bennett
p1564
asS'Bernard Lucas'
p1565
(lp1566
VLee Lundgren
p1567
asS'Sylvia Marrow'
p1568
(lp1569
VMrs. Abraham Polonsky
p1570
asS'Helen Palmquist'
p1571
(lp1572
VBereniece Baldwin
p1573
aVMrs. Carl Palmquist
p1574
asS'Ruth Beeman'
p1575
(lp1576
VHarold Ashe
p1577
aVMildred Ashe
p1578
asS'Leon Turrett'
p1579
(lp1580
VDavid Aaron
p1581
aVMarburg Yerkes
p1582
asS'Hazel Gray'
p1583
(lp1584
VJohn Edward Cooke
p1585
asS'Pauline Hopkins'
p1586
(lp1587
VPaul Marion
p1588
asS'Jack Jr Pompquist'
p1589
(lp1590
VBereniece Baldwin
p1591
aVBereniece Baldwin
p1592
asS'Edward Brown'
p1593
(lp1594
VEd Lee Lundgren
p1595
aVJohn Edward Cooke
p1596
asS'Leslie Edgley'
p1597
(lp1598
VRoy Huggins
p1599
asS'David Hilberman'
p1600
(lp1601
VEugene Fleury
p1602
asS'Kay Bassman'
p1603
(lp1604
VMrs. George Martin
p1605
aVGeorge Bassman
p1606
asS'Dave Davis'
p1607
(lp1608
VThomas Delaney
p1609
aVSamuel DiMaria
p1610
asS'Dr Elkins'
p1611
(lp1612
VSam Reznick
p1613
asS'Grant Oakes'
p1614
(lp1615
VDonald O. Spencer
p1616
asS'Jean Erickson'
p1617
(lp1618
VAlcide T. Kratz
p1619
asS'Sonora Babb'
p1620
(lp1621
VGeorge Bassman
p1622
asS'James M. Simmons'
p1623
(lp1624
VRichard F. O'Hair
p1625
aVShelton Tappes
p1626
asS'Art Smith'
p1627
(lp1628
VElia Kazan
p1629
aVClifford Odets
p1630
asS'John Little'
p1631
(lp1632
VWayne B. Salisbury
p1633
asS'Ellen Davidson'
p1634
(lp1635
VPaul Marion
p1636
asS'Wilford Sherrington'
p1637
(lp1638
VThomas Delaney
p1639
asS'Jesse Parrish'
p1640
(lp1641
VRichard F. O'Hair
p1642
aVWayne B. Salisbury
p1643
asS'Izzy Berenson'
p1644
(lp1645
VRichard F. O'Hair
p1646
aVWalter Scott Dunn
p1647
asS'Frank Iglesias'
p1648
(lp1649
VRichard F. O'Hair
p1650
asS'Ida Miller'
p1651
(lp1652
VMildred Ashe
p1653
asS'Willie Mae Smith'
p1654
(lp1655
VLee Lundgren
p1656
asS'Jesus Gonzales'
p1657
(lp1658
VBereniece Baldwin
p1659
asS'Jean Pestana'
p1660
(lp1661
VDavid Aaron
p1662
asS'John Lymber'
p1663
(lp1664
VRichard F. O'Hair
p1665
asS'Dorothy Uris'
p1666
(lp1667
VMeta Reis Rosenberg
p1668
aVFrank Tuttle
p1669
aVStanley Roberts
p1670
aVBernard Schoenfeld
p1671
asS'Fred Franchi'
p1672
(lp1673
VCharles Judson
p1674
aVAlice Bennett
p1675
aVJ. Allen Louise Light Silver
p1676
aVDavid Aaron
p1677
aVMarburg Yerkes
p1678
aVMilton S. Tyre
p1679
asS'Sidney Buchman'
p1680
(lp1681
VSidney Buchman
p1682
asS'Annette Harper'
p1683
(lp1684
VPaul Marion
p1685
aVOwen Vinson
p1686
asS'Paul Jarrico'
p1687
(lp1688
VRichard Collins
p1689
aVReis Rosenberg
p1690
aVBudd Schulberg
p1691
aVDavid Raksin
p1692
aVCharles Daggett
p1693
aVIsoBel Lennart
p1694
aVAnne Ray Frank
p1695
aVPaul Marion
p1696
aVElizabeth Wilson
p1697
aVElizabeth Wilson
p1698
aVPaul Jarrico
p1699
asS'Ann Ganley'
p1700
(lp1701
VRichard F. O'Hair
p1702
asS'John Weber'
p1703
(lp1704
VLeo Townsend
p1705
asS'Hoke Higdon'
p1706
(lp1707
VWayne B. Salisbury
p1708
asS'Nelson Davis'
p1709
(lp1710
VWalter Scott Dunn
p1711
aVWayne B. Salisbury
p1712
aVBereniece Baldwin
p1713
aVShelton Tappes
p1714
asS'Dave Miller'
p1715
(lp1716
VRichard F. O'Hair
p1717
asS'These organizations Communists'
p1718
(lp1719
VWilliam K. Hood
p1720
aVColeman Young
p1721
asS'Ben Thomas'
p1722
(lp1723
VThomas Delaney
p1724
asS'James Jackson'
p1725
(lp1726
VWayne B. Salisbury
p1727
aVBereniece Baldwin
p1728
asS'Naomi Robeson'
p1729
(lp1730
VOwen Vinson
p1731
asS'Shirley Bollin'
p1732
(lp1733
VBereniece Baldwin
p1734
aVMrs. Cliff Bollin
p1735
asS'Vera Harris'
p1736
(lp1737
VHarold Ashe
p1738
aVMildred Ashe
p1739
aVElizabeth Wilson
p1740
asS'Julius Dassin'
p1741
(lp1742
VEdward Dmytryk
p1743
aVFrank Tuttle
p1744
asS'Nina Klowden'
p1745
(lp1746
VPaul Marion
p1747
aVOwen Vinson
p1748
asS'Wilma Shore'
p1749
(lp1750
VRoy Huggins
p1751
asS'Percy Solotoy'
p1752
(lp1753
VHarold Ashe
p1754
aVMildred Ashe
p1755
aVCharles Daggett
p1756
asS'Joe Balsis'
p1757
(lp1758
VAlcide T. Kratz
p1759
asS'Oscar Rhodes'
p1760
(lp1761
VBereniece Baldwin
p1762
asS'Jim Frazier'
p1763
(lp1764
VWayne B. Salisbury
p1765
asS'Meta Reis Writer'
p1766
(lp1767
VEdward Dmytryk
p1768
aVBudd Schulberg
p1769
aVFrank Tuttle
p1770
aVAnne Ray Frank
p1771
aVHarold Ashe
p1772
aVLeo Townsend
p1773
aVWilliam Blowitz
p1774
aVElizabeth Wilson
p1775
aVDavid Raksin
p1776
aVIsobel Lennart
p1777
aVStanley Roberts
p1778
aVBernard Schoenfeld
p1779
asS'Joy Pepper'
p1780
(lp1781
VLeo Townsend
p1782
asS'Dolph Winebrenner'
p1783
(lp1784
VCharles Daggett
p1785
aVCharles Judson
p1786
aVAlice Bennett
p1787
aVUrcel Daniel
p1788
asS'Dave Mates'
p1789
(lp1790
VBereniece Baldwin
p1791
asS'Jeff Corey'
p1792
(lp1793
VMarc Lawrence
p1794
aVPaul Marion
p1795
asS'Larry Davis'
p1796
(lp1797
VBereniece Baldwin
p1798
asS'John Stapp'
p1799
(lp1800
VReis Rosenberg
p1801
aVFrank Tuttle
p1802
aVLeo Townsend
p1803
aVWilliam Blowitz
p1804
aVElizabeth Wilson
p1805
aVPaul Marion
p1806
aVOwen Vinson
p1807
aVIsobel Lennart
p1808
asS'Jonathan Eddy'
p1809
(lp1810
VCharles Daggett
p1811
asS'Alfred Wagenknecht'
p1812
(lp1813
VLee Lundgren
p1814
asS'Walter McElroy'
p1815
(lp1816
VMildred Ashe
p1817
asS'Elmer Hanoff'
p1818
(lp1819
VMildred Ashe
p1820
aVHarold Ashe
p1821
asS'Stephanie Allan'
p1822
(lp1823
VBereniece Baldwin
p1824
aVMrs. William Allan
p1825
asS'Harold Fisher'
p1826
(lp1827
VDonald O. Spencer
p1828
asS'Mary Morrison'
p1829
(lp1830
VBereniece Baldwin
p1831
aVMrs. Eliot Maraniss
p1832
asS'William Glenn'
p1833
(lp1834
VWayne B. Salisbury
p1835
asS'Dorothy Parker'
p1836
(lp1837
VMrs. Alan Campbell
p1838
asS'Bob Klonsky'
p1839
(lp1840
VThomas Delaney
p1841
asS'Robert Purdy'
p1842
(lp1843
VBereniece Baldwin
p1844
asS'Donald Tiegland'
p1845
(lp1846
VDonald O. Spencer
p1847
asS'Philip Connelly'
p1848
(lp1849
VCharles Judson
p1850
aVAlice Bennett
p1851
aVUrcel Daniel
p1852
aVE. O. Harold Ashe
p1853
asS'Leo T. Orsage'
p1854
(lp1855
VBereniece Baldwin
p1856
aVShelton Tappes
p1857
asS'Max Weiss'
p1858
(lp1859
VLee Lundgren
p1860
asS'Pat Toohey'
p1861
(lp1862
VRichard F. O'Hair
p1863
aVWalter Scott Dunn
p1864
aVWayne B. Salisbury
p1865
asS'Delaney testified Mr'
p1866
(lp1867
VLauren Taylor
p1868
aVHarold Allen
p1869
aVSamuel J. DiMaria
p1870
aVMr. DiMaria
p1871
aVPhil Bart
p1872
aVPhil Bart
p1873
aVJoe Kuzma
p1874
aVPhil Bart
p1875
aVRuss Nixon
p1876
aVJoe Kuzma
p1877
aVJack Mondress
p1878
aVMr. DiMaria
p1879
asS'George Hallgren'
p1880
(lp1881
VIsobel Lennart
p1882
asS'John Watkins'
p1883
(lp1884
VDonald O. Spencer
p1885
asS'Edward Huebseh'
p1886
(lp1887
VFrank Tuttle
p1888
aVLee Townsend
p1889
aVMelvin Levy
p1890
aVStanley Roberts
p1891
asS'Willie Newman'
p1892
(lp1893
VRichard F. O'Hair
p1894
asS'Maurice Clark'
p1895
(lp1896
VEdward Dmytryk
p1897
aVFrank Tuttle
p1898
asS'Mrs Johnson'
p1899
(lp1900
VHattie Richard F. O'Hair
p1901
asS'Gordon Kahn'
p1902
(lp1903
VRichard Collins
p1904
aVReis Rosenberg
p1905
aVMarc Lawrence
p1906
aVEdward Dmytryk
p1907
aVBudd Schulberg
p1908
aVCharles Daggett
p1909
aVIsobel Lennart
p1910
aVStanley Roberts
p1911
aVAnne Ray Frank
p1912
asS'Betty Bennett Gannett'
p1913
(lp1914
VHarold Ashe
p1915
aVMildred Ashe
p1916
asS'Fred Dutner'
p1917
(lp1918
VLee Lundgren
p1919
asS'Emily Gordon'
p1920
(lp1921
VMrs. Julian Gordon
p1922
aVEmily Gordon
p1923
asS'Edward Biberman'
p1924
(lp1925
VReis Rosenberg
p1926
aVFrank Tuttle
p1927
aVStanley Roberts
p1928
asS'Lewis Leverett'
p1929
(lp1930
VElia Kazan
p1931
aVClifford Odets
p1932
asS'Tom Nabried'
p1933
(lp1934
VThomas Delaney
p1935
aVSamuel DiMaria
p1936
asS'Walter Christie'
p1937
(lp1938
VBereniece Baldwin
p1939
asS'Claude Lightfoot'
p1940
(lp1941
VLee Lundgren
p1942
asS'Harry Carlisle'
p1943
(lp1944
VBudd Schulberg
p1945
asS'Nina Parris'
p1946
(lp1947
VThomas Delaney
p1948
asS'Milt Krantzler'
p1949
(lp1950
VIrving Krane
p1951
asS'Lionel Stander'
p1952
(lp1953
VMarc Lawrence
p1954
aVHarold Ashe
p1955
aVMildred Ashe
p1956
asS'Irving Riskin'
p1957
(lp1958
VRichard F. O'Hair
p1959
aVWalter Scott Dunn
p1960
aVRichard F. O'Hair
p1961
aVMrs. Irving Riskin
p1962
asS'Betty Arden'
p1963
(lp1964
VMildred Ashe
p1965
asS'Ruth Dombrowski'
p1966
(lp1967
VWayne B. Salisbury
p1968
aVMrs. Tom Dombrowski
p1969
asS'Mills Sampy'
p1970
(lp1971
VRichard F. OHair
p1972
asS'Emma Williams'
p1973
(lp1974
VBereniece Baldwin
p1975
asS'Mary Bray'
p1976
(lp1977
VWalter Scott Dunn
p1978
aVBereniece Baldwin
p1979
asS'Louise Losey'
p1980
(lp1981
VLeo Townsend
p1982
aVMrs. Joseph Losey
p1983
asS'Ann Vartainian Boatin'
p1984
(lp1985
VBereniece Baldwin
p1986
aVMrs. Paul Boatin
p1987
asS'Harold Robertson'
p1988
(lp1989
VBereniece Baldwin
p1990
asS'Ben Polin'
p1991
(lp1992
VPaul Marion
p1993
asS'Maurice Murphy'
p1994
(lp1995
VElizabeth Wilson
p1996
aVIsobel Lennart
p1997
asS'Bill Daley'
p1998
(lp1999
VWayne B. Salisbury
p2000
asS'Lou Harris'
p2001
(lp2002
VHarold Ashe
p2003
aVMildred Ashe
p2004
aVElizabeth Wilson
p2005
asS'Ralph Glick'
p2006
(lp2007
VSamuel DiMaria
p2008
aVThomas Delaney
p2009
asS'John Kelly Ellis'
p2010
(lp2011
VJohn Joseph Ellis
p2012
asS'Roy Narancich'
p2013
(lp2014
VDave Averill
p2015
aVNerich Bereniece Baldwin
p2016
asS'Harry Glassgold'
p2017
(lp2018
VRichard F. O'Hair
p2019
asS'Ralph Smith'
p2020
(lp2021
VHarold Ashe
p2022
asS'Glen Showerman'
p2023
(lp2024
VWayne B. Salisbury
p2025
asS'Alvin Frisbie'
p2026
(lp2027
VJohn Edward Cooke
p2028
asS'Betty Ireland'
p2029
(lp2030
VRichard F. O'Hair
p2031
aVWalter Scott Dunn
p2032
asS'Dr Sperling'
p2033
(lp2034
VSam Louise Light Silver
p2035
aVDr. Sam Reznick
p2036
asS'Mike Gates'
p2037
(lp2038
VSamuel DiMaria
p2039
asS'Delaware Jersey'
p2040
(lp2041
VMr. Delaney
p2042
aVMr. Delaney
p2043
aVMr. Delaney
p2044
aVJoe Kuzma
p2045
asS'Al Bigford'
p2046
(lp2047
VWayne B. Salisbury
p2048
asS'Joe Brandt'
p2049
(lp2050
VWayne B. Salisbury
p2051
aVBereuiece Baldwin
p2052
asS'Carl Turner'
p2053
(lp2054
VWalter Scott Dunn
p2055
asS'Verna McAllister'
p2056
(lp2057
VBereniece Baldwin
p2058
asS'Rose Banks'
p2059
(lp2060
VWayne B. Salisbury
p2061
asS'Elinor Maki'
p2062
(lp2063
VMrs. William
p2064
aVRoy Bereniece Baldwin
p2065
asS'LeRoy Tribbite'
p2066
(lp2067
VAlcide T. Kratz
p2068
asS'Lynn Whitney'
p2069
(lp2070
VPaul Marion
p2071
asS'John Hell'
p2072
(lp2073
VWayne B. Salisbury
p2074
asS'Katherine Foreman'
p2075
(lp2076
VAlice Bennett
p2077
asS'Pat Killoran'
p2078
(lp2079
VCharles Judson
p2080
aVAlice Bennett
p2081
aVUrcel Daniel
p2082
asS'Jack Mondress'
p2083
(lp2084
VSamuel DiMaria
p2085
asS'Mortimer William Pomerance'
p2086
(lp2087
VEugene Fleury
p2088
asS'Irwin Lieberman'
p2089
(lp2090
VStanley Roberts
p2091
asS'Jessie Sehneiderinan'
p2092
(lp2093
VSamuel DiMaria
p2094
asS'Mary Mclntyre'
p2095
(lp2096
VBereniece Baldwin
p2097
aVMrs. Harold Franklin
p2098
aVAnn Arbor
p2099
asS'Philip Saba'
p2100
(lp2101
VThomas Delaney
p2102
asS'John Leech'
p2103
(lp2104
VHarold Ashe
p2105
aVMildred Ashe
p2106
asS'Andy Barrigan'
p2107
(lp2108
VUrcel Daniel
p2109
asS'John McGrew'
p2110
(lp2111
VEugene Fleury
p2112
asS'Irving Goff'
p2113
(lp2114
VThomas Delaney
p2115
asS'Fay Gingold Grossman'
p2116
(lp2117
VMrs. Saul Bereniece Baldwin
p2118
asS'Harold Franklin'
p2119
(lp2120
VBereniece Baldwin
p2121
asS'Minna Klein'
p2122
(lp2123
VHarold Ashe
p2124
aVMildred Ashe
p2125
aVCharles Daggett
p2126
aVCharles Judson
p2127
aVAlice Bennett
p2128
aVUrcel Daniel
p2129
asS'Adam Smith'
p2130
(lp2131
VLee Lundgren
p2132
asS'Pauline Epstein'
p2133
(lp2134
VDavid Aaron
p2135
aVWilliam G. Israel
p2136
aVMarburg Yerkes
p2137
asS'Miriam Solomon'
p2138
(lp2139
VAlice Bennett
p2140
asS'Bella Lewitzky Reynolds'
p2141
(lp2142
VMrs. Reyn
p2143
asS'Henry Winston'
p2144
(lp2145
VWayne B. Salisbury
p2146
asS'Abe Burrows'
p2147
(lp2148
VOwen Vinson
p2149
asS'Phil Schatz'
p2150
(lp2151
VWayne B. Salisbury
p2152
aVBereniece Baldwin
p2153
asS'John Cherveny'
p2154
(lp2155
VBereniece Baldwin
p2156
asS'Isaac Folkoff'
p2157
(lp2158
VSterling Hayden
p2159
asS'Nettie Rubenstein'
p2160
(lp2161
VRobert Louis Stevenson School
p2162
asS'Fred M. Snider'
p2163
(lp2164
VDavid Aaron
p2165
asS'Helen Allison'
p2166
(lp2167
VHelen Alli
p2168
asS'Fred Davey'
p2169
(lp2170
VWayne B. Salisbury
p2171
asS'Don R. Healy'
p2172
(lp2173
VHarold Ashe
p2174
asS'James Avery'
p2175
(lp2176
VRoy Thompson
p2177
asS'Clyde Champion'
p2178
(lp2179
VHarold Ashe
p2180
asS'Pettis Perry'
p2181
(lp2182
VMildred Ashe
p2183
aVCharles Judson
p2184
aVAlice Bennett
p2185
asS'Hugo Beiswenger'
p2186
(lp2187
VRichard F. O'Hair
p2188
aVDetroit Walter Scott Dunn
p2189
aVWayne B. Salisbury
p2190
asS'Frank Martin'
p2191
(lp2192
VBereniece Baldwin
p2193
asS'Melvyn Letzman'
p2194
(lp2195
VHarold Ashe
p2196
asS'Marie Rinaldo'
p2197
(lp2198
VLeo Townsend
p2199
aVW. L. Martin
p2200
asS'John Gallo'
p2201
(lp2202
VWalter Scott Dunn
p2203
aVBereniece Baldwin
p2204
aVDave Averill
p2205
asS'Lem Harris'
p2206
(lp2207
VLee Lundgren
p2208
asS'Mary Casaro'
p2209
(lp2210
VDonald O. Spencer
p2211
asS'Huso Beiswenger'
p2212
(lp2213
VWayne B. Salisbury
p2214
asS'Ben Kocel'
p2215
(lp2216
VBereniece Baldwin
p2217
aVGlos Ludowy
p2218
asS'Jack Birch'
p2219
(lp2220
VLee Lundgren
p2221
asS'Gilbert Green'
p2222
(lp2223
VSamuel DiMaria
p2224
asS'Hetty Vorhaus'
p2225
(lp2226
VBernard Schoenfeld
p2227
asS'Dr Perry'
p2228
(lp2229
VThomas L. Louise Light Silver
p2230
asS'Dorothy Connelly'
p2231
(lp2232
VDorothy Healy
p2233
asS'Dr Feder'
p2234
(lp2235
VDr. Sam Reznick
p2236
asS'Matt Snyder'
p2237
(lp2238
VThomas Delaney
p2239
asS'Jean Butler'
p2240
(lp2241
VStanley Roberts
p2242
asS'Paul Henley'
p2243
(lp2244
VRichard F. O'Hair
p2245
aVWayne B. Salisbury
p2246
aVBereniece Baldwin
p2247
asS'Lee Barrie'
p2248
(lp2249
VOwen Vinson
p2250
asS'Sidney Burke'
p2251
(lp2252
VHarold Ashe
p2253
asS'Milt Kashner'
p2254
(lp2255
VAlice Bennett
p2256
asS'Kurt Davis'
p2257
(lp2258
VBereniece Baldwin
p2259
asS'Ben Bengal'
p2260
(lp2261
VLeo Townsend
p2262
asS'Jane Wilson'
p2263
(lp2264
VHarold Ashe
p2265
asS'Herbert BlaeheVMrs'
p2266
(lp2267
VRichard Collins
p2268
asS'George Mogill'
p2269
(lp2270
VBereniece Baldwin
p2271
aVA. Bereniece Baldwin
p2272
asS'John Cohee'
p2273
(lp2274
VCharles Judson
p2275
aVAlice Bennett
p2276
aVUrcel Daniel
p2277
asS'Betty Selden'
p2278
(lp2279
VAlice Bennett
p2280
asS'Fred Williams'
p2281
(lp2282
VWayne B. Salisbury
p2283
aVBrass Bereniece Baldwin
p2284
asS'Fred Fische'
p2285
(lp2286
VBereniece Baldwin
p2287
asS'Milton S. Tyre'
p2288
(lp2289
VDavid Aaron
p2290
aVAlbert Herzig
p2291
aVWm. G. Israel
p2292
asS'Joe Poskonka'
p2293
(lp2294
VRoy Thompson
p2295
asS'Steve Simmons'
p2296
(lp2297
VBereniece Baldwin
p2298
asS'John Milkovitch'
p2299
(lp2300
VDonald O. Spencer
p2301
asS'Walter Rogalski'
p2302
(lp2303
VLee Lundgren
p2304
aVIrving Krane
p2305
asS'Eric Dearnley'
p2306
(lp2307
VBereniece Baldwin
p2308
aVDon Bereniece Baldwin
p2309
asS'Matt Savola'
p2310
(lp2311
VRichard F. O'Hair
p2312
aVSmelter Wayne B. Salisbury
p2313
aVBereniece Baldwin
p2314
asS'Thomas Anderson'
p2315
(lp2316
VRichard F. O'Hair
p2317
aVWalter Scott Dunn
p2318
asS'Lilith James'
p2319
(lp2320
VRoy Huggins
p2321
asS'Reva Redstone'
p2322
(lp2323
VWalter Scott Dunn
p2324
aVRichard F. O'Hair
p2325
asS'John Sobczak'
p2326
(lp2327
VBereniece Baldwin
p2328
asS'Paul Boatin'
p2329
(lp2330
VWalter Scott Dunn
p2331
aVWayne B. Salisbury
p2332
aVBereniece Baldwin
p2333
aVDave Averill
p2334
asS'William L. Patterson'
p2335
(lp2336
VLee Lundgren
p2337
aVJohn Edward Cooke
p2338
aVRoy Thompson
p2339
asS'Dr Marcus'
p2340
(lp2341
VSimson Louise Light Silver
p2342
aVDr. Sam Reznick
p2343
asS'Joseph Kuzma'
p2344
(lp2345
VThomas Delaney
p2346
aVSamuel DiMaria
p2347
asS'Florence Kniep'
p2348
(lp2349
VWayne B. Salisbury
p2350
asS'Dr Bigelman'
p2351
(lp2352
VLeo Dr. Sam Reznick
p2353
asS'John Saari'
p2354
(lp2355
VDave Averill
p2356
asS'Glass Glassgold'
p2357
(lp2358
VRichard F. O'Hair
p2359
asS'Roy Wilson'
p2360
(lp2361
VShelton Tappes
p2362
asS'Leo Turner'
p2363
(lp2364
VLee Lundgren
p2365
asS'Edwin Miller Max'
p2366
(lp2367
VPaul Marion
p2368
aVOwen Vinson
p2369
asS'Hope Smith'
p2370
(lp2371
VBereniece Baldwin
p2372
asS'Paul Geiselman'
p2373
(lp2374
VSamuel DiMaria
p2375
asS'Art Rhodes'
p2376
(lp2377
VLee Lundgren
p2378
asS'Ruth Poison'
p2379
(lp2380
VBereniece Baldwin
p2381
asS'Mike Fersick'
p2382
(lp2383
VSamuel DiMaria
p2384
asS'Carl Foreman'
p2385
(lp2386
VMelvin Levy
p2387
aVStanley Roberts
p2388
asS'Edward Turner'
p2389
(lp2390
VRichard F. O'Hair
p2391
aVEdward N. Turner
p2392
aVEdith Bereniece Baldwin
p2393
asS'Ellenore Abowitz'
p2394
(lp2395
VMrs. Murray Abo
p2396
aVDr. Mendell M. Krieger
p2397
aVRoy Huggins
p2398
asS'Mary Page'
p2399
(lp2400
VRichard F. O'Hair
p2401
aVBereniece Baldwin
p2402
aVMary Reed
p2403
aVFred Elesio
p2404
asS'Hank Ripken'
p2405
(lp2406
VBereniece Baldwin
p2407
asS'John Gray'
p2408
(lp2409
VLee Lundgren
p2410
asS'Gail Knappen'
p2411
(lp2412
VAlice Bennett
p2413
asS'Mildred Pollock'
p2414
(lp2415
VBereniece Baldwin
p2416
asS'Archie Acciacca'
p2417
(lp2418
VBereniece Baldwin
p2419
aVDave Averill
p2420
asS'George Willner'
p2421
(lp2422
VReis Rosenberg
p2423
aVMelvin Levy
p2424
aVIsobel Lennart
p2425
asS'Symanthia Washington'
p2426
(lp2427
VMrs. Roy Thompson
p2428
asS'Bill Lifsee'
p2429
(lp2430
VRichard F. O'Hair
p2431
asS'John T. Bernard'
p2432
(lp2433
VLee Lundgren
p2434
asS'Abraham Lincoln Polonsky'
p2435
(lp2436
VRichard Collins
p2437
aVMeta Reis Rosenberg
p2438
aVLeo Townsend
p2439
aVCharles Daggett
p2440
aVStanley Roberts
p2441
asS'Michael Uris'
p2442
(lp2443
VReis Rosenberg
p2444
aVEdward Dmytryk
p2445
aVFrank Tuttle
p2446
asS'Leonardo Bercovici'
p2447
(lp2448
VRichard Collins
p2449
aVEdward Dmytryk
p2450
asS'Carleton Moss'
p2451
(lp2452
VReis Rosenberg
p2453
asS'Hannah Schwartz Donath'
p2454
(lp2455
VMrs. Donath
p2456
aVMrs Ludwig Donath
p2457
asS'Elizabeth Faragoh'
p2458
(lp2459
VMrs. Francis Edward Dniytryk
p2460
asS'Olaf Leddel'
p2461
(lp2462
VDonald O. Spencer
p2463
asS'Elliott Grennard'
p2464
(lp2465
VRoy Huggins
p2466
asS'Julia Gudinas'
p2467
(lp2468
VLee Lundgren
p2469
aVIrving Krane
p2470
asS'Elizabeth Leech Glenn'
p2471
(lp2472
VMrs. Charles Glenn
p2473
aVElizabeth Leech
p2474
asS'Florence Hall'
p2475
(lp2476
VLee Lundgren
p2477
aVIrving Krane
p2478
asS'Mrs Biberman'
p2479
(lp2480
VSonja Dahl
p2481
asS'Flo Goodman'
p2482
(lp2483
VRichard F. O'Hair
p2484
asS'Mrs Furay'
p2485
(lp2486
VMort Bereniece Baldwin
p2487
asS'Dr Hickox'
p2488
(lp2489
VAlbert Harold Ashe
p2490
asS'Mrs Franklin'
p2491
(lp2492
VMary Mclntyre
p2493
asS'John Wilson'
p2494
(lp2495
VDonald O. Spencer
p2496
a(lp2497
VHarold Ashe
p2498
aVMildred Ashe
p2499
aVCharles Daggett
p2500
aasS'Robert Brown'
p2501
(lp2502
VBereniece Baldwin
p2503
asS'Sterling Rochester'
p2504
(lp2505
VSamuel DiMaria
p2506
asS'Russell Arthur Nixon'
p2507
(lp2508
VSamuel DiMaria
p2509
asS'Daniel Zahari'
p2510
(lp2511
VDave Averill
p2512
aVBereniece Baldwin
p2513
asS'Grace Zarniack'
p2514
(lp2515
VAlcide T. Kratz
p2516
asS'William M. Samuels'
p2517
(lp2518
VDavid Aaron
p2519
asS'Waldo Salt'
p2520
(lp2521
VRichard Collins
p2522
aVReis Rosenberg
p2523
aVBudd Schulberg
p2524
aVFrank W. Tuttle
p2525
aVLeo Townsend
p2526
aVDavid Raksin
p2527
asS'Joseph Pentacost'
p2528
(lp2529
VJohn Edward Cooke
p2530
asS'Bernice Eraser'
p2531
(lp2532
VDavid Raksin
p2533
asS'Tom Dombrowski'
p2534
(lp2535
VRichard F. O'Hair
p2536
aVWalter Scott Dunn
p2537
aVWayne B. Salisbury
p2538
asS'Virginia Schulberg'
p2539
(lp2540
VMrs. Peter Martin
p2541
aVElizabeth Wilson
p2542
asS'Dr Abowitz'
p2543
(lp2544
VDr. Mendell M. Krieger
p2545
aVRoy Huggins
p2546
asS'Oscar Barnes'
p2547
(lp2548
VWalter Scott Dunn
p2549
asS'Louis Perry'
p2550
(lp2551
VRichard F. O'Hair
p2552
asS'Louis L. Kaplan'
p2553
(lp2554
VThomas Delaney
p2555
asS'Cea Geiselman'
p2556
(lp2557
VSamuel DiMaria
p2558
aVMrs. Joe Kres
p2559
asS'Harold Buchman'
p2560
(lp2561
VLeo Townsend
p2562
aVElizabeth Wilson
p2563
aVAnne Ray Frank
p2564
asS'Marvin Gladstone'
p2565
(lp2566
VBereniece Baldwin
p2567
aVMrs. Harry
p2568
asS'Roy Cones'
p2569
(lp2570
VWayne B. Salisbury
p2571
asS'Lane Thomas'
p2572
(lp2573
VRoy Thompson
p2574
asS'Leo Ploetchl'
p2575
(lp2576
VBereniece Baldwin
p2577
asS'Robert Rossen'
p2578
(lp2579
VRichard Collins
p2580
aVReis Rosenberg
p2581
aVLeo Townsend
p2582
aVAnne Ray Frank
p2583
asS'Joseph Bezenhoffer'
p2584
(lp2585
VJoe Roy Thompson
p2586
asS'Sue Showerman'
p2587
(lp2588
VBereniece Baldwin
p2589
asS'Booker White'
p2590
(lp2591
VJohn Edward Cooke
p2592
asS'Byron Edwards'
p2593
(lp2594
VShelton Tappes
p2595
aVWayne B. Salisbury
p2596
asS'Mary Robinson'
p2597
(lp2598
VPaul Marion
p2599
aVOwen Vinson
p2600
asS'Tom Patterson'
p2601
(lp2602
VHarold Ashe
p2603
asS'Mischa Altman'
p2604
(lp2605
VDavid Raksin
p2606
asS'Eli Jacobson'
p2607
(lp2608
VGeorge Bassman
p2609
asS'Leonard Lauderdale'
p2610
(lp2611
VBereniece Baldwin
p2612
asS'Ina LaMaux'
p2613
(lp2614
VLee Lundgren
p2615
asS'Tony Kraber'
p2616
(lp2617
VElia Kazan
p2618
aVClifford Odets
p2619
asS'Agnes Grigg'
p2620
(lp2621
VBereniece Baldwin
p2622
asS'Clem Dalton'
p2623
(lp2624
VBereniece Baldwin
p2625
asS'Sam Parks'
p2626
(lp2627
VRoy Thompson
p2628
asS'Dick Jones'
p2629
(lp2630
VWayne B. Salisbury
p2631
asS'Nick Daniels'
p2632
(lp2633
VBereniece Baldwin
p2634
asS'Sidney Benson'
p2635
(lp2636
VTed Leo Townsend
p2637
aVElia Kazan
p2638
aVClifford Odets
p2639
asS'Nicholas Bela'
p2640
(lp2641
VLeo Townsend
p2642
asS'George Cook'
p2643
(lp2644
VBereniece Baldwin
p2645
asS'James Tracy'
p2646
(lp2647
VHarold Ashe
p2648
asS'Jim Tourney'
p2649
(lp2650
VHarold Ashe
p2651
aVMildred Ashe
p2652
asS'Marjorie Potts'
p2653
(lp2654
VGregor Manoff
p2655
asS'Sam Houston Allen'
p2656
(lp2657
VDavid Aaron
p2658
aVWilliam G. Israel
p2659
asS'Betty DeCormier'
p2660
(lp2661
VRobert DeCormier
p2662
asS'Charles Spencer'
p2663
(lp2664
VSamuel DiMaria
p2665
asS'Mrs Corey'
p2666
(lp2667
VGeorge Edward Dmytryk
p2668
asS'Victor Shapiro'
p2669
(lp2670
VGeorge Bassman
p2671
asS'Abner Berry'
p2672
(lp2673
VRichard F. O'Hair
p2674
aVWayne B. Salisbury
p2675
asS'Ann Roth Morgan'
p2676
(lp2677
VAnn Roth Morgan Richards
p2678
asS'Charles Katz'
p2679
(lp2680
VDavid Aaron
p2681
aVAlbert Herzig
p2682
aVWilliam G. Israel
p2683
aVMilton S. Tyre
p2684
asS'Dr Reynolds'
p2685
(lp2686
VFrederick G. Louise Light Silver
p2687
aVDr. Sam Reznick
p2688
asS'Alice Ferris'
p2689
(lp2690
VRichard F. O'Hair
p2691
asS'Fred Field'
p2692
(lp2693
VWayne B. Salisbury
p2694
asS'James Keller'
p2695
(lp2696
VRichard F. O'Hair
p2697
aVWayne B. Salisbury
p2698
asS'Harold Shapiro'
p2699
(lp2700
VBereniece Baldwin
p2701
asS'Abe Sokolov'
p2702
(lp2703
VSamuel DiMaria
p2704
asS'Herman Burt'
p2705
(lp2706
VBereniece Baldwin
p2707
asS'Lawrence Ross'
p2708
(lp2709
VHarold Ashe
p2710
aVMildred Ashe
p2711
asS'Miriam Bonner'
p2712
(lp2713
VHarold Ashe
p2714
asS'Marion Young'
p2715
(lp2716
VBereniece Baldwin
p2717
asS'Lillian Jones'
p2718
(lp2719
VHarold Ashe
p2720
asS'Flo Atkinson'
p2721
(lp2722
VMrs. Richard Criley
p2723
asS'Carl Palmquist'
p2724
(lp2725
VBereniece Baldwin
p2726
asS'Harry Fainaru'
p2727
(lp2728
VWayne B. Salisbury
p2729
asS'Frank Sykes'
p2730
(lp2731
VWayne B. Salisbury
p2732
aVBereniece Baldwin
p2733
asS'Spencer Austrian'
p2734
(lp2735
VHarold Ashe
p2736
aVMildred Ashe
p2737
asS'Henry Blankfort'
p2738
(lp2739
VEdward Dmytryk
p2740
asS'Andy Lancey'
p2741
(lp2742
VWalter Scott Dunn
p2743
asS'Margaret Gruen'
p2744
(lp2745
VElizabeth Wilson
p2746
aVPaul Marion
p2747
asS'Ben Barzman'
p2748
(lp2749
VLeo Townsend
p2750
aVCharles Daggett
p2751
aVStanley Roberts
p2752
aVRoy Huggins
p2753
asS'Walter Stempel'
p2754
(lp2755
VLee Lundgren
p2756
asS'Jim Keller'
p2757
(lp2758
VRoy Thompson
p2759
asS'Abe Feinglass'
p2760
(lp2761
VLee Lundgren
p2762
asS'Luther Talley'
p2763
(lp2764
VLee Lundgren
p2765
aVLee Lundgren
p2766
asS'Shirley Ross'
p2767
(lp2768
VWayne B. Salisbury
p2769
asS'Celeste Strack'
p2770
(lp2771
VRoy Huggins
p2772
asS'Royce Kennedy'
p2773
(lp2774
VBereniece Baldwin
p2775
asS'Randolph Luke'
p2776
(lp2777
VRoy Thompson
p2778
asS'Larry Blyth'
p2779
(lp2780
VWayne B. Salisbury
p2781
asS'Herbert Klein'
p2782
(lp2783
VHarold Ashe
p2784
asS'Florence Criley'
p2785
(lp2786
VMrs. Richard Criley
p2787
aVFlo Atkinson
p2788
asS'Allen Matthews'
p2789
(lp2790
VElizabeth Wilson
p2791
asS'Sarah Reznick'
p2792
(lp2793
VAlice Bennett
p2794
asS'Jess Whipple'
p2795
(lp2796
VWayne B. Salisbury
p2797
asS'Warren Batterson'
p2798
(lp2799
VDonald O. Spencer
p2800
asS'Harold Allen'
p2801
(lp2802
VThomas Delaney
p2803
asS'Richard McMahon'
p2804
(lp2805
VCasimir Rataj
p2806
asS'Beatrice Huff'
p2807
(lp2808
VJohn Edward Cooke
p2809
asS'Murray Borad'
p2810
(lp2811
VBereniece Baldwin
p2812
asS'Sam Moore'
p2813
(lp2814
VOwen Vinson
p2815
asS'John Bright'
p2816
(lp2817
VRichard Collins
p2818
aVFrank Tuttle
p2819
aVElizabeth Wilson
p2820
aVBudd Schulberg
p2821
asS'Maurice Rapf'
p2822
(lp2823
VLeo Townsend
p2824
aVElizabeth Wilson
p2825
asS'Sam Kushner'
p2826
(lp2827
VLee Lundgren
p2828
aVIrving Krane
p2829
asS'Raphael Haskell'
p2830
(lp2831
VBereniece Baldwin
p2832
asS'Pfc Searles'
p2833
(lp2834
VWayne B. Salisbury
p2835
aVShapiro Wayne B. Salisbury
p2836
asS'Joe Marlovits'
p2837
(lp2838
VJoseph Bezenhof
p2839
asS'Goldie Bromberg'
p2840
(lp2841
VMrs. J. Edward Frank Tuttle
p2842
aVF. Martin
p2843
asS'Harmon Alexander'
p2844
(lp2845
VPaul Marion
p2846
aVOwen Vinson
p2847
asS'John Issacs'
p2848
(lp2849
VRichard F. O'Hair
p2850
aVWayne B. Salisbury
p2851
asS'Leroy Krawford'
p2852
(lp2853
VRichard F. O'Hair
p2854
aVShelton Tappes
p2855
asS'Mrs Callahan'
p2856
(lp2857
VHarold Ashe
p2858
asS'Charles Lawson'
p2859
(lp2860
VAlcide T. Kratz
p2861
aVJohn Edward Cooke
p2862
asS'Phoebe Brand'
p2863
(lp2864
VLeo Townsend
p2865
aVEliz Kazan
p2866
aVClifford Odets
p2867
asS'Marta Bogner'
p2868
(lp2869
VAlice Bennett
p2870
asS'Bill Ward'
p2871
(lp2872
VHarold Ashe
p2873
aVMildred Ashe
p2874
asS'Charles Glenn'
p2875
(lp2876
VRichard Collins
p2877
aVFrank Tuttle
p2878
aVLeo Townsend
p2879
aVPaul Marion
p2880
asS'Frank Cestare'
p2881
(lp2882
VThomas Delaney
p2883
aVSamuel DiMaria
p2884
asS'Louis Terkel'
p2885
(lp2886
VOwen Vinson
p2887
asS'Esther Siegel'
p2888
(lp2889
VRichard F. O'Hair
p2890
aVBereniece Baldwin
p2891
asS'Robert D Katz'
p2892
(lp2893
VDavid Aaron
p2894
aVWilliam G. Israel
p2895
aVMilton S. Tyre
p2896
asS'Dave Ellis'
p2897
(lp2898
VOwen Vinson
p2899
asS'Morris Carnovsky'
p2900
(lp2901
VMarc Lawrence
p2902
aVLeo Townsend
p2903
aVCharles Daggett
p2904
aVElia Kazan
p2905
asS'Andrew Overgaard'
p2906
(lp2907
VElia Kazan
p2908
aVClifford Odets
p2909
asS'Henry Meyers'
p2910
(lp2911
VLeo Townsend
p2912
aVCharles Daggett
p2913
asS'Marion Elder Patrick'
p2914
(lp2915
VBereniece Baldwin
p2916
aVFred Douglas Club
p2917
asS'Barbara Wilson'
p2918
(lp2919
VWalter Scott Dunn
p2920
asS'Murray Levine'
p2921
(lp2922
VDonald O. Spencer
p2923
asS'Sidney Davenport'
p2924
(lp2925
VRoy Thompson
p2926
aVPete Roy Thompson
p2927
asS'Robert Lees'
p2928
(lp2929
VFrank Tuttle
p2930
aVLeo Townsend
p2931
asS'Fred Steinmetz'
p2932
(lp2933
VDavid Aaron
p2934
aVAlbert Herzig
p2935
aVMilton S. Tyre
p2936
aVWm. G. Israel
p2937
aVJ. Max Silver
p2938
asS'Dick Fiske'
p2939
(lp2940
VElizabeth Wilson
p2941
asS'Joseph Reams'
p2942
(lp2943
VThomas Delaney
p2944
aVN. Y.
p2945
asS'Arthur McPhaul'
p2946
(lp2947
VRichard F. O'Hair
p2948
aVWalter Scott Dunn
p2949
aVWayne B. Salisbury
p2950
aVBereniece Baldwin
p2951
aVShelton Tappes
p2952
aVben Shelton Tappes
p2953
asS'Hy Fireman'
p2954
(lp2955
VBereniece Baldwin
p2956
asS'Aubrey Finn'
p2957
(lp2958
VDavid Aaron
p2959
aVMilton S. Tyre
p2960
asS'George Pepper'
p2961
(lp2962
VEdward Dmytryk
p2963
asS'Katherine Ripken'
p2964
(lp2965
VWalter Scott Dunn
p2966
asS'Gale Biberman'
p2967
(lp2968
VGale Sondergaard
p2969
asS'Arthur Stern'
p2970
(lp2971
VRichard F. O'Hair
p2972
asS'Dorothy Brinich'
p2973
(lp2974
VBereniece Baldwin
p2975
asS'Mrs Rogers'
p2976
(lp2977
VAndrew Alcide T. Kratz
p2978
asS'Mrs Alexander'
p2979
(lp2980
VAnnie Roy Thompson
p2981
asS'Matt Pellman'
p2982
(lp2983
VMike Martin
p2984
aVMax Appleinan
p2985
aVMax Silver
p2986
asS'Jane Grodzins'
p2987
(lp2988
VDavid Aaron
p2989
asS'Gus Anderson'
p2990
(lp2991
VRichard F. O'Hair
p2992
asS'John Porter'
p2993
(lp2994
VDavid Aaron
p2995
aVWilliam G. Israel
p2996
aVAlbert Herzig
p2997
aVMilton S. Tyre
p2998
asS'Eleanor Price'
p2999
(lp3000
VEleanor Thomas Delaney
p3001
asS'Dorothy Healy'
p3002
(lp3003
VDorothy Albert Herzig
p3004
aVCharles Judson
p3005
aVAlice Bennett
p3006
aVUrcel Daniel
p3007
asS'Mary Morrison Maraniss'
p3008
(lp3009
VMary Morrison
p3010
asS'Fred Fine'
p3011
(lp3012
VLee Lundgren
p3013
aVIrving Krane
p3014
asS'Tommy Dennis'
p3015
(lp3016
VWayne B. Salisbury
p3017
asS'Joe Stern'
p3018
(lp3019
VDonald O. Spencer
p3020
asS'Eva Pitcher'
p3021
(lp3022
VWayne B. Salisbury
p3023
asS'Mitchell Lindeman'
p3024
(lp3025
VPaul Marion
p3026
aVOwen Vinson
p3027
asS'Zina Brandi Haskell'
p3028
(lp3029
VMrs. Ray Bereniece Baldwin
p3030
asS'William McKie'
p3031
(lp3032
VWayne B. Salisbury
p3033
aVShelton Tappes
p3034
asS'Floyd McDonnell'
p3035
(lp3036
VWayne B. Salisbury
p3037
asS'Alice Cohee'
p3038
(lp3039
VCharles Judson
p3040
aVAlice Bennett
p3041
aVUrcel Daniel
p3042
asS'Dr Goodlaw'
p3043
(lp3044
VEdward Isiah
p3045
aVDr. Goodlaw Optometrist
p3046
asS'Ernest Scott'
p3047
(lp3048
VThomas Delaney
p3049
asS'Bill Gardner'
p3050
(lp3051
VDonald O. Spencer
p3052
asS'Dr Druckman'
p3053
(lp3054
VJacob S. Louise Light Silver
p3055
aVSam Reznick
p3056
a(lp3057
VDr. Druck
p3058
aasS'Sarah Levine'
p3059
(lp3060
VDonald O. Spencer
p3061
asS'Max Bogner'
p3062
(lp3063
VAlice Bennett
p3064
asS'Ruth Yanover'
p3065
(lp3066
VRichard F. CTHair
p3067
asS'Dr Rosenblum'
p3068
(lp3069
VGordon Dr. Mendell M. Krieger
p3070
asS'Joseph Losey'
p3071
(lp3072
VLeo Townsend
p3073
asS'Rose Bush'
p3074
(lp3075
VMildred Ashe
p3076
asS'Sally Pietrowski'
p3077
(lp3078
VWayne B. Salisbury
p3079
aVMrs. Eddie Pietrowski
p3080
asS'Janet Stephenson'
p3081
(lp3082
VJanet George Glass
p3083
asS'William J. Sheehan'
p3084
(lp3085
VLee Lundgren
p3086
asS'Marjorie Manoff'
p3087
(lp3088
VLeo Townsond
p3089
aVMrs. Arnold Manoff
p3090
aVElizabeth Wilson
p3091
aVMarjorie Potts
p3092
asS'Helen DeMarco'
p3093
(lp3094
VThomas Delaney
p3095
aVDavid Davis
p3096
aVSamuel DiMaria
p3097
asS'Tom Cullen'
p3098
(lp3099
VAlice Bennett
p3100
aVUrcel Daniel
p3101
asS'Hilliard Ellis'
p3102
(lp3103
VLee Lundgren
p3104
asS'Marguerite Roberts'
p3105
(lp3106
VMrs. Jobn Sanford
p3107
asS'Alice Kocel'
p3108
(lp3109
VBereniece Baldwin
p3110
asS'Dr Kempler'
p3111
(lp3112
VDr. Kempler
p3113
asS'Max Ireland'
p3114
(lp3115
VWalter Scott Dunn
p3116
asS'Jan Jeffries'
p3117
(lp3118
VHenry Blankfort
p3119
aVHenry Blankfort
p3120
aVV. J. Sterling Hayden
p3121
aVRichard Collins
p3122
aVBudd Schulberg
p3123
aVFrank Tuttle
p3124
aVHarold Ashe
p3125
aVElia Kazan
p3126
aVClifford Odets
p3127
asS'Adrian Scott'
p3128
(lp3129
VEdward Dmytryk
p3130
asS'Annette Horn'
p3131
(lp3132
VAlcide T. Kratz
p3133
asS'Mrs Katz'
p3134
(lp3135
VDr. Mendell M. Krieger
p3136
asS'Ann Kelly'
p3137
(lp3138
VRichard F. O'Hair
p3139
aVWalter Scott Dunn
p3140
asS'James Widmark'
p3141
(lp3142
VWayne B. Salisbury
p3143
asS'Roy Hudson'
p3144
(lp3145
VWayne B. Salisbury
p3146
asS'Fred Moore'
p3147
(lp3148
VJohn Edward Cooke
p3149
asS'Joseph Schlicht'
p3150
(lp3151
VBereniece Baldwin
p3152
asS'Carneller Foreman'
p3153
(lp3154
VRichard F. O'Hair
p3155
aVBereniece Baldwin
p3156
asS'Leo Cottrell'
p3157
(lp3158
VBereniece Baldwin
p3159
asS'Bernard Vorhaus'
p3160
(lp3161
VFrank Tuttle
p3162
asS'Stanley Nowak'
p3163
(lp3164
VCasimir Rataj
p3165
asS'Louise Todd'
p3166
(lp3167
VHarold Ashe
p3168
aVMildred Ashe
p3169
asS'Calvin Goodman'
p3170
(lp3171
VRichard F. O'Hair
p3172
asS'Joseph Aidlin'
p3173
(lp3174
VHarold Ashe
p3175
aVJharles Daggett
p3176
asS'Frances Price'
p3177
(lp3178
VBereniece Baldwin
p3179
asS'Jane Wallace'
p3180
(lp3181
VHarold Ashe
p3182
asS'James Walker'
p3183
(lp3184
VBereniece Baldwin
p3185
asS'Mary Virginia Farmer'
p3186
(lp3187
VMildred Ashe
p3188
asS'Howard Fast'
p3189
(lp3190
VThomas Delaney
p3191
aVThomas Delaney
p3192
asS'Terry Clark'
p3193
(lp3194
VRichard F. O'Hair
p3195
asS'Richard L. Rykoff'
p3196
(lp3197
VDavid Aaron
p3198
asS'Dewey Garrett'
p3199
(lp3200
VRichard F. O'Hair
p3201
asS'Laura Kelly'
p3202
(lp3203
VWavne B. Salisbury
p3204
asS'Fred Graff'
p3205
(lp3206
VMr. Graff
p3207
asS'John Anderson'
p3208
(lp3209
VRichard F. O'Hair
p3210
aVUnited Wayne B. Salisbury
p3211
asS'Jack Gore'
p3212
(lp3213
VWayne B. Salisbury
p3214
aVChrysler Bereniece Baldwin
p3215
asS'Hodges Mason'
p3216
(lp3217
VBereniece Baldwin
p3218
asS'Ann Roth Richards'
p3219
(lp3220
VRoy Huggins
p3221
asS'Kenneth Roach'
p3222
(lp3223
VBereniece Baldwin
p3224
asS'Norman Ross'
p3225
(lp3226
VWayne B. Salisbury
p3227
asS'Harry Boskey'
p3228
(lp3229
VWayne B. Salisbury
p3230
aVChrysler Bereniece Baldwin
p3231
asS'Charles Killinger'
p3232
(lp3233
VAlcide T. Kratz
p3234
asS'Samuel Sillen'
p3235
(lp3236
VPaul Marion
p3237
as.