(dp0
S'Mary Morrell'
p1
(lp2
VThomas Delaney
p3
aVMrs. Robert Morrell
p4
aVSamuel DiMaria
p5
asS'Mrs. Juris'
p6
(lp7
VGus Bereniece Baldwin
p8
asS'Russell Kitto'
p9
(lp10
VBereniece Baldwin
p11
asS'Bella L Reynolds'
p12
(lp13
VMrs. Reyn
p14
asS'Henry Meihs'
p15
(lp16
VLee Lundgren
p17
asS'Nora Hallgren'
p18
(lp19
VMrs. George Hall
p20
aVRichard Collins
p21
aVFrank Tuttle
p22
aVIsobel Lennart
p23
asS'Madelaine Ruthven'
p24
(lp25
VRichard Collins
p26
aVMeta Reis Rosenberg
p27
aVFrank Tuttle
p28
aVDavid Raksin
p29
aVElizaltetb Wilson
p30
aVIsobel Lennart
p31
asS'Bess Taffel'
p32
(lp33
VLeo Townsend
p34
asS'Perry Dunson'
p35
(lp36
VRoy Thompson
p37
asS'Dave Moore'
p38
(lp39
VBereniece Baldwin
p40
asS'Ann R Morgan'
p41
(lp42
VAnn Roth Morgan Richards
p43
asS'Malcolm Wright'
p44
(lp45
VBereniece Baldwin
p46
asS'Helen Tenney'
p47
(lp48
VLouis F. Budenz
p49
asS'Tiba Willner'
p50
(lp51
VIsobel Lennart
p52
asS'Clarence Hathaway'
p53
(lp54
VCharles Judson
p55
asS'Albert Maltz'
p56
(lp57
VRichard Collins
p58
aVReis Rosenberg
p59
aVEdward Dmytryk
p60
aVFrank Tuttle
p61
aVAnne Rav Frank
p62
aVIsobel Lennart
p63
aVBernard Schoenfeld
p64
asS'Ken Pettus'
p65
(lp66
VOwen Vinson
p67
asS'Van Brook'
p68
(lp69
VBereniece Baldwin
p70
asS'Hattie Johnson'
p71
(lp72
VRichard F. O'Hair
p73
asS'Arthur Lishner'
p74
(lp75
VMr. Lishner
p76
asS'Phillis McRay'
p77
(lp78
VMrs. Otis McRay
p79
asS'Ida Terkel'
p80
(lp81
VOwen Vinson
p82
asS'Frank Rogers'
p83
(lp84
VAndrew Alcide T. Kratz
p85
asS'Jack White'
p86
(lp87
VRichard F. O'Hair
p88
aVWayne B. Salisbury
p89
aVBereniece Baldwin
p90
asS'Art Braunlich'
p91
(lp92
VWayne B. Salisbury
p93
asS'Leo Cefkin'
p94
(lp95
VDr. Mendell M. Krieger
p96
asS'Jules Abercauph'
p97
(lp98
VSamuel DiMaria
p99
asS'Ann Delancey'
p100
(lp101
VRichard F. O'Hair
p102
asS'Pat Amato'
p103
(lp104
VLee Lundgren
p105
aVIrving Krane
p106
asS'Otis Revis'
p107
(lp108
VBereniece Baldwin
p109
asS'Zina B Haskell'
p110
(lp111
VMrs. Ray Bereniece Baldwin
p112
asS'Fred Gebelle'
p113
(lp114
VBereniece Baldwin
p115
asS'Gus Jurist'
p116
(lp117
VBereniece Baldwin
p118
asS'Sylvia M Polonsky'
p119
(lp120
VLeo Townsend
p121
aVMrs. Abraham Polonsky
p122
asS'Joe. Marlovits'
p123
(lp124
VJoseph Bezenhof
p125
asS'Olga Zenchuck'
p126
(lp127
VBereniece Baldwin
p128
asS'Pasco Soso'
p129
(lp130
VLee Lundgren
p131
asS'Mr. Black'
p132
(lp133
VWayne B. Salisbury
p134
asS'Merle Work'
p135
(lp136
VWayne B. Salisbury
p137
aVBereniece Baldwin
p138
asS'Ben Margolis'
p139
(lp140
VMilton Tyre
p141
asS'Cliff Bollin'
p142
(lp143
VBereniece Baldwin
p144
asS'Tom Miller'
p145
(lp146
VHarold Ashe
p147
asS'Ben Terry'
p148
(lp149
VRoy Thompson
p150
asS'Martha Schkurman'
p151
(lp152
VBereniece Baldwin
p153
asS'Joseph Starobin'
p154
(lp155
VLee Lundgren
p156
asS'Mildred Pearlstein'
p157
(lp158
VBereniece Baldwin
p159
aVMildred Pierce
p160
asS'Georgia Backus'
p161
(lp162
VPaul Marion
p163
aVOwen Vinson
p164
asS'Joseph Hittleman'
p165
(lp166
VSam Reznick
p167
asS'William Wolff'
p168
(lp169
VPaul Marion
p170
aVOwen Vinson
p171
asS'James Jones'
p172
(lp173
VShelton Tappes
p174
asS'Verne Piazza'
p175
(lp176
VBereniece Baldwin
p177
asS'Stanley Waxman'
p178
(lp179
VPaul Marion
p180
aVOwen Vinson
p181
asS'Sis Cunningham'
p182
(lp183
VRichard F. O'Hair
p184
aVMrs. Gordon Friesen
p185
aVMrs. Milton Freeman
p186
asS'Leola Cones'
p187
(lp188
VWayne B. Salisbury
p189
asS'Bob Cummins'
p190
(lp191
VBereniece Baldwin
p192
asS'Jay Gorney'
p193
(lp194
VLeo Townsend
p195
aVCharles Daggett
p196
asS'Bernyce P Fleury'
p197
(lp198
VMrs. Eugene
p199
asS'Murray Abowitz'
p200
(lp201
VDr. Mendell M. Krieger
p202
aVRoy Huggins
p203
asS'Helen Winter'
p204
(lp205
VMrs. Carl Richard F. O'Hair
p206
aVWalter Scott Dunn
p207
aVWayne B. Salisbury
p208
aVBereniece Baldwin
p209
asS'Julius Sorbonya'
p210
(lp211
VBereniece Baldwin
p212
asS'Frank Allen'
p213
(lp214
VLee Lundgren
p215
aVRoy Thompson
p216
asS'Yal Burton'
p217
(lp218
VRoy Huggins
p219
asS'Loretta Adam'
p220
(lp221
VHarold Ashe
p222
asS'Mortimer Offner'
p223
(lp224
VLeo Townsend
p225
aVElizabeth Wilson
p226
aVMelvin Levy
p227
aVCatherine Martin
p228
aVMrs. Bob Roberts
p229
asS'Victor Kaplan'
p230
(lp231
VDavid Aaron
p232
aVAlbert Herzig
p233
aVWilliam G. Israel
p234
aVMilton S. Tyre
p235
asS'Tersil T. Obriot'
p236
(lp237
VBereniece Baldwin
p238
aVShelton Tappes
p239
asS'Alice Buchmah'
p240
(lp241
VMorris L. Appelman
p242
aVMorris L. Appelman
p243
asS'Lee Pressman'
p244
(lp245
VLouis F. Budenz
p246
aVLouis F. Budenz
p247
asS'Herbert Biberman'
p248
(lp249
VReis Rosenberg
p250
aVEdward Dmytryk
p251
aVBudd Schulberg
p252
aVFrank Tuttle
p253
aVDavid Raksin
p254
aVElizabeth Wilson
p255
aVIsobel Lennart
p256
aVStanley Roberts
p257
aVBernard Schoenfeld
p258
asS'Percy Llewelyn'
p259
(lp260
VWalter Scott Dunn
p261
aVBereniece Baldwin
p262
asS'Gale Sondergaard'
p263
(lp264
VEdith Holm Sond
p265
aVMrs. Herbert Biberman
p266
asS'Bob Washington'
p267
(lp268
VWayne B. Salisbury
p269
asS'Walter Lowenfels'
p270
(lp271
VSamuel DiMaria
p272
asS'Lib Hilberman'
p273
(lp274
VMrs. David Hilber
p275
aVEugene Fleury
p276
asS'Clarence Stoecker'
p277
(lp278
VJohn Edward Cooke
p279
asS'Bob Cohn'
p280
(lp281
VAlice Bennett
p282
asS'Oscar Elkins'
p283
(lp284
VSam Reznick
p285
asS'Tom DeFazio'
p286
(lp287
VThomas Delaney
p288
aVDan Samuel DiMaria
p289
asS'Ernie Sorenson'
p290
(lp291
VBereniece Baldwin
p292
aVBarbara Richard F. O'Hair
p293
asS'Michael Gordon'
p294
(lp295
VFrank Tuttle
p296
asS'James Anderson'
p297
(lp298
VRichard F. O'Hair
p299
aVWalter Scott Dunn
p300
asS'Norma Barzman'
p301
(lp302
VLeo Townsend
p303
aVRoy Huggins
p304
asS'Guy Endore'
p305
(lp306
VRoy Huggins
p307
asS'Allen L Ryan'
p308
(lp309
VMax Silver
p310
asS'Sondra Gorney'
p311
(lp312
VLeo Townsend
p313
aVCharles Daggett
p314
asS'Jerry Bond'
p315
(lp316
VWayne B. Salisbury
p317
asS'Paula Miller'
p318
(lp319
VElia Kazan
p320
aVMrs. Lee Strasberg
p321
aVMr. Kazan
p322
aVPaula Miller
p323
asS'Dorothy Healy'
p324
(lp325
VDorothy Albert Herzig
p326
aVCharles Judson
p327
aVAlice Bennett
p328
aVUrcel Daniel
p329
asS'Morris Feder'
p330
(lp331
VDr. Sam Reznick
p332
asS'Raynal Lofgren'
p333
(lp334
VLee Lundgren
p335
aVIrving Krane
p336
asS'Tillie Lerner'
p337
(lp338
VBudd Schulberg
p339
asS'Mike Karpa'
p340
(lp341
VLee Lundgren
p342
asS'Jessie Obitz'
p343
(lp344
VRoy Thompson
p345
asS'Fred Rinaldo'
p346
(lp347
VFrank Tuttle
p348
aVLeo Townsend
p349
aVElizabeth Wilson
p350
asS'Walter Kempler'
p351
(lp352
VDr. Kempler
p353
asS'Paul Endicott'
p354
(lp355
VWayne B. Salisbury
p356
aVChrysler Bereniece Baldwin
p357
asS'Vida Drown'
p358
(lp359
VWayne B. Salisbury
p360
asS'Matilda Mcintosh'
p361
(lp362
VWayne B. Salisbury
p363
aVMrs. Ronald Mcintosh
p364
asS'Simon Moskalik'
p365
(lp366
VDave Averill
p367
asS'Patricia Lewis'
p368
(lp369
VRoy Thompson
p370
asS'Pauline Epstein'
p371
(lp372
VDavid Aaron
p373
aVWilliam G. Israel
p374
aVMarburg Yerkes
p375
asS'Paul Trivers'
p376
(lp377
VEdward Dmytryk
p378
aVFrank Tuttle
p379
aVStanley Roberts
p380
aVBernard Schoenfeld
p381
asS'Yield Kramer'
p382
(lp383
VJohn Edward Cooke
p384
asS'Levi Johnson'
p385
(lp386
VRoy Thompson
p387
asS'Hy Gordon'
p388
(lp389
VBereniece Baldwin
p390
asS'John Schmies'
p391
(lp392
VT. Kratz
p393
aVDonald O. Spencer
p394
asS'Esther Shandler'
p395
(lp396
VWilliam G. Israel
p397
aVMilton S. Tyre
p398
asS'Phil Hommer'
p399
(lp400
VBereniece Baldwin
p401
asS'Paul Brooks'
p402
(lp403
VRichard F. O'Hair
p404
aVBereniece Baldwin
p405
asS'Capt. Ward Tompkins'
p406
(lp407
VMrs. Lee Leo Townsend
p408
aVMr. Townsend
p409
aVMrs. Townsend
p410
asS'Nancy Reeves'
p411
(lp412
VDavid Aaron
p413
asS'Lou Amster'
p414
(lp415
VUrcel Daniel
p416
asS'Tom Chapman'
p417
(lp418
VElizabeth Wilson
p419
asS'Jessie Burns'
p420
(lp421
VElizabeth Wilson
p422
aVIsobel Lennart
p423
asS'Elinor L Cook'
p424
(lp425
VRichard F. O'Hair
p426
aVMrs. Elinor Maki
p427
aVWalter Scott Dunn
p428
asS'Gurley Walker'
p429
(lp430
VBereniece Baldwin
p431
asS'Jules Yanover'
p432
(lp433
VRichard O'Hair
p434
asS'John Nowak'
p435
(lp436
VBereniece Baldwin
p437
asS'Bill Oliver'
p438
(lp439
VAlice Bennett
p440
aVUrcel Daniel
p441
asS'Willie Gale'
p442
(lp443
VRichard F. O'Hair
p444
asS'Jane Grodzins'
p445
(lp446
VDavid Aaron
p447
asS'George Green'
p448
(lp449
VRoy Thompson
p450
asS'William Schneiderman'
p451
(lp452
VRichard Collins
p453
asS'Jerry Fielde'
p454
(lp455
VDonald O. Spencer
p456
asS'Norris Wood'
p457
(lp458
VThomas Delaney
p459
a(lp460
VSamuel DiMaria
p461
aasS'William Holther'
p462
(lp463
VMildred Ashe
p464
asS'Leo Bigelman'
p465
(lp466
VSam Reznick
p467
asS'Herbert Blache'
p468
(lp469
VRichard Collins
p470
asS'Anthony Matusek'
p471
(lp472
VJohn Edward Cooke
p473
asS'Pat Callahan'
p474
(lp475
VHarold Ashe
p476
a(lp477
VHarold Ashe
p478
aasS'Louise Koczyalka'
p479
(lp480
VThomas Delaney
p481
aVLouise Koszalka
p482
asS'Charley Hayes'
p483
(lp484
VRoy Thompson
p485
asS'Carl Dorfman'
p486
(lp487
VWilliam Z. Foster
p488
asS'Davida Franchi'
p489
(lp490
VCharles Judson
p491
aVAlice Bennett
p492
asS'Sam H Allen'
p493
(lp494
VDavid Aaron
p495
aVWilliam G. Israel
p496
asS'Barbara Springer'
p497
(lp498
VRichard F. O'Hair
p499
asS'Walter Barry'
p500
(lp501
VThomas Delaney
p502
asS'Marjorie. Potts'
p503
(lp504
VGregor Manoff
p505
asS'Alvin Hammer'
p506
(lp507
VIrving Paul Marion
p508
asS'Sam Darcy'
p509
(lp510
VHarold Ashe
p511
aVMildred Ashe
p512
asS'Philip E Stevenson'
p513
(lp514
VRoy Huggins
p515
asS'Cliff Lechrome'
p516
(lp517
VHarold Ashe
p518
asS'Jeannie Kudlik'
p519
(lp520
VBereniece Baldwin
p521
asS'Herta Uerkvitz'
p522
(lp523
VElizabeth Wilson
p524
asS'John Wexley'
p525
(lp526
VEdward Dmytryk
p527
aVLeo Townsend
p528
asS'Matt Richman'
p529
(lp530
VDavid Aaron
p531
aVMarburg Yerkes
p532
asS'Pfc. Searles'
p533
(lp534
VWayne B. Salisbury
p535
aVShapiro Wayne B. Salisbury
p536
asS'Dr. Perry'
p537
(lp538
VThomas L. Louise Light Silver
p539
asS'Walter Dorosh'
p540
(lp541
VBereniece Baldwin
p542
aVShelton Tappes
p543
asS'John Cohee'
p544
(lp545
VCharles Judson
p546
aVAlice Bennett
p547
aVUrcel Daniel
p548
asS'Hugo Butler'
p549
(lp550
VFrank Tuttle
p551
aVStanley Roberts
p552
aVBernard Schoenfeld
p553
asS'Henry Jansen'
p554
(lp555
VBereniece Baldwin
p556
asS'Harold Wells'
p557
(lp558
VBereniece Baldwin
p559
asS'Leon Katzen'
p560
(lp561
VLee Lundgren
p562
asS'Tania Tuttle'
p563
(lp564
VReis Rosenberg
p565
aVBudd Schulberg
p566
aVBernard Schoenfeld
p567
asS'Gay Bailey'
p568
(lp569
VRichard F. O'Hair
p570
asS'Jerry McHale'
p571
(lp572
VDonald O. Spencer
p573
asS'Betty B Gannett'
p574
(lp575
VHarold Ashe
p576
aVMildred Ashe
p577
asS'Peter Hassen'
p578
(lp579
VAlcide T. Kratz
p580
asS'Will Geer'
p581
(lp582
VHarold Ashe
p583
asS'Emil Freed'
p584
(lp585
VHarold Ashe
p586
aVGeorge Glass
p587
aVM. E. Harold Ashe
p588
asS'George Sklar'
p589
(lp590
VIsobel Lennart
p591
aVRoy Huggins
p592
asS'Celia Edwards'
p593
(lp594
VBereniece Baldwin
p595
asS'Mollie Penkovosky'
p596
(lp597
VRoy Thompson
p598
asS'David Engelstein'
p599
(lp600
VLee Lundgren
p601
asS'Felix Miller'
p602
(lp603
VRichard F. O'Hair
p604
aVWalter Scott Dunn
p605
asS'William Connors'
p606
(lp607
VRichard F. O'Hair
p608
asS'Melva Cook'
p609
(lp610
VBereniece Baldwin
p611
aVMrs. George Cook
p612
aVJ. Will Richard F. O'Hair
p613
asS'Jack Moore'
p614
(lp615
VHarold Ashe
p616
a(lp617
VHarold Ashe
p618
aasS'Simson Marcus'
p619
(lp620
VDr. Sam Reznick
p621
asS'During your Congress'
p622
(lp623
VWilliam L.Patterson
p624
asS'Carl Winter'
p625
(lp626
VRichard F. O'Hair
p627
aVWayne B. Salisbury
p628
aVBereniece Baldwin
p629
a(lp630
VRichard Collins
p631
aVReis Rosenberg
p632
aVFrank Tuttle
p633
aVLeo Townsend
p634
aasS'John Berry'
p635
(lp636
VFrank Tuttle
p637
aVStanley Roberts
p638
aVBernard Schoenfeld
p639
asS'Ring Lardner'
p640
(lp641
VRichard Collins
p642
aVBudd Schulberg
p643
aVFrank Tuttle
p644
aVCharles Daggett
p645
aVAnne Ray Frank
p646
aVElizabeth Wilson
p647
aVElizabeth Wilson
p648
aVRing Lardner
p649
asS'Freda Marcus'
p650
(lp651
VAlice Bennett
p652
asS'Roland Kibbee'
p653
(lp654
VIsobel Lennart
p655
asS'Gil Green'
p656
(lp657
VLee Lundgren
p658
aVIrving Krane
p659
aVJohn Edward Cooke
p660
aVRoy Thompson
p661
asS'William Ingham'
p662
(lp663
VHarold Ashe
p664
aVJ. E. Alice Bennett
p665
asS'Maureen Ryan'
p666
(lp667
VAlice Bennett
p668
asS'Aaron Bindman'
p669
(lp670
VLee Lundgren
p671
asS'Clara Ward'
p672
(lp673
VHarold Ashe
p674
aVMildred Ashe
p675
asS'Marguerite. Sanford'
p676
(lp677
VMarguerite Roberts
p678
asS'Kathleen Goldman'
p679
(lp680
VMrs. Harold Gold
p681
asS'Max Helfand'
p682
(lp683
VMac Thomas Delaney
p684
asS'Lucy Stander'
p685
(lp686
VHarold Ashe
p687
aVMildred Ashe
p688
aVCharles Daggett
p689
asS'Carl Rogers'
p690
(lp691
VWalter Scott Dunn
p692
asS'Jack Nedelman'
p693
(lp694
VDr. Nedelman
p695
aVOleta O'Connor Mildred Ashe
p696
aVTom Charles Judson
p697
aVAlice Bennett
p698
aVUrcel Daniel
p699
asS'Miss Campbell'
p700
(lp701
VWayne B. Salisbury
p702
asS'Milton Schleicher'
p703
(lp704
VBereniece Baldwin
p705
asS'Rachael Carter'
p706
(lp707
VEdward Cooke
p708
aVJohn Alcide T. Kratz
p709
asS'Barbara Stern'
p710
(lp711
VRichard F. O'Hair
p712
aVNick Bereniece Baldwin
p713
asS'Elizabeth Grant'
p714
(lp715
VElizabeth Wilson
p716
asS'Otty Heller'
p717
(lp718
VSamuel DiMaria
p719
asS'Elizabeth L Glenn'
p720
(lp721
VMrs. Charles Glenn
p722
aVElizabeth Leech
p723
asS'Janette Scofield'
p724
(lp725
VOwen Vinson
p726
asS'Robert Lieberman'
p727
(lp728
VDave Averill
p729
asS'Leo Gallagher'
p730
(lp731
VDavid Aaron
p732
asS'Omar Kidwell'
p733
(lp734
VWayne B. Salisbury
p735
asS'Herman Waldman'
p736
(lp737
VPaul Marion
p738
aVOwen Vinson
p739
asS'Clarence Sanders'
p740
(lp741
VBereniece Baldwin
p742
asS'Howland Chamberlin'
p743
(lp744
VMr. Cham
p745
asS'Leonard Cohen'
p746
(lp747
VBereniece Baldwin
p748
asS'James Dawkins'
p749
(lp750
VLee Lundgren
p751
aVIrving Krane
p752
asS'Hannah S Donath'
p753
(lp754
VMrs. Donath
p755
aVMrs Ludwig Donath
p756
asS'Sid Levy'
p757
(lp758
VThomas Delaney
p759
asS'Sally Davis'
p760
(lp761
VBereniece Baldwin
p762
asS'Ida Whipple'
p763
(lp764
VWayne B. Salisbury
p765
asS'George Siskin'
p766
(lp767
VThomas Delaney
p768
aVN. Y.
p769
asS'Melvin Krantzler'
p770
(lp771
VLee Lundgren
p772
asS'Seymour Mandell'
p773
(lp774
VDavid Aaron
p775
aVWilliam G. Israel
p776
aVMilton S. Tyre
p777
asS'Jean Johnson'
p778
(lp779
VRichard F. O'Hair
p780
asS'Janet. Stephenson'
p781
(lp782
VJanet George Glass
p783
asS'Lauren Taylor'
p784
(lp785
VThomas Delaney
p786
aVBaldwin Locomotive
p787
asS'Charles Lindouf'
p788
(lp789
VBereniece Baldwin
p790
asS'Bay Teeple'
p791
(lp792
VDonald O. Spencer
p793
asS'Katie Lee'
p794
(lp795
VRichard F. O'Hair
p796
aVImogene Williams Brantley Bereniece Baldwin
p797
asS'Ginny Lee'
p798
(lp799
VWayne B. Salisbury
p800
asS'John Williamson'
p801
(lp802
VWayne B. Salisbury
p803
a(lp804
VSamuel DiMaria
p805
aasS'Coleman Young'
p806
(lp807
VBereniece Baldwin
p808
asS'Edwin Schoenfeld'
p809
(lp810
VJohn Edward Cooke
p811
asS'Pete Kowal'
p812
(lp813
VBereniece Baldwin
p814
asS'Elizabeth Wilson'
p815
(lp816
VMrs. Richard Wil
p817
asS'Russell Coppock'
p818
(lp819
VWayne B. Salisbury
p820
asS'Philip A Bart'
p821
(lp822
VThomas Delaney
p823
aVSamuel DiMaria
p824
asS'Felix Maise'
p825
(lp826
VBereniece Baldwin
p827
asS'Saul Grossman'
p828
(lp829
VBereniece Baldwin
p830
asS'William A. Rodgers'
p831
(lp832
VRichard F. O'Hair
p833
asS'Alice Smith'
p834
(lp835
VLee Lundgren
p836
aVIrving Krane
p837
asS'Eva Shafran'
p838
(lp839
VFrank Tuttle
p840
aVHarold Ashe
p841
asS'Bob Reed'
p842
(lp843
VRichard F. O'Hair
p844
aVWayne B. Salisbury
p845
asS'Ray Blossom'
p846
(lp847
VWayne B. Salisbury
p848
aVBereniece Baldwin
p849
asS'Joe Bernstein'
p850
(lp851
VRichard F. O'Hair
p852
aVWalter Scott Dunn
p853
aVBereniece Baldwin
p854
asS'Milton Freeman'
p855
(lp856
VRichard F. O'Hair
p857
asS'Sam McGhee'
p858
(lp859
VRichard F. O'Hair
p860
asS'Ruth Levitova'
p861
(lp862
VLee Lundgren
p863
asS'James Ford'
p864
(lp865
VWayne B. Salisbury
p866
asS'Dr. Reznick'
p867
(lp868
VDr. Reznick
p869
asS'Francis Faragoh'
p870
(lp871
VReis Rosenberg
p872
aVEdward Dmytryk
p873
asS'Robert Travis'
p874
(lp875
VDonald O. Spencer
p876
asS'Robert Scott'
p877
(lp878
VLee Lundgren
p879
asS'Ike Greenberg'
p880
(lp881
VWayne B. Salisbury
p882
asS'Paul Cline'
p883
(lp884
VHarold Ashe
p885
aVMildred Ashe
p886
aVCharles Judson
p887
aVAlice Bennett
p888
aVUrcel Daniel
p889
asS'Rex Wheelock'
p890
(lp891
VDonald O. Spencer
p892
asS'Selma Bachelis'
p893
(lp894
VMilton S. Tyre
p895
aVDavid Aaron
p896
aVAlbert Herzig
p897
aVWilliam G. Israel
p898
asS'George Newsorne'
p899
(lp900
VRichard F. O'Hair
p901
aVFrank Novak
p902
aVWayne B. Salisbury
p903
aVMr. Novak
p904
asS'Herbert March'
p905
(lp906
VLee Lundgren
p907
aVRoy Thompson
p908
asS'Jimmy Allen'
p909
(lp910
VHarold Ashe
p911
aVMildred Ashe
p912
asS'Jack Palmquist'
p913
(lp914
VCarl Palm
p915
aVBereniece Baldwin
p916
asS'Mercier Reese'
p917
(lp918
VAlice Bennett
p919
asS'Ruth Webb'
p920
(lp921
VRichard F. O'Hair
p922
aVCasimir Rataj
p923
asS'Jane Trivers'
p924
(lp925
VStanley Roberts
p926
aVBernard Schoenfeld
p927
asS'Maurice Cook'
p928
(lp929
VRichard F. O'Hair
p930
aVElinor Lafferty Walter Scott Dunn
p931
aVWayne B. Salisbury
p932
aVBereniece Baldwin
p933
asS'Morton Grant'
p934
(lp935
VWilliam Blowitz
p936
aVElizabeth Wilson
p937
asS'Ronald Mcintosh'
p938
(lp939
VWayne B. Salisbury
p940
asS'Philip Frankfeld'
p941
(lp942
VThomas Delaney
p943
asS'Hazel Jones'
p944
(lp945
VDonald O. Spencer
p946
asS'Midge Asslin'
p947
(lp948
VRichard F. O'Hair
p949
aVWalter Scott Dunn
p950
asS'Edwin M Max'
p951
(lp952
VPaul Marion
p953
aVOwen Vinson
p954
asS'Dan Slinger'
p955
(lp956
VSamuel DiMaria
p957
asS'Nick Baltic'
p958
(lp959
VBereniece Baldwin
p960
asS'Fred Jones'
p961
(lp962
VBereniece Baldwin
p963
aVDave Averill
p964
asS'Dorothy Pezinan'
p965
(lp966
VAlice Bennett
p967
asS'Sue Lawson'
p968
(lp969
VMrs. John Howard Law
p970
aVWilliam Blowitz
p971
aVElizabeth Wilson
p972
asS'Joe Dougher'
p973
(lp974
VSamuel DiMaria
p975
asS'Dave Silverberg'
p976
(lp977
VRichard F. O'Hair
p978
asS'Timothy Shay'
p979
(lp980
VRichard F. O'Hair
p981
aVTim Potter
p982
aVWalter Scott Dunn
p983
asS'Jane Wilson'
p984
(lp985
VHarold Ashe
p986
asS'Nat Ganley'
p987
(lp988
VWalter Scott Dunn
p989
aVUnited Wayne B. Salisbury
p990
aVBereniece Baldwin
p991
asS'Bruno Bartnick'
p992
(lp993
VJohn Edward Cooke
p994
asS'Robert L. Richards'
p995
(lp996
VRoy Huggins
p997
asS'John Gustafson'
p998
(lp999
VBereniece Baldwin
p1000
asS'Samuel Ornitz'
p1001
(lp1002
VRichard Collins
p1003
aVReis Rosenberg
p1004
aVElizabeth Wilson
p1005
asS'Ned Gorgolinski'
p1006
(lp1007
VLee Lundgren
p1008
aVIrving Krane
p1009
asS'Lester Cole'
p1010
(lp1011
VRichard Collins
p1012
aVReis Rosenberg
p1013
aVMarc Lawrence
p1014
aVEdward Dmytryk
p1015
aVBudd Schulberg
p1016
aVFrank Tuttle
p1017
aVWilliam Blowitz
p1018
aVElizabeth Wilson
p1019
aVMelvin Levy
p1020
aVIsobel Lennart
p1021
a(lp1022
VWilliam Blowitz
p1023
aasS'Lydia Mates'
p1024
(lp1025
VBereniece Baldwin
p1026
aVMrs. Dave Mates
p1027
asS'Donnie Baron'
p1028
(lp1029
VBereniece Baldwin
p1030
asS'Cea Geiselman'
p1031
(lp1032
VSamuel DiMaria
p1033
aVMrs. Joe Kres
p1034
asS'George Altman'
p1035
(lp1036
VDavid Aaron
p1037
aVWilliam G. Israel
p1038
asS'Samuel M Kaplan'
p1039
(lp1040
VThomas Delaney
p1041
asS'Patricia Miller'
p1042
(lp1043
VMrs. John Miller
p1044
asS'Henrietta Pally'
p1045
(lp1046
VAlice Bennett
p1047
asS'Theo Kruse'
p1048
(lp1049
VDonald O. Spencer
p1050
asS'Ed Strong'
p1051
(lp1052
VThomas Delaney
p1053
asS'Elizabeth Leech'
p1054
(lp1055
VRichard Collins
p1056
aVFrank Tuttle
p1057
aVLeo Townsend
p1058
aVWilliam Blowitz
p1059
aVElizabeth Wilson
p1060
aVIsobel Lennart
p1061
aVOwen Vinson
p1062
asS'Leo Simon'
p1063
(lp1064
VAlice Bennett
p1065
aVUrcel Daniel
p1066
aVCharles Daggett
p1067
asS'Imogene Brantley'
p1068
(lp1069
VImogene Brantley
p1070
asS'Leslie Dolman'
p1071
(lp1072
VWayne B. Salisbury
p1073
asS'Sam A Darcy'
p1074
(lp1075
VThomas Delaney
p1076
asS'Adeline Cole'
p1077
(lp1078
VWayne B. Salisbury
p1079
asS'Arnold Manoff'
p1080
(lp1081
VEdward Dmytryk
p1082
aVMildred Ashe
p1083
aVLeo Townsend
p1084
aVElizabeth Wilson
p1085
asS'Gus Gustofson'
p1086
(lp1087
VDonald O. Spencer
p1088
asS'Saul Wellman'
p1089
(lp1090
VBereniece Baldwin
p1091
asS'Sylvia. Marrow'
p1092
(lp1093
VMrs. Abraham Polonsky
p1094
asS'Dewey McGee'
p1095
(lp1096
VDave Averill
p1097
asS'Harold Smith'
p1098
(lp1099
VBereniece Baldwin
p1100
asS'Alex Greenherg'
p1101
(lp1102
VStanley Roberts
p1103
asS'Bettv Verri'
p1104
(lp1105
VLee Lundgren
p1106
asS'Helen Gardner'
p1107
(lp1108
VC. H. Charles Judson
p1109
aVUrcel Daniel
p1110
asS'Foss Baker'
p1111
(lp1112
VWayne B. Salisbury
p1113
asS'Reuben Ship'
p1114
(lp1115
VPaul Marion
p1116
asS'Sonja Dahl'
p1117
(lp1118
VFrank Tuttle
p1119
aVElizabeth Wilson
p1120
aVStanley Roberts
p1121
aVBob Martin
p1122
aVLeona Martin
p1123
asS'Florence Covey'
p1124
(lp1125
VAlice Bennett
p1126
asS'Sam Donchin'
p1127
(lp1128
VSam Samuel DiMaria
p1129
asS'Mary M Maraniss'
p1130
(lp1131
VMary Morrison
p1132
asS'Art Shapiro'
p1133
(lp1134
VPaul Marion
p1135
asS'Charles McClaughlan'
p1136
(lp1137
VAlbert Herzig
p1138
asS'George Corey'
p1139
(lp1140
VEdward Dmytryk
p1141
a(lp1142
VEdward Dmytryk
p1143
aasS'Rose Rosenberg'
p1144
(lp1145
VMilton S. Tyre
p1146
asS'William Chandler'
p1147
(lp1148
VBereniece Baldwin
p1149
asS'Louis Sciverras'
p1150
(lp1151
VRichard F. OHair
p1152
asS'Lawrence Ross'
p1153
(lp1154
VHarold Ashe
p1155
aVMildred Ashe
p1156
asS'Eddie Pietrowski'
p1157
(lp1158
VBereniece Baldwin
p1159
asS'Miss S Wells'
p1160
(lp1161
VMrs. Arnaud D'Us
p1162
asS'Chris Alston'
p1163
(lp1164
VRichard F. O'Hair
p1165
aVBereniece Baldwin
p1166
asS'Richard Criley'
p1167
(lp1168
VLee Lundgren
p1169
asS'Wilma Persley'
p1170
(lp1171
VT. Kratz
p1172
aVPeterson Alcide T. Kratz
p1173
asS'Daniel Trees'
p1174
(lp1175
VBereniece Baldwin
p1176
asS'Lottie Glicker'
p1177
(lp1178
VLee Lundgren
p1179
asS'John Sanford'
p1180
(lp1181
VElizabeth Wilson
p1182
asS'Bob Morrell'
p1183
(lp1184
VThomas Delaney
p1185
asS'Raphael Konigsburg'
p1186
(lp1187
VAlice Bennett
p1188
asS'Aldo Sandretto'
p1189
(lp1190
VBereniece Baldwin
p1191
asS'Jack Tenner'
p1192
(lp1193
VDavid Aaron
p1194
aVMarburg Yerkes
p1195
aVMilton S. Tyre
p1196
asS'Faye McDonnell'
p1197
(lp1198
VWayne B. Salisbury
p1199
aVMrs. Floyd McDonnell
p1200
asS'Esther Shapiro'
p1201
(lp1202
VBereniece Baldwin
p1203
aVMrs. Harold Shapiro
p1204
asS'Louise Seidel'
p1205
(lp1206
VElizabeth Wilson
p1207
asS'Katherine Lynch'
p1208
(lp1209
VRichard F. O'Hair
p1210
asS'Arthur Hendle'
p1211
(lp1212
VDonald O. Spencer
p1213
asS'Gladys Liefchild'
p1214
(lp1215
VMrs. Gerald Lief
p1216
aVAlice Bennett
p1217
asS'Ambur Salt'
p1218
(lp1219
VRichard Collins
p1220
asS'Noum Light'
p1221
(lp1222
VDavid Aaron
p1223
asS'Sam Rizzo'
p1224
(lp1225
VShelton Tappes
p1226
asS'Henderson Gates'
p1227
(lp1228
VRichard F. O'Hair
p1229
asS'Jack Sanberg'
p1230
(lp1231
VRichard F. OHair
p1232
asS'Jesse Perez'
p1233
(lp1234
VRoy Thompson
p1235
asS'Fay G Grossman'
p1236
(lp1237
VMrs. Saul Bereniece Baldwin
p1238
asS'Sadie Ornitz'
p1239
(lp1240
VMrs. Sam Ornitz
p1241
aVElizabeth Wilson
p1242
asS'James Cutno'
p1243
(lp1244
VRoy Thompson
p1245
asS'Alfred Levitt'
p1246
(lp1247
VMelvin Levy
p1248
asS'Pressley Green'
p1249
(lp1250
VWayne B. Salisbury
p1251
asS'Rose Segure'
p1252
(lp1253
VAlice Bennett
p1254
asS'Joe Dennis'
p1255
(lp1256
VRoy Thompson
p1257
asS'William Allan'
p1258
(lp1259
VRichard F. O'Hair
p1260
aVWalter Scott Dunn
p1261
aVWayne B. Salisbury
p1262
aVBereniece Baldwin
p1263
aVShelton Tappes
p1264
asS'George Manning'
p1265
(lp1266
VRoy Thompson
p1267
asS'Hilliard Chamblis'
p1268
(lp1269
VBereniece Baldwin
p1270
asS'Joseph McCann'
p1271
(lp1272
VThomas Delaney
p1273
asS'Esther Bigford'
p1274
(lp1275
VWayne B. Salisbury
p1276
asS'Prokop J Prokop'
p1277
(lp1278
VMr. Prokop
p1279
asS'Oleta O Yates'
p1280
(lp1281
VOleta O'Connor
p1282
asS'George Kristalsky'
p1283
(lp1284
VWayne B. Salisbury
p1285
aVCasimir Rataj
p1286
asS'Charles J Newspaperman'
p1287
(lp1288
VAlice Bennett
p1289
aVUrcel Daniel
p1290
asS'Ethel Spiller'
p1291
(lp1292
VThomas Delaney
p1293
asS'Rude Lambert'
p1294
(lp1295
VMildred Ashe
p1296
asS'Abraham L Polonsky'
p1297
(lp1298
VRichard Collins
p1299
aVMeta Reis Rosenberg
p1300
aVLeo Townsend
p1301
aVCharles Daggett
p1302
aVStanley Roberts
p1303
asS'Bridget Poison'
p1304
(lp1305
VBereniece Baldwin
p1306
asS'William R. Hood'
p1307
(lp1308
VShelton Tappes
p1309
asS'Rose Elfman'
p1310
(lp1311
VMildred Ashe
p1312
asS'Mabel Wilson'
p1313
(lp1314
VDonald O. Spencer
p1315
asS'Darr Smith'
p1316
(lp1317
VCharles Judson
p1318
aVAlice Bennett
p1319
aVUrcel Daniel
p1320
asS'Branislaus Zukas'
p1321
(lp1322
VAlice Bennett
p1323
asS'Albert Hickox'
p1324
(lp1325
VHarold Ashe
p1326
asS'Elliot Maraniss'
p1327
(lp1328
VBereniece Baldwin
p1329
asS'Helen Sanberg'
p1330
(lp1331
VRichard F. OHair
p1332
aVMrs. Jack Sanberg
p1333
asS'Frank Pestana'
p1334
(lp1335
VDavid Aaron
p1336
aVWilliam G. Israel
p1337
aVMilton S. Tyre
p1338
asS'Pope Huff'
p1339
(lp1340
VJohn Edward Cooke
p1341
asS'Mabel Mitchell'
p1342
(lp1343
VRichard F. O'Hair
p1344
asS'Betty Gannett'
p1345
(lp1346
VRichard F. O'Hair
p1347
a(lp1348
VSamuel DiMaria
p1349
aasS'Charles Young'
p1350
(lp1351
VMildred Ashe
p1352
asS'Peggy Wellman'
p1353
(lp1354
VBereniece Baldwin
p1355
asS'Sidney Barclay'
p1356
(lp1357
VBereniece Baldwin
p1358
asS'Beatrice Buchman'
p1359
(lp1360
VMrs. Sidney Buch
p1361
asS'John McTernan'
p1362
(lp1363
VDavid Aaron
p1364
aVWilliam G. Israel
p1365
aVMilton S. Tyre
p1366
asS'Jacob Druckman'
p1367
(lp1368
VSam Reznick
p1369
asS'Charlotte Hull'
p1370
(lp1371
VMildred Ashe
p1372
aVHarold Ashe
p1373
asS'Ceorge Shanta'
p1374
(lp1375
VAlcide T. Kratz
p1376
asS'Frank Stepanchenko'
p1377
(lp1378
VDave Averill
p1379
asS'Harry Freed'
p1380
(lp1381
VLee Lundgren
p1382
asS'Sylvia Jarrico'
p1383
(lp1384
VLeo Townsend
p1385
aVElizabeth Wilson
p1386
aVElizabeth Wilson
p1387
aVSylvia Jarrico
p1388
asS'Charles Lassiter'
p1389
(lp1390
VJohn Edward Cooke
p1391
asS'Jack Robinson'
p1392
(lp1393
VPaul Marion
p1394
asS'Edwin Davis'
p1395
(lp1396
VHoward Dr. Mendell Krieger
p1397
aVRoy Huggins
p1398
a(lp1399
VDr. Mendell Krieger
p1400
aVRoy Huggins
p1401
aasS'Sven Falk'
p1402
(lp1403
VBereniece Baldwin
p1404
aVWayne B. Salisbury
p1405
asS'Boleslaw Gebert'
p1406
(lp1407
VCasimir Rataj
p1408
asS'Radio Electrical'
p1409
(lp1410
VIrving Krane
p1411
aVLee Lundgren
p1412
aVRoy Thompson
p1413
aVAlcide T. Kratz
p1414
aVJohn Edward Cooke
p1415
aVDonald O. Spencer
p1416
asS'Gerald Liefchild'
p1417
(lp1418
VAlice Bennett
p1419
asS'Jack Raskin'
p1420
(lp1421
VWayne B. Salisbury
p1422
aVBereniece Baldwin
p1423
asS'Frederick Reynolds'
p1424
(lp1425
VDr. Sam Reznick
p1426
asS'Alvah Bessie'
p1427
(lp1428
VEdward Dmytryk
p1429
aVFrank Tuttle
p1430
aVLeo Townsend
p1431
aVWilliam Blowitz
p1432
aVIsobel Lennart
p1433
asS'Betty DeCormier'
p1434
(lp1435
VRobert DeCormier
p1436
asS'Matt Snyder'
p1437
(lp1438
VThomas Delaney
p1439
asS'Sam Witczak'
p1440
(lp1441
VDr. Mendell M. Krieger
p1442
asS'Robert Rossen'
p1443
(lp1444
VRichard Collins
p1445
aVReis Rosenberg
p1446
aVLeo Townsend
p1447
aVAnne Ray Frank
p1448
asS'Jane. Wallace'
p1449
(lp1450
VHarold Ashe
p1451
asS'Billie Mogill'
p1452
(lp1453
VBereniece Baldwin
p1454
aVMrs. George Mogill
p1455
asS'Virginia Kibre'
p1456
(lp1457
VHarold Ashe
p1458
aVMildred Ashe
p1459
asS'Irving Herman'
p1460
(lp1461
VLee Lundgren
p1462
asS'Anthony Koss'
p1463
(lp1464
VIrving Krane
p1465
asS'Karen Morley'
p1466
(lp1467
VMarc Lawrence
p1468
aVLeo Townsend
p1469
aVCharles Daggett
p1470
aVStanley Roberts
p1471
aVPaul Marion
p1472
asS'Stanley Adamski'
p1473
(lp1474
VBereniece Baldwin
p1475
aVG. Wayne B. Salisbury
p1476
aVJeorge Wayne B. Salisbury
p1477
asS'Elizabeth Clark'
p1478
(lp1479
VRichard F. O'Hair
p1480
asS'Nemmy Sparks'
p1481
(lp1482
VRichard Collins
p1483
aVFrank Tuttle
p1484
aVLeo Townsend
p1485
asS'J Masee'
p1486
(lp1487
VRichard F. O'Hair
p1488
asS'Ann Beiswenger'
p1489
(lp1490
VRichard F. O'Hair
p1491
aVMrs. Hugo Beiswenger
p1492
aVWalter Scott Dunn
p1493
aVWayne B. Salisbury
p1494
aVDave Averill
p1495
asS'Arthur Storey'
p1496
(lp1497
VThomas Delaney
p1498
asS'Thomas Wood'
p1499
(lp1500
VRoy Thompson
p1501
asS'Willie Howell'
p1502
(lp1503
VRoy Thompson
p1504
asS'Charles Walters'
p1505
(lp1506
VBereniece Baldwin
p1507
asS'Jake Jacobowitz'
p1508
(lp1509
VBereniece Baldwin
p1510
asS'Mr. McAllister'
p1511
(lp1512
VWayne B. Salisbury
p1513
asS'Jack Stachel'
p1514
(lp1515
VThomas Delaney
p1516
aVN. Y.
p1517
a(lp1518
VElizabeth Bentley
p1519
aasS'Nat Praeger'
p1520
(lp1521
VHarold Ashe
p1522
aVMildred Ashe
p1523
asS'Phil Raymond'
p1524
(lp1525
VWayne B. Salisbury
p1526
aVBereniece Baldwin
p1527
asS'Dr. Decker'
p1528
(lp1529
VS. Harold Ashe
p1530
asS'Norman Smith'
p1531
(lp1532
VThomas Delaney
p1533
asS'William Esterman'
p1534
(lp1535
VDavid Aaron
p1536
aVWilliam G. Israel
p1537
aVMilton S. Tyre
p1538
asS'Elizabeth Faragoh'
p1539
(lp1540
VMrs. Francis Edward Dniytryk
p1541
asS'Max Chait'
p1542
(lp1543
VBereniece Baldwin
p1544
aVShelton Tappes
p1545
asS'Janet Stevenson'
p1546
(lp1547
VMrs. Philip Steven
p1548
aVRoy Huggins
p1549
aVJanet Stephenson
p1550
asS'Catherine Hall'
p1551
(lp1552
VMrs. John Donald O. Spencer
p1553
asS'Lloyd Gough'
p1554
(lp1555
VStanley Roberts
p1556
aVPaul Marion
p1557
asS'Louis Seofield'
p1558
(lp1559
VOwen Vinson
p1560
aVMr. Vinson
p1561
aVMr. Seofield
p1562
asS'Jeff Kibre'
p1563
(lp1564
VBarry Harold Ashe
p1565
aVMildred Ashe
p1566
asS'Booker White'
p1567
(lp1568
VJohn Edward Cooke
p1569
asS'Eugene R. Stone'
p1570
(lp1571
VPaul Marion
p1572
aVOwen Vinson
p1573
asS'Dorothy Hillyer'
p1574
(lp1575
VDonald O. Spencer
p1576
asS'Casper Kennedy'
p1577
(lp1578
VWayne B. Salisbury
p1579
asS'Bernard Lucas'
p1580
(lp1581
VLee Lundgren
p1582
asS'Helen Palmquist'
p1583
(lp1584
VBereniece Baldwin
p1585
aVMrs. Carl Palmquist
p1586
asS'Ruth Beeman'
p1587
(lp1588
VHarold Ashe
p1589
aVMildred Ashe
p1590
asS'Leon Turrett'
p1591
(lp1592
VDavid Aaron
p1593
aVMarburg Yerkes
p1594
asS'Hazel Gray'
p1595
(lp1596
VJohn Edward Cooke
p1597
asS'Pauline Hopkins'
p1598
(lp1599
VPaul Marion
p1600
asS'Edward Brown'
p1601
(lp1602
VEd Lee Lundgren
p1603
aVJohn Edward Cooke
p1604
asS'Leslie Edgley'
p1605
(lp1606
VRoy Huggins
p1607
asS'David Hilberman'
p1608
(lp1609
VEugene Fleury
p1610
asS'Kay Bassman'
p1611
(lp1612
VMrs. George Martin
p1613
aVGeorge Bassman
p1614
asS'Dave Davis'
p1615
(lp1616
VThomas Delaney
p1617
aVSamuel DiMaria
p1618
asS'Grant Oakes'
p1619
(lp1620
VDonald O. Spencer
p1621
asS'Jean Erickson'
p1622
(lp1623
VAlcide T. Kratz
p1624
asS'Sonora Babb'
p1625
(lp1626
VGeorge Bassman
p1627
asS'James M. Simmons'
p1628
(lp1629
VRichard F. O'Hair
p1630
aVShelton Tappes
p1631
asS'Art Smith'
p1632
(lp1633
VElia Kazan
p1634
aVClifford Odets
p1635
asS'John Little'
p1636
(lp1637
VWayne B. Salisbury
p1638
asS'Ellen Davidson'
p1639
(lp1640
VPaul Marion
p1641
asS'Wilford Sherrington'
p1642
(lp1643
VThomas Delaney
p1644
asS'Jesse Parrish'
p1645
(lp1646
VRichard F. O'Hair
p1647
aVWayne B. Salisbury
p1648
asS'Izzy Berenson'
p1649
(lp1650
VRichard F. O'Hair
p1651
aVWalter Scott Dunn
p1652
asS'Frank Iglesias'
p1653
(lp1654
VRichard F. O'Hair
p1655
asS'William Sheehan'
p1656
(lp1657
VJ. Lee Lundgren
p1658
asS'Tom. Dombrowski'
p1659
(lp1660
VRichard F. O'Hair
p1661
aVWalter Scott Dunn
p1662
aVWayne B. Salisbury
p1663
asS'Gale. Biberman'
p1664
(lp1665
VGale Sondergaard
p1666
asS'Ida Miller'
p1667
(lp1668
VMildred Ashe
p1669
asS'Jesus Gonzales'
p1670
(lp1671
VBereniece Baldwin
p1672
asS'Jean Pestana'
p1673
(lp1674
VDavid Aaron
p1675
asS'John Lymber'
p1676
(lp1677
VRichard F. O'Hair
p1678
asS'Dorothy Uris'
p1679
(lp1680
VMeta Reis Rosenberg
p1681
aVFrank Tuttle
p1682
aVStanley Roberts
p1683
aVBernard Schoenfeld
p1684
asS'Fred Franchi'
p1685
(lp1686
VCharles Judson
p1687
aVAlice Bennett
p1688
aVJ. Allen Louise Light Silver
p1689
aVDavid Aaron
p1690
aVMarburg Yerkes
p1691
aVMilton S. Tyre
p1692
asS'Sidney Buchman'
p1693
(lp1694
VSidney Buchman
p1695
asS'Annette Harper'
p1696
(lp1697
VPaul Marion
p1698
aVOwen Vinson
p1699
asS'Paul Jarrico'
p1700
(lp1701
VRichard Collins
p1702
aVReis Rosenberg
p1703
aVBudd Schulberg
p1704
aVDavid Raksin
p1705
aVCharles Daggett
p1706
aVIsoBel Lennart
p1707
aVAnne Ray Frank
p1708
aVPaul Marion
p1709
aVElizabeth Wilson
p1710
aVElizabeth Wilson
p1711
aVPaul Jarrico
p1712
asS'Ann Ganley'
p1713
(lp1714
VRichard F. O'Hair
p1715
asS'John Weber'
p1716
(lp1717
VLeo Townsend
p1718
asS'Hoke Higdon'
p1719
(lp1720
VWayne B. Salisbury
p1721
asS'Nelson Davis'
p1722
(lp1723
VWalter Scott Dunn
p1724
aVWayne B. Salisbury
p1725
aVBereniece Baldwin
p1726
aVShelton Tappes
p1727
asS'Dave Miller'
p1728
(lp1729
VRichard F. O'Hair
p1730
asS'These organizations Communists'
p1731
(lp1732
VWilliam K. Hood
p1733
aVColeman Young
p1734
asS'Ben Thomas'
p1735
(lp1736
VThomas Delaney
p1737
asS'James Jackson'
p1738
(lp1739
VWayne B. Salisbury
p1740
aVBereniece Baldwin
p1741
asS'Shirley Bollin'
p1742
(lp1743
VBereniece Baldwin
p1744
aVMrs. Cliff Bollin
p1745
asS'Vera Harris'
p1746
(lp1747
VHarold Ashe
p1748
aVMildred Ashe
p1749
aVElizabeth Wilson
p1750
asS'Marjorie. MacGregor'
p1751
(lp1752
VMarjorie Manoff
p1753
asS'Julius Dassin'
p1754
(lp1755
VEdward Dmytryk
p1756
aVFrank Tuttle
p1757
asS'Nina Klowden'
p1758
(lp1759
VPaul Marion
p1760
aVOwen Vinson
p1761
asS'Pauline L Finn'
p1762
(lp1763
VRichard Collins
p1764
aVPauline Lauber
p1765
asS'Wilma Shore'
p1766
(lp1767
VRoy Huggins
p1768
asS'Percy Solotoy'
p1769
(lp1770
VHarold Ashe
p1771
aVMildred Ashe
p1772
aVCharles Daggett
p1773
a(lp1774
VHarold Ashe
p1775
aVMildred Ashe
p1776
aVAlice Bennett
p1777
aasS'Joe Balsis'
p1778
(lp1779
VAlcide T. Kratz
p1780
asS'Oscar Rhodes'
p1781
(lp1782
VBereniece Baldwin
p1783
asS'Jim Frazier'
p1784
(lp1785
VWayne B. Salisbury
p1786
asS'Waldo Salt'
p1787
(lp1788
VRichard Collins
p1789
aVReis Rosenberg
p1790
aVBudd Schulberg
p1791
aVFrank W. Tuttle
p1792
aVLeo Townsend
p1793
aVDavid Raksin
p1794
asS'Joy Pepper'
p1795
(lp1796
VLeo Townsend
p1797
asS'Dolph Winebrenner'
p1798
(lp1799
VCharles Daggett
p1800
aVCharles Judson
p1801
aVAlice Bennett
p1802
aVUrcel Daniel
p1803
asS'Dave Mates'
p1804
(lp1805
VBereniece Baldwin
p1806
asS'Tom Cullen'
p1807
(lp1808
VAlice Bennett
p1809
aVUrcel Daniel
p1810
asS'Larry Davis'
p1811
(lp1812
VBereniece Baldwin
p1813
asS'John Stapp'
p1814
(lp1815
VReis Rosenberg
p1816
aVFrank Tuttle
p1817
aVLeo Townsend
p1818
aVWilliam Blowitz
p1819
aVElizabeth Wilson
p1820
aVPaul Marion
p1821
aVOwen Vinson
p1822
aVIsobel Lennart
p1823
asS'Jonathan Eddy'
p1824
(lp1825
VCharles Daggett
p1826
asS'Alfred Wagenknecht'
p1827
(lp1828
VLee Lundgren
p1829
asS'Walter McElroy'
p1830
(lp1831
VMildred Ashe
p1832
asS'Elmer Hanoff'
p1833
(lp1834
VMildred Ashe
p1835
aVHarold Ashe
p1836
asS'Ed Robbins'
p1837
(lp1838
VCharles Daggett
p1839
aVCharles Judson
p1840
aVAlice Bennett
p1841
aVUrcel Daniel
p1842
asS'Stephanie Allan'
p1843
(lp1844
VBereniece Baldwin
p1845
aVMrs. William Allan
p1846
asS'Harold Fisher'
p1847
(lp1848
VDonald O. Spencer
p1849
asS'Mary Morrison'
p1850
(lp1851
VBereniece Baldwin
p1852
aVMrs. Eliot Maraniss
p1853
asS'Leo T Physician'
p1854
(lp1855
VDavid Raksin
p1856
aVElizabeth Wilson
p1857
asS'William Glenn'
p1858
(lp1859
VWayne B. Salisbury
p1860
asS'Dorothy Parker'
p1861
(lp1862
VMrs. Alan Campbell
p1863
asS'Bob Klonsky'
p1864
(lp1865
VThomas Delaney
p1866
asS'Robert Purdy'
p1867
(lp1868
VBereniece Baldwin
p1869
asS'Donald Tiegland'
p1870
(lp1871
VDonald O. Spencer
p1872
asS'Philip Connelly'
p1873
(lp1874
VCharles Judson
p1875
aVAlice Bennett
p1876
aVUrcel Daniel
p1877
aVE. O. Harold Ashe
p1878
asS'Leo T. Orsage'
p1879
(lp1880
VBereniece Baldwin
p1881
aVShelton Tappes
p1882
asS'Joe. Bentzenhoffer'
p1883
(lp1884
VJoseph Bezen
p1885
asS'Max Weiss'
p1886
(lp1887
VLee Lundgren
p1888
asS'Pat Toohey'
p1889
(lp1890
VRichard F. O'Hair
p1891
aVWalter Scott Dunn
p1892
aVWayne B. Salisbury
p1893
asS'Ann R Richards'
p1894
(lp1895
VRoy Huggins
p1896
asS'George Hallgren'
p1897
(lp1898
VIsobel Lennart
p1899
asS'John Watkins'
p1900
(lp1901
VDonald O. Spencer
p1902
a(lp1903
VCatherine Hall
p1904
aasS'Edward Huebseh'
p1905
(lp1906
VFrank Tuttle
p1907
aVLee Townsend
p1908
aVMelvin Levy
p1909
aVStanley Roberts
p1910
asS'Willie Newman'
p1911
(lp1912
VRichard F. O'Hair
p1913
asS'Maurice Clark'
p1914
(lp1915
VEdward Dmytryk
p1916
aVFrank Tuttle
p1917
asS'Mrs. Katz'
p1918
(lp1919
VDr. Mendell M. Krieger
p1920
asS'Fred Dutner'
p1921
(lp1922
VLee Lundgren
p1923
asS'Emily Gordon'
p1924
(lp1925
VMrs. Julian Gordon
p1926
aVEmily Gordon
p1927
asS'Edward Biberman'
p1928
(lp1929
VReis Rosenberg
p1930
aVFrank Tuttle
p1931
aVStanley Roberts
p1932
a(lp1933
VSonja Dahl
p1934
aasS'Lewis Leverett'
p1935
(lp1936
VElia Kazan
p1937
aVClifford Odets
p1938
asS'Tom Nabried'
p1939
(lp1940
VThomas Delaney
p1941
aVSamuel DiMaria
p1942
asS'Walter Christie'
p1943
(lp1944
VBereniece Baldwin
p1945
asS'Claude Lightfoot'
p1946
(lp1947
VLee Lundgren
p1948
asS'Harry Carlisle'
p1949
(lp1950
VBudd Schulberg
p1951
asS'Alexander Trachtenberg'
p1952
(lp1953
VLouis F. Budenz
p1954
asS'Rose Most'
p1955
(lp1956
VAlice Bennett
p1957
asS'Nina Parris'
p1958
(lp1959
VThomas Delaney
p1960
asS'Lionel Stander'
p1961
(lp1962
VMarc Lawrence
p1963
aVHarold Ashe
p1964
aVMildred Ashe
p1965
asS'Milton Lester'
p1966
(lp1967
VDr. Lester
p1968
asS'Irving Riskin'
p1969
(lp1970
VRichard F. O'Hair
p1971
aVWalter Scott Dunn
p1972
aVRichard F. O'Hair
p1973
aVMrs. Irving Riskin
p1974
asS'Betty Arden'
p1975
(lp1976
VMildred Ashe
p1977
asS'Ruth Dombrowski'
p1978
(lp1979
VWayne B. Salisbury
p1980
aVMrs. Tom Dombrowski
p1981
asS'Mills Sampy'
p1982
(lp1983
VRichard F. OHair
p1984
asS'Emma Williams'
p1985
(lp1986
VBereniece Baldwin
p1987
asS'Mary Bray'
p1988
(lp1989
VWalter Scott Dunn
p1990
aVBereniece Baldwin
p1991
asS'Louise Losey'
p1992
(lp1993
VLeo Townsend
p1994
aVMrs. Joseph Losey
p1995
asS'Gordon Kahn'
p1996
(lp1997
VRichard Collins
p1998
aVReis Rosenberg
p1999
aVMarc Lawrence
p2000
aVEdward Dmytryk
p2001
aVBudd Schulberg
p2002
aVCharles Daggett
p2003
aVIsobel Lennart
p2004
aVStanley Roberts
p2005
aVAnne Ray Frank
p2006
asS'Harold Robertson'
p2007
(lp2008
VBereniece Baldwin
p2009
asS'Ben Polin'
p2010
(lp2011
VPaul Marion
p2012
asS'Maurice Murphy'
p2013
(lp2014
VElizabeth Wilson
p2015
aVIsobel Lennart
p2016
asS'Bill Daley'
p2017
(lp2018
VWayne B. Salisbury
p2019
asS'Lou Harris'
p2020
(lp2021
VHarold Ashe
p2022
aVMildred Ashe
p2023
aVElizabeth Wilson
p2024
asS'Ralph Glick'
p2025
(lp2026
VSamuel DiMaria
p2027
aVThomas Delaney
p2028
asS'Roy Narancich'
p2029
(lp2030
VDave Averill
p2031
aVNerich Bereniece Baldwin
p2032
asS'Harry Glassgold'
p2033
(lp2034
VRichard F. O'Hair
p2035
asS'Mort Furay'
p2036
(lp2037
VBereniece Baldwin
p2038
asS'Ralph Smith'
p2039
(lp2040
VHarold Ashe
p2041
asS'Glen Showerman'
p2042
(lp2043
VWayne B. Salisbury
p2044
asS'Alvin Frisbie'
p2045
(lp2046
VJohn Edward Cooke
p2047
asS'Betty Ireland'
p2048
(lp2049
VRichard F. O'Hair
p2050
aVWalter Scott Dunn
p2051
asS'Annie Alexander'
p2052
(lp2053
VRoy Thompson
p2054
asS'Mike Gates'
p2055
(lp2056
VSamuel DiMaria
p2057
asS'Delaware Jersey'
p2058
(lp2059
VMr. Delaney
p2060
aVMr. Delaney
p2061
aVMr. Delaney
p2062
aVJoe Kuzma
p2063
asS'Al Bigford'
p2064
(lp2065
VWayne B. Salisbury
p2066
asS'Joe Brandt'
p2067
(lp2068
VWayne B. Salisbury
p2069
aVBereuiece Baldwin
p2070
asS'Ann. Roth'
p2071
(lp2072
VAnn Roth Morgan Richards
p2073
asS'Carl Turner'
p2074
(lp2075
VWalter Scott Dunn
p2076
asS'Verna McAllister'
p2077
(lp2078
VBereniece Baldwin
p2079
asS'Rose Banks'
p2080
(lp2081
VWayne B. Salisbury
p2082
asS'Elinor Maki'
p2083
(lp2084
VMrs. William
p2085
aVRoy Bereniece Baldwin
p2086
asS'LeRoy Tribbite'
p2087
(lp2088
VAlcide T. Kratz
p2089
asS'Mrs. Dillard'
p2090
(lp2091
VRichard F. O'Hair
p2092
asS'Lynn Whitney'
p2093
(lp2094
VPaul Marion
p2095
asS'Matilda Maxwell'
p2096
(lp2097
VRichard F. O'Hair
p2098
aVMrs. Jesse Parrish
p2099
asS'Mildred. Pierce'
p2100
(lp2101
VMildred Perl
p2102
asS'Pat Killoran'
p2103
(lp2104
VCharles Judson
p2105
aVAlice Bennett
p2106
aVUrcel Daniel
p2107
asS'Jack Mondress'
p2108
(lp2109
VSamuel DiMaria
p2110
asS'Dalton Trumbo'
p2111
(lp2112
VAnne Ray Frank
p2113
aVFrank Tuttle
p2114
aVCharles Daggett
p2115
aVStanley Roberts
p2116
aVBernard Schoenfeld
p2117
asS'Jessie Sehneiderinan'
p2118
(lp2119
VSamuel DiMaria
p2120
asS'Mary Mclntyre'
p2121
(lp2122
VBereniece Baldwin
p2123
aVMrs. Harold Franklin
p2124
aVAnn Arbor
p2125
asS'Philip Saba'
p2126
(lp2127
VThomas Delaney
p2128
asS'John Leech'
p2129
(lp2130
VHarold Ashe
p2131
aVMildred Ashe
p2132
asS'Andy Barrigan'
p2133
(lp2134
VUrcel Daniel
p2135
asS'John McGrew'
p2136
(lp2137
VEugene Fleury
p2138
asS'Irving Goff'
p2139
(lp2140
VThomas Delaney
p2141
asS'Sam Hammersmark'
p2142
(lp2143
VLee Lundgren
p2144
asS'Harold Franklin'
p2145
(lp2146
VBereniece Baldwin
p2147
a(lp2148
VMary Mclntyre
p2149
aasS'Minna Klein'
p2150
(lp2151
VHarold Ashe
p2152
aVMildred Ashe
p2153
aVCharles Daggett
p2154
aVCharles Judson
p2155
aVAlice Bennett
p2156
aVUrcel Daniel
p2157
asS'Adam Smith'
p2158
(lp2159
VLee Lundgren
p2160
asS'Miriam Solomon'
p2161
(lp2162
VAlice Bennett
p2163
asS'Henry Winston'
p2164
(lp2165
VWayne B. Salisbury
p2166
asS'Abe Burrows'
p2167
(lp2168
VOwen Vinson
p2169
asS'Phil Schatz'
p2170
(lp2171
VWayne B. Salisbury
p2172
aVBereniece Baldwin
p2173
asS'John Cherveny'
p2174
(lp2175
VBereniece Baldwin
p2176
asS'Isaac Folkoff'
p2177
(lp2178
VSterling Hayden
p2179
asS'Nettie Rubenstein'
p2180
(lp2181
VRobert Louis Stevenson School
p2182
asS'Fred M. Snider'
p2183
(lp2184
VDavid Aaron
p2185
asS'Helen Allison'
p2186
(lp2187
VHelen Alli
p2188
asS'Fred Davey'
p2189
(lp2190
VWayne B. Salisbury
p2191
asS'Don R. Healy'
p2192
(lp2193
VHarold Ashe
p2194
asS'James Avery'
p2195
(lp2196
VRoy Thompson
p2197
asS'Clyde Champion'
p2198
(lp2199
VHarold Ashe
p2200
asS'Pettis Perry'
p2201
(lp2202
VMildred Ashe
p2203
aVCharles Judson
p2204
aVAlice Bennett
p2205
asS'Hugo Beiswenger'
p2206
(lp2207
VRichard F. O'Hair
p2208
aVDetroit Walter Scott Dunn
p2209
aVWayne B. Salisbury
p2210
asS'Frank Martin'
p2211
(lp2212
VBereniece Baldwin
p2213
asS'Melvyn Letzman'
p2214
(lp2215
VHarold Ashe
p2216
asS'Marie Rinaldo'
p2217
(lp2218
VLeo Townsend
p2219
aVW. L. Martin
p2220
asS'John Gallo'
p2221
(lp2222
VWalter Scott Dunn
p2223
aVBereniece Baldwin
p2224
aVDave Averill
p2225
asS'Lem Harris'
p2226
(lp2227
VLee Lundgren
p2228
asS'Mary Casaro'
p2229
(lp2230
VDonald O. Spencer
p2231
asS'Huso Beiswenger'
p2232
(lp2233
VWayne B. Salisbury
p2234
asS'Ben Kocel'
p2235
(lp2236
VBereniece Baldwin
p2237
aVGlos Ludowy
p2238
asS'Jack Birch'
p2239
(lp2240
VLee Lundgren
p2241
asS'Gilbert Green'
p2242
(lp2243
VSamuel DiMaria
p2244
asS'Hetty Vorhaus'
p2245
(lp2246
VBernard Schoenfeld
p2247
asS'Benjamin Lieberman'
p2248
(lp2249
VDr. Lieber
p2250
asS'Mattie L Woodson'
p2251
(lp2252
VRichard F. O'Hair
p2253
aVWayne B. Salisbury
p2254
asS'Jean Butler'
p2255
(lp2256
VStanley Roberts
p2257
asS'Paul Henley'
p2258
(lp2259
VRichard F. O'Hair
p2260
aVWayne B. Salisbury
p2261
aVBereniece Baldwin
p2262
asS'Lee Barrie'
p2263
(lp2264
VOwen Vinson
p2265
asS'Mortimer W Pomerance'
p2266
(lp2267
VEugene Fleury
p2268
asS'Sidney Burke'
p2269
(lp2270
VHarold Ashe
p2271
asS'Lee. York'
p2272
(lp2273
VSee Lee
p2274
asS'Gordon Rosenblum'
p2275
(lp2276
VDr. Mendell M. Krieger
p2277
asS'Milt Kashner'
p2278
(lp2279
VAlice Bennett
p2280
asS'Kurt Davis'
p2281
(lp2282
VBereniece Baldwin
p2283
asS'Ben Bengal'
p2284
(lp2285
VLeo Townsend
p2286
asS'Daniel L James'
p2287
(lp2288
VLeo Townsend
p2289
asS'As a Condon'
p2290
(lp2291
VDr. Condon
p2292
aVDr. Condon
p2293
aVDr. Condon
p2294
aVDr. Condon
p2295
asS'George Mogill'
p2296
(lp2297
VBereniece Baldwin
p2298
aVA. Bereniece Baldwin
p2299
asS'Michael Wilson'
p2300
(lp2301
VBernard Schoenfeld
p2302
asS'Betty Selden'
p2303
(lp2304
VAlice Bennett
p2305
asS'Fred Williams'
p2306
(lp2307
VWayne B. Salisbury
p2308
aVBrass Bereniece Baldwin
p2309
asS'Fred Fische'
p2310
(lp2311
VBereniece Baldwin
p2312
asS'Milton S. Tyre'
p2313
(lp2314
VDavid Aaron
p2315
aVAlbert Herzig
p2316
aVWm. G. Israel
p2317
asS'Joe Poskonka'
p2318
(lp2319
VRoy Thompson
p2320
asS'Steve Simmons'
p2321
(lp2322
VBereniece Baldwin
p2323
asS'John Milkovitch'
p2324
(lp2325
VDonald O. Spencer
p2326
asS'Walter Rogalski'
p2327
(lp2328
VLee Lundgren
p2329
aVIrving Krane
p2330
asS'Irving White'
p2331
(lp2332
VPaul Marion
p2333
asS'Eric Dearnley'
p2334
(lp2335
VBereniece Baldwin
p2336
aVDon Bereniece Baldwin
p2337
asS'Matt Savola'
p2338
(lp2339
VRichard F. O'Hair
p2340
aVSmelter Wayne B. Salisbury
p2341
aVBereniece Baldwin
p2342
asS'Thomas Anderson'
p2343
(lp2344
VRichard F. O'Hair
p2345
aVWalter Scott Dunn
p2346
asS'Alan Campbell'
p2347
(lp2348
VDorothy Parker
p2349
asS'Lilith James'
p2350
(lp2351
VRoy Huggins
p2352
asS'Reva Redstone'
p2353
(lp2354
VWalter Scott Dunn
p2355
aVRichard F. O'Hair
p2356
asS'John Sobczak'
p2357
(lp2358
VBereniece Baldwin
p2359
asS'Paul Boatin'
p2360
(lp2361
VWalter Scott Dunn
p2362
aVWayne B. Salisbury
p2363
aVBereniece Baldwin
p2364
aVDave Averill
p2365
asS'William L. Patterson'
p2366
(lp2367
VLee Lundgren
p2368
aVJohn Edward Cooke
p2369
aVRoy Thompson
p2370
asS'Joseph Kuzma'
p2371
(lp2372
VThomas Delaney
p2373
aVSamuel DiMaria
p2374
asS'Mary V Farmer'
p2375
(lp2376
VMildred Ashe
p2377
asS'Florence Kniep'
p2378
(lp2379
VWayne B. Salisbury
p2380
asS'John Saari'
p2381
(lp2382
VDave Averill
p2383
asS'Glass Glassgold'
p2384
(lp2385
VRichard F. O'Hair
p2386
asS'Roy Wilson'
p2387
(lp2388
VShelton Tappes
p2389
asS'Leo Turner'
p2390
(lp2391
VLee Lundgren
p2392
asS'Hope Smith'
p2393
(lp2394
VBereniece Baldwin
p2395
asS'Paul Geiselman'
p2396
(lp2397
VSamuel DiMaria
p2398
asS'Art Rhodes'
p2399
(lp2400
VLee Lundgren
p2401
asS'Ruth Poison'
p2402
(lp2403
VBereniece Baldwin
p2404
asS'Mike Fersick'
p2405
(lp2406
VSamuel DiMaria
p2407
asS'Carl Foreman'
p2408
(lp2409
VMelvin Levy
p2410
aVStanley Roberts
p2411
asS'Edward Turner'
p2412
(lp2413
VRichard F. O'Hair
p2414
aVEdward N. Turner
p2415
aVEdith Bereniece Baldwin
p2416
asS'Aubrey Finn'
p2417
(lp2418
VDavid Aaron
p2419
aVMilton S. Tyre
p2420
asS'Ellenore Abowitz'
p2421
(lp2422
VMrs. Murray Abo
p2423
aVDr. Mendell M. Krieger
p2424
aVRoy Huggins
p2425
asS'Mary Page'
p2426
(lp2427
VRichard F. O'Hair
p2428
aVBereniece Baldwin
p2429
aVMary Reed
p2430
aVFred Elesio
p2431
asS'Hank Ripken'
p2432
(lp2433
VBereniece Baldwin
p2434
asS'John Gray'
p2435
(lp2436
VLee Lundgren
p2437
asS'Gail Knappen'
p2438
(lp2439
VAlice Bennett
p2440
asS'Mildred Pollock'
p2441
(lp2442
VBereniece Baldwin
p2443
asS'Archie Acciacca'
p2444
(lp2445
VBereniece Baldwin
p2446
aVDave Averill
p2447
asS'George Willner'
p2448
(lp2449
VReis Rosenberg
p2450
aVMelvin Levy
p2451
aVIsobel Lennart
p2452
asS'Symanthia Washington'
p2453
(lp2454
VMrs. Roy Thompson
p2455
asS'Bill Lifsee'
p2456
(lp2457
VRichard F. O'Hair
p2458
asS'John T. Bernard'
p2459
(lp2460
VLee Lundgren
p2461
asS'Mrs. Strasberg'
p2462
(lp2463
VPaula Miller
p2464
asS'Michael Uris'
p2465
(lp2466
VReis Rosenberg
p2467
aVEdward Dmytryk
p2468
aVFrank Tuttle
p2469
asS'Leonardo Bercovici'
p2470
(lp2471
VRichard Collins
p2472
aVEdward Dmytryk
p2473
asS'Carleton Moss'
p2474
(lp2475
VReis Rosenberg
p2476
asS'Olaf Leddel'
p2477
(lp2478
VDonald O. Spencer
p2479
asS'Elliott Grennard'
p2480
(lp2481
VRoy Huggins
p2482
asS'Julia Gudinas'
p2483
(lp2484
VLee Lundgren
p2485
aVIrving Krane
p2486
asS'Florence Hall'
p2487
(lp2488
VLee Lundgren
p2489
aVIrving Krane
p2490
asS'John Porter'
p2491
(lp2492
VDavid Aaron
p2493
aVWilliam G. Israel
p2494
aVAlbert Herzig
p2495
aVMilton S. Tyre
p2496
asS'Flo Goodman'
p2497
(lp2498
VRichard F. O'Hair
p2499
asS'Milt Krantzler'
p2500
(lp2501
VIrving Krane
p2502
asS'John Wilson'
p2503
(lp2504
VDonald O. Spencer
p2505
a(lp2506
VHarold Ashe
p2507
aVMildred Ashe
p2508
aVCharles Daggett
p2509
aasS'Robert Brown'
p2510
(lp2511
VBereniece Baldwin
p2512
asS'Sterling Rochester'
p2513
(lp2514
VSamuel DiMaria
p2515
asS'Daniel Zahari'
p2516
(lp2517
VDave Averill
p2518
aVBereniece Baldwin
p2519
asS'Grace Zarniack'
p2520
(lp2521
VAlcide T. Kratz
p2522
asS'William M. Samuels'
p2523
(lp2524
VDavid Aaron
p2525
asS'Joseph Pentacost'
p2526
(lp2527
VJohn Edward Cooke
p2528
asS'Bernice Eraser'
p2529
(lp2530
VDavid Raksin
p2531
asS'John Hell'
p2532
(lp2533
VWayne B. Salisbury
p2534
asS'John K Ellis'
p2535
(lp2536
VJohn Joseph Ellis
p2537
asS'Katherine Foreman'
p2538
(lp2539
VAlice Bennett
p2540
asS'Oscar Barnes'
p2541
(lp2542
VWalter Scott Dunn
p2543
asS'Louis Perry'
p2544
(lp2545
VRichard F. O'Hair
p2546
asS'Louis L. Kaplan'
p2547
(lp2548
VThomas Delaney
p2549
asS'Harold Buchman'
p2550
(lp2551
VLeo Townsend
p2552
aVElizabeth Wilson
p2553
aVAnne Ray Frank
p2554
asS'Marvin Gladstone'
p2555
(lp2556
VBereniece Baldwin
p2557
aVMrs. Harry
p2558
asS'Roy Cones'
p2559
(lp2560
VWayne B. Salisbury
p2561
asS'Lane Thomas'
p2562
(lp2563
VRoy Thompson
p2564
asS'Leo Ploetchl'
p2565
(lp2566
VBereniece Baldwin
p2567
asS'Joseph Bezenhoffer'
p2568
(lp2569
VJoe Roy Thompson
p2570
asS'Sue Showerman'
p2571
(lp2572
VBereniece Baldwin
p2573
asS'Mr. Dillard'
p2574
(lp2575
VRichard F. O'Hair
p2576
asS'Irwin Lieberman'
p2577
(lp2578
VStanley Roberts
p2579
asS'Byron Edwards'
p2580
(lp2581
VShelton Tappes
p2582
aVWayne B. Salisbury
p2583
asS'Mary Robinson'
p2584
(lp2585
VPaul Marion
p2586
aVOwen Vinson
p2587
asS'Tom Patterson'
p2588
(lp2589
VHarold Ashe
p2590
asS'Mischa Altman'
p2591
(lp2592
VDavid Raksin
p2593
asS'Eli Jacobson'
p2594
(lp2595
VGeorge Bassman
p2596
asS'Julian Shapiro'
p2597
(lp2598
VJohn Sanford
p2599
aVDavid Aaron
p2600
asS'Leonard Lauderdale'
p2601
(lp2602
VBereniece Baldwin
p2603
asS'Ina LaMaux'
p2604
(lp2605
VLee Lundgren
p2606
asS'Tony Kraber'
p2607
(lp2608
VElia Kazan
p2609
aVClifford Odets
p2610
asS'Agnes Grigg'
p2611
(lp2612
VBereniece Baldwin
p2613
asS'Clem Dalton'
p2614
(lp2615
VBereniece Baldwin
p2616
asS'Jack J Pompquist'
p2617
(lp2618
VBereniece Baldwin
p2619
aVBereniece Baldwin
p2620
asS'Sam Parks'
p2621
(lp2622
VRoy Thompson
p2623
asS'Dick Jones'
p2624
(lp2625
VWayne B. Salisbury
p2626
asS'Nick Daniels'
p2627
(lp2628
VBereniece Baldwin
p2629
asS'Sidney Benson'
p2630
(lp2631
VTed Leo Townsend
p2632
aVElia Kazan
p2633
aVClifford Odets
p2634
asS'Nicholas Bela'
p2635
(lp2636
VLeo Townsend
p2637
asS'George Cook'
p2638
(lp2639
VBereniece Baldwin
p2640
asS'James Tracy'
p2641
(lp2642
VHarold Ashe
p2643
asS'Jim Tourney'
p2644
(lp2645
VHarold Ashe
p2646
aVMildred Ashe
p2647
asS'Sam Sperling'
p2648
(lp2649
VDr. Sam Reznick
p2650
asS'Charles Spencer'
p2651
(lp2652
VSamuel DiMaria
p2653
asS'Victor Shapiro'
p2654
(lp2655
VGeorge Bassman
p2656
asS'Abner Berry'
p2657
(lp2658
VRichard F. O'Hair
p2659
aVWayne B. Salisbury
p2660
asS'Charles Katz'
p2661
(lp2662
VDavid Aaron
p2663
aVAlbert Herzig
p2664
aVWilliam G. Israel
p2665
aVMilton S. Tyre
p2666
asS'Alice Ferris'
p2667
(lp2668
VRichard F. O'Hair
p2669
asS'Fred Field'
p2670
(lp2671
VWayne B. Salisbury
p2672
asS'James Keller'
p2673
(lp2674
VRichard F. O'Hair
p2675
aVWayne B. Salisbury
p2676
asS'Harold Shapiro'
p2677
(lp2678
VBereniece Baldwin
p2679
asS'Abe Sokolov'
p2680
(lp2681
VSamuel DiMaria
p2682
asS'Herman Burt'
p2683
(lp2684
VBereniece Baldwin
p2685
asS'Miriam Bonner'
p2686
(lp2687
VHarold Ashe
p2688
asS'Marion Young'
p2689
(lp2690
VBereniece Baldwin
p2691
asS'Lillian Jones'
p2692
(lp2693
VHarold Ashe
p2694
asS'Flo Atkinson'
p2695
(lp2696
VMrs. Richard Criley
p2697
asS'Carl Palmquist'
p2698
(lp2699
VBereniece Baldwin
p2700
asS'Harry Fainaru'
p2701
(lp2702
VWayne B. Salisbury
p2703
asS'Frank Sykes'
p2704
(lp2705
VWayne B. Salisbury
p2706
aVBereniece Baldwin
p2707
asS'Spencer Austrian'
p2708
(lp2709
VHarold Ashe
p2710
aVMildred Ashe
p2711
asS'Henry Blankfort'
p2712
(lp2713
VEdward Dmytryk
p2714
asS'Andy Lancey'
p2715
(lp2716
VWalter Scott Dunn
p2717
asS'Margaret Gruen'
p2718
(lp2719
VElizabeth Wilson
p2720
aVPaul Marion
p2721
asS'Ben Barzman'
p2722
(lp2723
VLeo Townsend
p2724
aVCharles Daggett
p2725
aVStanley Roberts
p2726
aVRoy Huggins
p2727
asS'Walter Stempel'
p2728
(lp2729
VLee Lundgren
p2730
asS'Russell A Nixon'
p2731
(lp2732
VSamuel DiMaria
p2733
asS'Jim Keller'
p2734
(lp2735
VRoy Thompson
p2736
asS'Abe Feinglass'
p2737
(lp2738
VLee Lundgren
p2739
asS'Luther Talley'
p2740
(lp2741
VLee Lundgren
p2742
aVLee Lundgren
p2743
asS'Shirley Ross'
p2744
(lp2745
VWayne B. Salisbury
p2746
asS'Celeste Strack'
p2747
(lp2748
VRoy Huggins
p2749
asS'Royce Kennedy'
p2750
(lp2751
VBereniece Baldwin
p2752
asS'Randolph Luke'
p2753
(lp2754
VRoy Thompson
p2755
asS'Larry Blyth'
p2756
(lp2757
VWayne B. Salisbury
p2758
asS'Herbert Klein'
p2759
(lp2760
VHarold Ashe
p2761
asS'Florence Criley'
p2762
(lp2763
VMrs. Richard Criley
p2764
aVFlo Atkinson
p2765
asS'Allen Matthews'
p2766
(lp2767
VElizabeth Wilson
p2768
asS'Sarah Reznick'
p2769
(lp2770
VAlice Bennett
p2771
asS'Jess Whipple'
p2772
(lp2773
VWayne B. Salisbury
p2774
asS'Warren Batterson'
p2775
(lp2776
VDonald O. Spencer
p2777
asS'Harold Allen'
p2778
(lp2779
VThomas Delaney
p2780
asS'Richard McMahon'
p2781
(lp2782
VCasimir Rataj
p2783
asS'Beatrice Huff'
p2784
(lp2785
VJohn Edward Cooke
p2786
asS'Murray Borad'
p2787
(lp2788
VBereniece Baldwin
p2789
asS'Sam Moore'
p2790
(lp2791
VOwen Vinson
p2792
asS'John Bright'
p2793
(lp2794
VRichard Collins
p2795
aVFrank Tuttle
p2796
aVElizabeth Wilson
p2797
aVBudd Schulberg
p2798
asS'Maurice Rapf'
p2799
(lp2800
VLeo Townsend
p2801
aVElizabeth Wilson
p2802
asS'Sam Kushner'
p2803
(lp2804
VLee Lundgren
p2805
aVIrving Krane
p2806
asS'Mr. Campbell'
p2807
(lp2808
VWayne B. Salisbury
p2809
aVBen Davis Club
p2810
asS'Raphael Haskell'
p2811
(lp2812
VBereniece Baldwin
p2813
asS'Virginia Schulberg'
p2814
(lp2815
VMrs. Peter Martin
p2816
aVElizabeth Wilson
p2817
asS'Goldie Bromberg'
p2818
(lp2819
VMrs. J. Edward Frank Tuttle
p2820
aVF. Martin
p2821
asS'Harmon Alexander'
p2822
(lp2823
VPaul Marion
p2824
aVOwen Vinson
p2825
asS'John Issacs'
p2826
(lp2827
VRichard F. O'Hair
p2828
aVWayne B. Salisbury
p2829
asS'Leroy Krawford'
p2830
(lp2831
VRichard F. O'Hair
p2832
aVShelton Tappes
p2833
asS'Charles Lawson'
p2834
(lp2835
VAlcide T. Kratz
p2836
aVJohn Edward Cooke
p2837
asS'Phoebe Brand'
p2838
(lp2839
VLeo Townsend
p2840
aVEliz Kazan
p2841
aVClifford Odets
p2842
asS'Marta Bogner'
p2843
(lp2844
VAlice Bennett
p2845
asS'Bill Ward'
p2846
(lp2847
VHarold Ashe
p2848
aVMildred Ashe
p2849
asS'Charles Glenn'
p2850
(lp2851
VRichard Collins
p2852
aVFrank Tuttle
p2853
aVLeo Townsend
p2854
aVPaul Marion
p2855
asS'Frank Cestare'
p2856
(lp2857
VThomas Delaney
p2858
aVSamuel DiMaria
p2859
asS'Louis Terkel'
p2860
(lp2861
VOwen Vinson
p2862
asS'Esther Siegel'
p2863
(lp2864
VRichard F. O'Hair
p2865
aVBereniece Baldwin
p2866
asS'Robert D Katz'
p2867
(lp2868
VDavid Aaron
p2869
aVWilliam G. Israel
p2870
aVMilton S. Tyre
p2871
asS'Dave Ellis'
p2872
(lp2873
VOwen Vinson
p2874
asS'Morris Carnovsky'
p2875
(lp2876
VMarc Lawrence
p2877
aVLeo Townsend
p2878
aVCharles Daggett
p2879
aVElia Kazan
p2880
asS'Andrew Overgaard'
p2881
(lp2882
VElia Kazan
p2883
aVClifford Odets
p2884
asS'Henry Meyers'
p2885
(lp2886
VLeo Townsend
p2887
aVCharles Daggett
p2888
asS'Barbara Wilson'
p2889
(lp2890
VWalter Scott Dunn
p2891
asS'Murray Levine'
p2892
(lp2893
VDonald O. Spencer
p2894
asS'Sidney Davenport'
p2895
(lp2896
VRoy Thompson
p2897
aVPete Roy Thompson
p2898
asS'Robert Lees'
p2899
(lp2900
VFrank Tuttle
p2901
aVLeo Townsend
p2902
asS'Fred Steinmetz'
p2903
(lp2904
VDavid Aaron
p2905
aVAlbert Herzig
p2906
aVMilton S. Tyre
p2907
aVWm. G. Israel
p2908
aVJ. Max Silver
p2909
asS'Dick Fiske'
p2910
(lp2911
VElizabeth Wilson
p2912
asS'Joseph Reams'
p2913
(lp2914
VThomas Delaney
p2915
aVN. Y.
p2916
asS'Arthur McPhaul'
p2917
(lp2918
VRichard F. O'Hair
p2919
aVWalter Scott Dunn
p2920
aVWayne B. Salisbury
p2921
aVBereniece Baldwin
p2922
aVShelton Tappes
p2923
aVben Shelton Tappes
p2924
asS'Alexander Riskin'
p2925
(lp2926
VSam Reznick
p2927
asS'Hy Fireman'
p2928
(lp2929
VBereniece Baldwin
p2930
asS'Dorothy. Connelly'
p2931
(lp2932
VDorothy Healy
p2933
asS'George Pepper'
p2934
(lp2935
VEdward Dmytryk
p2936
asS'Katherine Ripken'
p2937
(lp2938
VWalter Scott Dunn
p2939
asS'Arthur Stern'
p2940
(lp2941
VRichard F. O'Hair
p2942
asS'Dorothy Brinich'
p2943
(lp2944
VBereniece Baldwin
p2945
asS'Matt Pellman'
p2946
(lp2947
VMike Martin
p2948
aVMax Appleinan
p2949
aVMax Silver
p2950
asS'Gus Anderson'
p2951
(lp2952
VRichard F. O'Hair
p2953
asS'Naomi. Robeson'
p2954
(lp2955
VOwen Vinson
p2956
asS'Ann V Boatin'
p2957
(lp2958
VBereniece Baldwin
p2959
aVMrs. Paul Boatin
p2960
asS'Eleanor Price'
p2961
(lp2962
VEleanor Thomas Delaney
p2963
asS'Marion E Patrick'
p2964
(lp2965
VBereniece Baldwin
p2966
aVFred Douglas Club
p2967
asS'Edward Goodlaw'
p2968
(lp2969
VDr. Goodlaw Optometrist
p2970
asS'Fred Fine'
p2971
(lp2972
VLee Lundgren
p2973
aVIrving Krane
p2974
asS'Tommy Dennis'
p2975
(lp2976
VWayne B. Salisbury
p2977
asS'Joe Stern'
p2978
(lp2979
VDonald O. Spencer
p2980
asS'Eva Pitcher'
p2981
(lp2982
VWayne B. Salisbury
p2983
asS'Mitchell Lindeman'
p2984
(lp2985
VPaul Marion
p2986
aVOwen Vinson
p2987
asS'Jeff Corey'
p2988
(lp2989
VMarc Lawrence
p2990
aVPaul Marion
p2991
asS'Pauline. Lauber'
p2992
(lp2993
VPauline Lauber Finn
p2994
asS'William McKie'
p2995
(lp2996
VWayne B. Salisbury
p2997
aVShelton Tappes
p2998
asS'Floyd McDonnell'
p2999
(lp3000
VWayne B. Salisbury
p3001
asS'Alice Cohee'
p3002
(lp3003
VCharles Judson
p3004
aVAlice Bennett
p3005
aVUrcel Daniel
p3006
asS'Ernest Scott'
p3007
(lp3008
VThomas Delaney
p3009
asS'Bill Gardner'
p3010
(lp3011
VDonald O. Spencer
p3012
asS'Sarah Levine'
p3013
(lp3014
VDonald O. Spencer
p3015
asS'Max Bogner'
p3016
(lp3017
VAlice Bennett
p3018
asS'Ruth Yanover'
p3019
(lp3020
VRichard F. CTHair
p3021
asS'Meta R Writer'
p3022
(lp3023
VEdward Dmytryk
p3024
aVBudd Schulberg
p3025
aVFrank Tuttle
p3026
aVAnne Ray Frank
p3027
aVHarold Ashe
p3028
aVLeo Townsend
p3029
aVWilliam Blowitz
p3030
aVElizabeth Wilson
p3031
aVDavid Raksin
p3032
aVIsobel Lennart
p3033
aVStanley Roberts
p3034
aVBernard Schoenfeld
p3035
asS'Joseph Losey'
p3036
(lp3037
VLeo Townsend
p3038
asS'Rose Bush'
p3039
(lp3040
VMildred Ashe
p3041
asS'Sally Pietrowski'
p3042
(lp3043
VWayne B. Salisbury
p3044
aVMrs. Eddie Pietrowski
p3045
asS'John H Lawson'
p3046
(lp3047
VRichard Collins
p3048
asS'Marjorie Manoff'
p3049
(lp3050
VLeo Townsond
p3051
aVMrs. Arnold Manoff
p3052
aVElizabeth Wilson
p3053
aVMarjorie Potts
p3054
asS'Helen DeMarco'
p3055
(lp3056
VThomas Delaney
p3057
aVDavid Davis
p3058
aVSamuel DiMaria
p3059
asS'Hilliard Ellis'
p3060
(lp3061
VLee Lundgren
p3062
asS'Marguerite Roberts'
p3063
(lp3064
VMrs. Jobn Sanford
p3065
asS'Alice Kocel'
p3066
(lp3067
VBereniece Baldwin
p3068
asS'Harold Koppelman'
p3069
(lp3070
VDr. Koppel
p3071
asS'Max Ireland'
p3072
(lp3073
VWalter Scott Dunn
p3074
asS'Jan Jeffries'
p3075
(lp3076
VHenry Blankfort
p3077
aVHenry Blankfort
p3078
aVV. J. Sterling Hayden
p3079
aVRichard Collins
p3080
aVBudd Schulberg
p3081
aVFrank Tuttle
p3082
aVHarold Ashe
p3083
aVElia Kazan
p3084
aVClifford Odets
p3085
asS'Adrian Scott'
p3086
(lp3087
VEdward Dmytryk
p3088
asS'Annette Horn'
p3089
(lp3090
VAlcide T. Kratz
p3091
asS'Ann Kelly'
p3092
(lp3093
VRichard F. O'Hair
p3094
aVWalter Scott Dunn
p3095
asS'James Widmark'
p3096
(lp3097
VWayne B. Salisbury
p3098
asS'Roy Hudson'
p3099
(lp3100
VWayne B. Salisbury
p3101
asS'Fred Moore'
p3102
(lp3103
VJohn Edward Cooke
p3104
asS'Joseph Schlicht'
p3105
(lp3106
VBereniece Baldwin
p3107
asS'Carneller Foreman'
p3108
(lp3109
VRichard F. O'Hair
p3110
aVBereniece Baldwin
p3111
asS'Leo Cottrell'
p3112
(lp3113
VBereniece Baldwin
p3114
asS'Sidney Druckman'
p3115
(lp3116
VDr. Druck
p3117
asS'Bernard Vorhaus'
p3118
(lp3119
VFrank Tuttle
p3120
asS'Stanley Nowak'
p3121
(lp3122
VCasimir Rataj
p3123
asS'Louise Todd'
p3124
(lp3125
VHarold Ashe
p3126
aVMildred Ashe
p3127
asS'Calvin Goodman'
p3128
(lp3129
VRichard F. O'Hair
p3130
asS'Joseph Aidlin'
p3131
(lp3132
VHarold Ashe
p3133
aVJharles Daggett
p3134
a(lp3135
VHarold Ashe
p3136
aasS'Frances Price'
p3137
(lp3138
VBereniece Baldwin
p3139
asS'James Walker'
p3140
(lp3141
VBereniece Baldwin
p3142
asS'Howard Fast'
p3143
(lp3144
VThomas Delaney
p3145
aVThomas Delaney
p3146
asS'Gerald J Boyd'
p3147
(lp3148
VRichard F. O'Hair
p3149
aVWayne B. Salisbury
p3150
asS'Terry Clark'
p3151
(lp3152
VRichard F. O'Hair
p3153
asS'Richard L. Rykoff'
p3154
(lp3155
VDavid Aaron
p3156
asS'Dewey Garrett'
p3157
(lp3158
VRichard F. O'Hair
p3159
asS'Laura Kelly'
p3160
(lp3161
VWavne B. Salisbury
p3162
asS'Fred Graff'
p3163
(lp3164
VMr. Graff
p3165
asS'John Anderson'
p3166
(lp3167
VRichard F. O'Hair
p3168
aVUnited Wayne B. Salisbury
p3169
asS'Jack Gore'
p3170
(lp3171
VWayne B. Salisbury
p3172
aVChrysler Bereniece Baldwin
p3173
asS'Hodges Mason'
p3174
(lp3175
VBereniece Baldwin
p3176
asS'BlaeheVHerbert'
p3177
(lp3178
VRichard Collins
p3179
asS'Kenneth Roach'
p3180
(lp3181
VBereniece Baldwin
p3182
asS'Norman Ross'
p3183
(lp3184
VWayne B. Salisbury
p3185
asS'Harry Boskey'
p3186
(lp3187
VWayne B. Salisbury
p3188
aVChrysler Bereniece Baldwin
p3189
asS'Charles Killinger'
p3190
(lp3191
VAlcide T. Kratz
p3192
asS'Samuel Sillen'
p3193
(lp3194
VPaul Marion
p3195
as.