(dp0
S'Harry Tarnoff'
p1
(lp2
VAnne Kinney
p3
asS'Sarah Oilman'
p4
(lp5
VSarah Dorothy K. Funn
p6
aVGilman Rosenblatt
p7
asS'Jody Gilbert'
p8
(lp9
VHarvey Narcisenfeld
p10
asS'Harrie Woods'
p11
(lp12
VDickson P. Hill
p13
asS'Morris Karson'
p14
(lp15
VEdith Macia
p16
asS'Martin Hall'
p17
(lp18
VHerman Benjamin Gitlow
p19
asS'Jay Riibiu'
p20
(lp21
VNicholas Campas
p22
aVJack Davis
p23
aVJack Davis
p24
aVJay Rubin
p25
asS'Dan James'
p26
(lp27
VDavid A. Lang
p28
aVPauline S. Townsend
p29
aVBart Lytton
p30
asS'Maurice Braverman'
p31
(lp32
VDorothy K. Funn
p33
asS'Gertrude Pmcell'
p34
(lp35
VPaul Benedict Mar. 12
p36
aVMr. Radin
p37
asS'Madelaine Ruthven'
p38
(lp39
VHarold Hecht
p40
aVDavid A. Lang
p41
aVPauline S. Townsend
p42
aVRobert Rossen
p43
asS'John Poziomek'
p44
(lp45
VJohn John Mills Davis
p46
aVSamuel Evens
p47
asS'Bess Taffel'
p48
(lp49
VDavid A. Lang
p50
aVLeopold Atlas
p51
asS'Jerome Robinson'
p52
(lp53
VJerome Rob
p54
asS'Ned Young'
p55
(lp56
VMr. Young
p57
asS'Mary Catherine Grier'
p58
(lp59
VMiss Biblioyrapher
p60
aVGeological Grier
p61
asS'Myrtle Wixman'
p62
(lp63
VAnne Kinney
p64
asS'Clement Wilenchick'
p65
(lp66
VMr. Wilen
p67
asS'Irene Short'
p68
(lp69
VNicholas Campas
p70
aVIrene Short
p71
asS'Duncan Keir'
p72
(lp73
VJames Kendall
p74
aVMr. Keir
p75
asS'Anna Brickman'
p76
(lp77
VJohn Mills Davis
p78
aVSamuel Evens
p79
asS'Beniard Young'
p80
(lp81
VCharles D. Blodgett
p82
asS'Angus Wooley'
p83
(lp84
VPauline S. Townsend
p85
asS'William Greenstein'
p86
(lp87
VMr. Green
p88
asS'Mrs Melia'
p89
(lp90
VCarmen Charles D. Blodgett
p91
asS'Harry Gordon'
p92
(lp93
VHarry John Mills Davis
p94
aVSamuel Evens
p95
asS'Albert Maltz'
p96
(lp97
VHarold Hecht
p98
aVMax Benoff
p99
aVLeopold Atlas
p100
aVBabbette Lang
p101
asS'Edith Hershey'
p102
(lp103
VEdith Macia
p104
asS'Marian Redner'
p105
(lp106
VMarian Mary E. P. Bradsher
p107
asS'Leo Gerstinheim'
p108
(lp109
VNicholas Campas
p110
aVMr. Gerstinheim
p111
asS'Eugene R. Stone'
p112
(lp113
VCarin Kinzel
p114
asS'Joseph J. Posell'
p115
(lp116
VAnne Kinney
p117
asS'Carl Andren'
p118
(lp119
VMr. Andren
p120
asS'Dorothy Loeb'
p121
(lp122
VDorothy Nicholas Campas
p123
aVJoseph Klein
p124
asS'Charles Reichman'
p125
(lp126
VEdith Macia
p127
asS'Eugene Eagle'
p128
(lp129
VDickson P. Hill
p130
asS'Jane Callender'
p131
(lp132
VEdith Macia
p133
asS'Herbert Parker'
p134
(lp135
VNicholas Campas
p136
asS'Nina Klowden'
p137
(lp138
VDwight Hauser
p139
aVRoy Erwin
p140
aVCariu Kinzel
p141
asS'Billie Norman'
p142
(lp143
VEdith Macia
p144
asS'Mrs Hee'
p145
(lp146
VKathleen Griffith Charles D. Blodgett
p147
asS'Donald Murray'
p148
(lp149
VAnne Kinney
p150
asS'Leslie Edgley'
p151
(lp152
VPauline S. Townsend
p153
asS'Bert Stone'
p154
(lp155
VAnne Kinney
p156
asS'Rose Malloy'
p157
(lp158
VEdith Macia
p159
asS'Harry Jackson'
p160
(lp161
VLou Rosser
p162
asS'Henry Hudson'
p163
(lp164
VEdith Macia
p165
asS'Gertrude Evans'
p166
(lp167
VDorothy K. Funn
p168
asS'Virgil Akeson'
p169
(lp170
VDorothy K. Funn
p171
asS'Anne Froelich'
p172
(lp173
VLeopold Atlas
p174
asS'Walter Stack'
p175
(lp176
VLou Rosser
p177
aVJames Kendall
p178
asS'Carl Brandt'
p179
(lp180
VLou Rosser
p181
asS'Tassia Freed'
p182
(lp183
VAnne Kinney
p184
asS'Fred Biedenkapp'
p185
(lp186
VManning Johnson
p187
asS'Andy Charles'
p188
(lp189
VLou Rosser
p190
aVMr. Charles
p191
asS'Neil Crowe'
p192
(lp193
VErnest L. Seymour
p194
aVJames Kendall
p195
asS'Anya Lieberson'
p196
(lp197
VAnne Kinney
p198
asS'Louise Rousseau'
p199
(lp200
VDavid A. Lang
p201
aVMrs. Sam Rubin
p202
aVEdith Macia
p203
asS'William Wolff'
p204
(lp205
VCarin Kinzel
p206
asS'Georgia Backus'
p207
(lp208
VCarin Kinzel
p209
aVRobert Rossen
p210
aVDwight Hauser
p211
aVSilvia Richards
p212
aVRoy Erwin
p213
asS'Rose Most'
p214
(lp215
VAnne Kinney
p216
asS'Miriam Brooks'
p217
(lp218
VAnne Kinney
p219
asS'Johnny Cole'
p220
(lp221
VLeopold Atlas
p222
asS'Joseph Springer'
p223
(lp224
VRobert Gladnick
p225
aVJoe Saul
p226
asS'Molly Young'
p227
(lp228
VSilvia Richards
p229
asS'June Naboisek'
p230
(lp231
VMary E. P. Bradsher
p232
asS'Edna Ocko'
p233
(lp234
VJerome Robbins
p235
asS'Herschel Alexander'
p236
(lp237
VLou Rosser
p238
aVCharles D. Blodgett
p239
aVWilliam D. Ames
p240
asS'Daniel Fine'
p241
(lp242
VPeter Bent
p243
asS'Esther Jerry Wagner'
p244
(lp245
VBabbette Lang
p246
asS'Dildar Sanduw'
p247
(lp248
VDickson P. Hill
p249
aVDildar Sandow
p250
asS'Peter Stein'
p251
(lp252
VMr. Stein
p253
asS'John Delgado'
p254
(lp255
VCharles D. Blodgett
p256
asS'Jack Chassen'
p257
(lp258
VEdith Macia
p259
asS'Allen Yates'
p260
(lp261
VAnne Kinney
p262
asS'Doreen Holtz'
p263
(lp264
VEdith Macia
p265
asS'Mike Yarman'
p266
(lp267
VNicholas Campas
p268
asS'William Bottcher'
p269
(lp270
VJohn Mills Davis
p271
aVSamuel Ehens
p272
asS'Steve Oleksink'
p273
(lp274
VEdith Macia
p275
asS'Mortimer Offner'
p276
(lp277
VDavid A. Lang
p278
aVSol Shor
p279
asS'Joy Williams'
p280
(lp281
VDickson P. Hill
p282
aVCharles D. Blodgett
p283
asS'Marjorie MacGregor'
p284
(lp285
VMrs. Arnold Pauline S. Townsend
p286
asS'Sam Cloner'
p287
(lp288
VDarling Adams
p289
asS'Max Weitzman'
p290
(lp291
VHerbert Philbrick
p292
asS'George Blake'
p293
(lp294
VJohn Mills Davis
p295
asS'Martha Fletcher'
p296
(lp297
VMrs. Harold A. Flet
p298
aVHerbert A. Philbrick
p299
asS'Saul Wachter'
p300
(lp301
VWilliam D. Ames
p302
asS'Harry Kramer'
p303
(lp304
VCharles D. Blodgett
p305
asS'Al Brown'
p306
(lp307
VCharles D. Blodgett
p308
asS'Dick Criley'
p309
(lp310
VLou Rosser
p311
asS'Langston Hughes'
p312
(lp313
VManning Johnson
p314
asS'Herbert Biberman'
p315
(lp316
VLeopold Atlas
p317
aVRoland W. Kibbee
p318
aVHarold Hecht
p319
aVGertrude Purcell
p320
asS'Gale Sondergaard'
p321
(lp322
VMrs. Herbert Biber
p323
aVLarry Parks
p324
aVLee J. Cobb
p325
asS'Herb Kalman'
p326
(lp327
VDickson P. Hill
p328
aVBertha Grover
p329
aVErnest L. Seymour
p330
asS'Francis Edward Faragoh'
p331
(lp332
VReis Rosenberg
p333
aVEdward Dmytryk
p334
asS'Veda Lewis'
p335
(lp336
VCharles D. Blodgett
p337
asS'Paul Heide'
p338
(lp339
VLou Rosser
p340
aVDickson P. Hill
p341
aVCharles D. Blodgett
p342
asS'Norma Barzman'
p343
(lp344
VPauline S. Townsend
p345
asS'Guy Endore'
p346
(lp347
VRobert Rossen
p348
aVDavid A. Lang
p349
aVLeopold Atlas
p350
aVBabbette Lang
p351
asS'Neil Hignian'
p352
(lp353
VAnne Kinney
p354
asS'Richard Bvrd Lewis'
p355
(lp356
VBart Mar.
p357
asS'Sondra Gorney'
p358
(lp359
VPauline S. Townsend
p360
asS'Kenneth Arnold'
p361
(lp362
VIsadore Amdur
p363
asS'Myrtle Rohr'
p364
(lp365
VEdith Macia
p366
asS'Ann Howe'
p367
(lp368
VAnne Kinney
p369
asS'Jack Montgomery'
p370
(lp371
VLou Rosser
p372
asS'Cedric Henning Belfrage'
p373
(lp374
VMr. Belfrage
p375
asS'Elizabetb Barlow'
p376
(lp377
VMrs. Edward Bar
p378
aVDickson P. Hill
p379
aVWilliam D. Ames
p380
aVBertha Grover
p381
asS'Jules Keivetz'
p382
(lp383
VLou Rosser
p384
asS'Harry Shepro'
p385
(lp386
VLeroy Herndon
p387
aVRichard Byrd Lewis
p388
aVAnne Kinney
p389
asS'Ruth Finkelstein'
p390
(lp391
VDorothy K. Funn
p392
asS'Mildred Flacks'
p393
(lp394
VDorothy K. Funn
p395
asS'Katrina Manley'
p396
(lp397
VDickson P. Hill
p398
aVBertha Grover
p399
asS'Rena Dodd'
p400
(lp401
VJack Davis
p402
aVJohn Mills Davis
p403
aVSamuel Evens
p404
asS'Henry Beitscher'
p405
(lp406
VDorothy K. Funn
p407
asS'Hy Alexander'
p408
(lp409
VCarin Kinzel
p410
aVSilvia Kiohards
p411
aVDwight Hauser
p412
asS'Dalton Trmiibo'
p413
(lp414
VDavid A. Lang
p415
aVMax Benoff
p416
aVLeopold Atlas
p417
aVRobert Rossen
p418
asS'Clarence Carr'
p419
(lp420
VNicholas Campas
p421
aVJack Davis
p422
asS'Mrs Carnovsky'
p423
(lp424
VAnne Kinney
p425
asS'Mary Bindley'
p426
(lp427
VEdith Macia
p428
asS'Preston Hill'
p429
(lp430
VLou Rosser
p431
asS'Helen Mallof'
p432
(lp433
VAnne Kinney
p434
asS'Freddie Walker'
p435
(lp436
VBertha Grover
p437
asS'Matt Vidaver'
p438
(lp439
VSilvia Richards
p440
asS'Honor Carey'
p441
(lp442
VMoxley LeRoy Herndon
p443
aVRichard Byrd Lewis
p444
aVAnne Kinney
p445
aVAime Kinney
p446
asS'Bob Cohn'
p447
(lp448
VAnne Kinney
p449
a(lp450
VLou Rosser
p451
aasS'Rude Lambert'
p452
(lp453
VDickson P. Hill
p454
asS'Hy Gordon'
p455
(lp456
VRobert Gorham Davis
p457
aVRobert Gladnick
p458
asS'Milton Casluier'
p459
(lp460
VAnne Kinney
p461
asS'Frank Franks'
p462
(lp463
VCharles D. Blodgett
p464
asS'Don Cameron'
p465
(lp466
VErnest L. Seymour
p467
asS'Bobbie Karson'
p468
(lp469
VEdith Macia
p470
asS'Peter Chaunt'
p471
(lp472
VManning Johnson
p473
aVN. Y.
p474
asS'William Schneidernian'
p475
(lp476
VLou Rosser
p477
aVCharles D. Blodgett
p478
asS'Jessie Carufo'
p479
(lp480
VBabbette Lang
p481
asS'Selma Lahne'
p482
(lp483
VNicholas Campas
p484
asS'Joe Eisler'
p485
(lp486
VCharles D. Blodgett
p487
aVBertha Grover
p488
asS'Lester Fuller'
p489
(lp490
VLeopold Atlas
p491
aVRobert Rossen
p492
asS'Bob Raven'
p493
(lp494
VRobert Gladnick
p495
asS'Carl Hacker'
p496
(lp497
VNicholas Campas
p498
aVJack Davis
p499
asS'Mrs Lafferty'
p500
(lp501
VDickson P. Hill
p502
asS'Ian Hunter'
p503
(lp504
VRobert Rossen
p505
asS'Adam Lapin'
p506
(lp507
VBenjamin Gitlow
p508
a(lp509
VCharles D. Blodgett
p510
aasS'Beulah Wales'
p511
(lp512
VAnne Kinney
p513
asS'Frieda Schweukmyer'
p514
(lp515
VNicholas Campas
p516
aVJack Davis
p517
asS'Tom Chapman'
p518
(lp519
VLeopold Atlas
p520
asS'Joe Koide'
p521
(lp522
VMr. Koide
p523
asS'Richard Schlatter'
p524
(lp525
VMr. Schlatter
p526
asS'Jack Wetherwax'
p527
(lp528
VAnne Kinney
p529
asS'Harry Gordon Itskowitz'
p530
(lp531
VHarry Gordon
p532
asS'George Bratoff'
p533
(lp534
VDickson P. Hill
p535
asS'Bjorne Halliug'
p536
(lp537
VErnest L. Seymour
p538
asS'Saul Friedburg'
p539
(lp540
VHarry J. Marks
p541
aVMr. Friedburg
p542
asS'Rob Hall'
p543
(lp544
VDorothy K. Funn
p545
asS'Harold Klein'
p546
(lp547
VNicholas Campas
p548
aVJohn Mills Davis
p549
aVSamuel Evens
p550
asS'Bill Rutter'
p551
(lp552
VDickson P. Hill
p553
asS'Stanley Chapman'
p554
(lp555
VDorothy K. Funn
p556
asS'William Schneiderman'
p557
(lp558
VDavid A. Lang
p559
aVAnne Kinney
p560
asS'Mason Roberson'
p561
(lp562
VCharles D. Blodgett
p563
asS'Jack Manley'
p564
(lp565
VDickson P. Hill
p566
asS'Leo Bigelman'
p567
(lp568
VDennis Robert Rossen
p569
aVAnne Kinney
p570
aVPauline S. Townsend
p571
asS'Lew Scott'
p572
(lp573
VAnne Kinney
p574
asS'Bob Chasson'
p575
(lp576
VLou Rosser
p577
aVMr. Chasson
p578
asS'Hannah Shapiro'
p579
(lp580
VJohn Mills Davis
p581
aVSamuel Evens
p582
asS'Al Heltness'
p583
(lp584
VAnne Kinney
p585
asS'Mrs Lima'
p586
(lp587
VHelen Charles D. Blodgett
p588
asS'Mrs Rapf'
p589
(lp590
VMaurice Pauline S. Townsend
p591
asS'Beruyce Polifka Fleury'
p592
(lp593
VMrs. Fleury
p594
asS'Rose Sharf'
p595
(lp596
VEdith Macia
p597
aVMrs. Dave Sharf
p598
asS'Luke Hinman'
p599
(lp600
VRoland W. Kibbee
p601
aVB. Edith Macia
p602
asS'Marcella Avnet'
p603
(lp604
VDorothy K. Funn
p605
asS'Bill Norman'
p606
(lp607
VBella V. Dodd
p608
aVSteve Miller
p609
aVBella V. Dodd
p610
aVRobert Gladnick
p611
aVManning Johnson
p612
asS'Paul Schlipf'
p613
(lp614
VCharles D. Blodgett
p615
asS'Vera Roberts'
p616
(lp617
VCharles D. Blodgett
p618
aVJames Kendall
p619
aVMr. Robertson
p620
asS'Marian Shire'
p621
(lp622
VAnne Kinney
p623
asS'Pauline Lauber'
p624
(lp625
VPauline Lauber Finn
p626
asS'Nina Oster'
p627
(lp628
VEdith Macia
p629
asS'Mary Shaw'
p630
(lp631
VPauline S. Townsend
p632
asS'Dave Sharf'
p633
(lp634
VEdith Macia
p635
asS'Cliff Stice'
p636
(lp637
VEdith Macia
p638
asS'John Wexley'
p639
(lp640
VDavid A. Lanir
p641
aVPauline S. Townsend
p642
aVBart Lytton
p643
aVRobert Rossen
p644
asS'William Gordon Soler'
p645
(lp646
VMr. Soler
p647
asS'James Drake'
p648
(lp649
VJames Kendall
p650
asS'Esther Goodman'
p651
(lp652
VLou Rosser
p653
asS'Evelyn Goldistein'
p654
(lp655
VMrs. Nathan Gold
p656
aVJohn Mills Davis
p657
aVSamuel Evens
p658
asS'Hugo Butler'
p659
(lp660
VRobert Rossen
p661
aVDavid A. Lang
p662
aVSol Shor
p663
asS'Estelle Saul'
p664
(lp665
VBabbette Lang
p666
asS'Abe Gelbart'
p667
(lp668
VWilliam T. Martin
p669
aVIsadore Amdur
p670
aVNorman Levinson
p671
asS'Bill Lowe'
p672
(lp673
VDickson P. Hill
p674
aVWilliam D. Ames
p675
asS'Max Gordon'
p676
(lp677
VNicholas Campas
p678
aVJack Davis
p679
asS'Walter Green'
p680
(lp681
VDickson P. Hill
p682
aVCharles D. Blodgett
p683
aVWilliam D. Ames
p684
asS'Harvey Narcisenfeld'
p685
(lp686
VMr. Narcisenfeld
p687
asS'Harriet Bouslog'
p688
(lp689
VDorothy K. Funn
p690
asS'John Doberty'
p691
(lp692
VEdith Macia
p693
asS'Willie Schulz'
p694
(lp695
VNicholas Campas
p696
aVJack Davis
p697
asS'Nathan Rosen'
p698
(lp699
VIsadora Amdur
p700
asS'Bertram Edises'
p701
(lp702
VCharles D. Blodgett
p703
asS'Morris Salz'
p704
(lp705
VDorothy K. Fram
p706
aVDoTotbj K. Fram
p707
asS'Emil Freed'
p708
(lp709
VAnne Kinney
p710
asS'Bob Pate'
p711
(lp712
VEdith Macia
p713
asS'George Sklar'
p714
(lp715
VDavid A. Lang
p716
asS'Eddie Fisher'
p717
(lp718
VAnne Kinney
p719
asS'George Tyne'
p720
(lp721
VLee J. Cobb
p722
asS'Mrs Roberson'
p723
(lp724
VDoris Briu Walker Dickson P. Hill
p725
asS'Mrs Moore'
p726
(lp727
VPatricia Pauline S. Townsend
p728
asS'John Dicho'
p729
(lp730
VEdith Macia
p731
asS'Max Posey'
p732
(lp733
VLou Rosser
p734
asS'Fred Rinaldo'
p735
(lp736
VPauline S. Townsend
p737
aVRobert Rossen
p738
asS'Andreas Dinam'
p739
(lp740
VPauline S. Townsend
p741
asS'Wayne Hultgren'
p742
(lp743
VDickson P. Hill
p744
aVWilliam D. Ames
p745
asS'Harrison George'
p746
(lp747
VAnne Kinney
p748
a(lp749
VJoe Koide
p750
aasS'Jack Moore'
p751
(lp752
VAnne Kinney
p753
asS'Clara Riebej'
p754
(lp755
VDorothy K. Fiinu
p756
aVMaurice Dorothy K. Fu-n
p757
asS'Bernard Lusher'
p758
(lp759
VMr. Lusher
p760
asS'Sid Hoff'
p761
(lp762
VRobert Gladnick
p763
asS'Carl Winter'
p764
(lp765
VAnne Kinney
p766
aVPauline S. Townsend
p767
asS'Ted Kalman'
p768
(lp769
VBertha Grover
p770
aVWilliam D. Ames
p771
asS'Sara Kusiiitz'
p772
(lp773
VEdith Macia
p774
aVAnne Kinney
p775
asS'Cleveland Hearn'
p776
(lp777
VCharles D. Blodgett
p778
asS'Mary Goldstein'
p779
(lp780
VEdith Macia
p781
aVMr. Goldstein
p782
asS'Bill Danzig'
p783
(lp784
VCharles D. Blodgett
p785
asS'Calvin Batiste'
p786
(lp787
VBertha Grover
p788
asS'Kicliard Goodwin'
p789
(lp790
VRobert Gorham Davis
p791
aVDaniel J. Boorstin
p792
aVRobert Gorliam Davis
p793
aVMr. Goodwin
p794
asS'Dorothy Comingore'
p795
(lp796
VDavid A. Lang
p797
asS'Carl Hanson'
p798
(lp799
VCharles D. Blodgett
p800
aVBertha Grover
p801
aVWilliam D. Ames
p802
asS'Charlie Busk'
p803
(lp804
VBertha Grover
p805
asS'Maureen Ryan'
p806
(lp807
VAnne Kinney
p808
asS'Rose Segure'
p809
(lp810
VAnne Kinney
p811
a(lp812
VCharles D. Blodgett
p813
aasS'John Howard Lawson'
p814
(lp815
VHarold Hecht
p816
aVDavid A. LauL
p817
aVMax Benoff
p818
aVLeopold Atlas
p819
aVPauline S. Townsend
p820
aVRoland W. Kibbee
p821
aVLee J. Cobb
p822
aVBart Lytton
p823
asS'John Bevins'
p824
(lp825
VAnne Kinney
p826
asS'Arthur Strawn'
p827
(lp828
VLeopold Atlas
p829
asS'Edwina Pomerance'
p830
(lp831
VDarling Adams
p832
aVPauline S. Townsend
p833
asS'Ed Robbins'
p834
(lp835
VAnne Kinney
p836
asS'Jerome Chodorov'
p837
(lp838
VJerome Robbins
p839
asS'Warner Calloway'
p840
(lp841
VBertha Grover
p842
asS'Elizabeth Grant'
p843
(lp844
VMrs. Morton Leopold Atlas
p845
asS'Archie Brown'
p846
(lp847
VRobert Gladnick
p848
a(lp849
VLou Rosser
p850
aVCharles D. Blodgett
p851
aVErnest L. Seymour
p852
aasS'Martin Mackie'
p853
(lp854
VCharles D. Blodgett
p855
asS'Dorothy Anhattzer'
p856
(lp857
VEdith Macia
p858
asS'Isadore Reivich'
p859
(lp860
VMr. Reivich
p861
asS'Bimbo Brown'
p862
(lp863
VDickson P. Hill
p864
aVMary E. P. Bradsher
p865
asS'Michael Wilson'
p866
(lp867
VDavid A. Lang
p868
aVBabbette Lang
p869
asS'Lynn Hames'
p870
(lp871
VCharles D. Blodgett
p872
asS'Frauces Capelle'
p873
(lp874
VBertha Grover
p875
aVBast Oakland Dickson P. Hill
p876
aVWilliam D. Ames
p877
asS'Sarah Hartman'
p878
(lp879
VSarah Hartman
p880
asS'David Saunders'
p881
(lp882
VJames Kendall
p883
aVS. S. Alice H. Rice
p884
asS'Albert Blumberg'
p885
(lp886
VDorothy K. Funn
p887
asS'Sam Ornitz'
p888
(lp889
VDavid A. Lang
p890
aVRoland W. Kibbee
p891
aVBabbette Lang
p892
asS'Tiba Willner'
p893
(lp894
VSilvia Richards
p895
aVBabbette Lang
p896
asS'Vern Anthony'
p897
(lp898
VEdith Macia
p899
asS'Molly Thorner'
p900
(lp901
VWilliam D. Ames
p902
asS'Mrs Dickerson'
p903
(lp904
VKathleen William D. Ames
p905
asS'Ann Rotti'
p906
(lp907
VAnn Roth Morgan
p908
asS'Joan Place'
p909
(lp910
VAnne Kinney
p911
asS'John Spears'
p912
(lp913
VAnne Kinney
p914
asS'George Shaffer'
p915
(lp916
VAnne Kinney
p917
asS'Billie Wachter'
p918
(lp919
VDickson P. Hill
p920
aVWilliam D. Ames
p921
asS'Amalia Pesko'
p922
(lp923
VAmalia Pesko Crago
p924
asS'Bertha Bargeman'
p925
(lp926
VMrs. Marvin David A. Lang
p927
asS'George Sandy'
p928
(lp929
VAnne Kinney
p930
asS'Samuel Stember'
p931
(lp932
VRobert Gladnick
p933
aVAbraham Lin
p934
asS'Josephine Woods'
p935
(lp936
VJosephine Woods Eideuoff
p937
asS'Jules Carson'
p938
(lp939
VAnne Kinney
p940
a(lp941
VCharles D. Blodgett
p942
aasS'Rudy Baker'
p943
(lp944
VJoe Koide
p945
asS'Sam Kramberg'
p946
(lp947
VNicholas Campas
p948
asS'Mildred Grossman'
p949
(lp950
VDorothy K. Funn
p951
asS'Jack Fox'
p952
(lp953
VAnne Kinney
p954
aVDavida Anne Kinney
p955
aVMrs. Fred Franchi
p956
asS'Margaret Nelson'
p957
(lp958
VLou Rosser
p959
asS'Harry C. Steinmetz'
p960
(lp961
VAnne Kinney
p962
aVStevens Clara Anne Kinney
p963
asS'Aubrey Grossman'
p964
(lp965
VDickson P. Hill
p966
aVLou Rosser
p967
aVMr. Grossman
p968
asS'Trudy Peck'
p969
(lp970
VHarold Hecht
p971
asS'Ferdinand C Smith'
p972
(lp973
VK. Frmn
p974
asS'Al Lewis'
p975
(lp976
VAnne Kinney
p977
aVRichard Byrd Lewis
p978
asS'Salvatore Gentilli'
p979
(lp980
VJack Davis
p981
asS'Casey Gurewitz'
p982
(lp983
VDorothy K. Funn
p984
asS'Fanny Emer'
p985
(lp986
VEdith Macia
p987
asS'Clara Davis'
p988
(lp989
VSamuel Evens
p990
asS'Bill Gandall'
p991
(lp992
VRobert Gladnick
p993
asS'Helen Jacobson'
p994
(lp995
VJohn Mills Davis
p996
asS'Andrew Mays'
p997
(lp998
VBertha Grover
p999
asS'William T. Parry'
p1000
(lp1001
VRobert Gorham Davis
p1002
asS'Clariua Michelson'
p1003
(lp1004
VManning Johnson
p1005
asS'Ruby Heide'
p1006
(lp1007
VDickson P. Hill
p1008
aVCharles D. Blodgett
p1009
asS'William Winston'
p1010
(lp1011
VSamuel Evens
p1012
asS'Art Shields'
p1013
(lp1014
VDorrhy K. Fttttj
p1015
asS'Carl Brodsky'
p1016
(lp1017
VJohn Mills Davis
p1018
asS'Goodman Brudney'
p1019
(lp1020
VCharles D. Blodgett
p1021
asS'Joe Rohr'
p1022
(lp1023
VEdith Macia
p1024
asS'Sam Rossen'
p1025
(lp1026
VLarry Parks
p1027
asS'Walter Kirkon'
p1028
(lp1029
VCharles D. Blodgett
p1030
asS'Dolph Winebrenner'
p1031
(lp1032
VAnne Kinney
p1033
asS'Ruth Standish'
p1034
(lp1035
VCharles D. Blodgett
p1036
asS'Georgia Burns'
p1037
(lp1038
VHarold Hecht
p1039
asS'Marjorie Robinson'
p1040
(lp1041
VEdith Macia
p1042
asS'Al Kaplan'
p1043
(lp1044
VLou Rosser
p1045
asS'Sam Telford'
p1046
(lp1047
VJames Kendall
p1048
aVS. S. Alice H. Rice
p1049
asS'Ernest Leroy Seymour'
p1050
(lp1051
VMr. Seymour
p1052
asS'Rosalie Creque'
p1053
(lp1054
VDickson P. Hill
p1055
asS'Lawn Brooks'
p1056
(lp1057
VEdith Macia
p1058
asS'Hoyt Haddock'
p1059
(lp1060
VDorothy K. Funn
p1061
asS'George F. Markham'
p1062
(lp1063
VMr. Markham
p1064
asS'Selma Bachelis'
p1065
(lp1066
VDarling Adams
p1067
asS'Laurie Blankfort'
p1068
(lp1069
VDavid A. Lang
p1070
asS'Paul McVey'
p1071
(lp1072
VDwight Hauser
p1073
aVRoy Erwin
p1074
aVMr. Dwight Hauser
p1075
aVCarin Kinzel
p1076
aVPaul McVey
p1077
asS'Larry Levy'
p1078
(lp1079
VHarry J. Marks
p1080
asS'Gordon Williams'
p1081
(lp1082
VDickson P. Hill
p1083
aVCharles D. Blodgett
p1084
asS'Ben Olson'
p1085
(lp1086
VSilvia Richards
p1087
asS'Pauline Lauber Finn'
p1088
(lp1089
VRobert Rossen
p1090
aVPauline Lauber
p1091
aVCarin Kinzel
p1092
aVPauline S. Townsend
p1093
asS'Ethel Claibourne'
p1094
(lp1095
VMrs. Sidney Clai
p1096
aVCharles D. Blodgett
p1097
asS'William Creque'
p1098
(lp1099
VDickson P. Hill
p1100
asS'Phoebe Brand'
p1101
(lp1102
VMrs. Morris Carnov
p1103
aVLee J. Cobb
p1104
asS'Morton Grant'
p1105
(lp1106
VRobert Rossen
p1107
aVDavid A. Lang
p1108
aVLeopold Atlas
p1109
asS'Lucy Arnold'
p1110
(lp1111
VAnne Kinney
p1112
asS'Sadie Dawson'
p1113
(lp1114
VEdith Macia
p1115
asS'Joe Crago'
p1116
(lp1117
VJohn Mills Davis
p1118
aVSamuel Evens
p1119
asS'Nathan Jacobson'
p1120
(lp1121
VErnest L. Seymour
p1122
asS'Louis Ivens'
p1123
(lp1124
VMr. Ivens
p1125
asS'Alfred Wagenknecht'
p1126
(lp1127
VManning Johnson
p1128
asS'Henry Blankfort'
p1129
(lp1130
VRobert Rossen
p1131
aVCarin Kinzel
p1132
aVDavid A. Lang
p1133
aVDwight Hauser
p1134
asS'Ida Wood'
p1135
(lp1136
VDickson P. Hill
p1137
asS'Mrs Mullen'
p1138
(lp1139
VMrs. Mullen
p1140
asS'Harry Tanner'
p1141
(lp1142
VBabbette Lang
p1143
asS'Tillie OlelvSiuk'
p1144
(lp1145
VEdith Macia
p1146
asS'Connie Lee Bennett'
p1147
(lp1148
VDavid A. Lang
p1149
asS'Mrs Arnaz'
p1150
(lp1151
VLucille Ball
p1152
asS'Elaine Gonda'
p1153
(lp1154
VCarlin Kinzel
p1155
asS'Wilhelmina Maise'
p1156
(lp1157
VAnne Kinney
p1158
asS'John Matsuto'
p1159
(lp1160
VAnne Kinney
p1161
asS'Theodore S. Polumbaum'
p1162
(lp1163
VMr. Polum
p1164
asS'Paul Cline'
p1165
(lp1166
VCharles H. Garrigues
p1167
aVAnne Kinney
p1168
a(lp1169
VLou Rosser
p1170
aasS'Joe Kline'
p1171
(lp1172
VEdith Macia
p1173
asS'Allen Lane Ryan'
p1174
(lp1175
VAnne Kinney
p1176
asS'Lloyd Seeliger'
p1177
(lp1178
VLou Rosser
p1179
asS'Hyman Solomon Kraft'
p1180
(lp1181
VRobert Rossen
p1182
asS'Michael Uris'
p1183
(lp1184
VDavid A. Lang
p1185
aVRobert Rossen
p1186
asS'Herbert Davis'
p1187
(lp1188
VHerbert Goldfrank
p1189
asS'Carroll Barnes'
p1190
(lp1191
VDickson P. Hill
p1192
asS'Marvin Bargeman'
p1193
(lp1194
VDavid A. Lang
p1195
asS'Russell Arthur Nixon'
p1196
(lp1197
VDorothy K. Funn
p1198
aVMr. Sipser
p1199
asS'Lou Solomon'
p1200
(lp1201
VDavid A. Lang
p1202
aVPauline S. Townsend
p1203
aVRobert Rossen
p1204
asS'Edward Nolan'
p1205
(lp1206
VZachary Schwartz
p1207
aVListon Benjamin Gitlow
p1208
asS'Tony Santa Lucia'
p1209
(lp1210
VTony Robert Gladnick
p1211
asS'Al White'
p1212
(lp1213
VMary E. P. Bradsher
p1214
asS'Cone C. YouuK'
p1215
(lp1216
VLou Rosser
p1217
asS'Michael Dworkin'
p1218
(lp1219
VJohn Mills Davis
p1220
aVSanuiel Evens
p1221
asS'Ruth Oser'
p1222
(lp1223
VBabbette Lang
p1224
asS'Rather Party'
p1225
(lp1226
VRobert Gladnick
p1227
aVMr. Gladnick
p1228
asS'Nicholas Bela'
p1229
(lp1230
VDavid A. Lang
p1231
aVPauline S. Townsend
p1232
asS'Calvin Cousins'
p1233
(lp1234
VDorothy K. Funn
p1235
asS'Elizabeth Leech'
p1236
(lp1237
VAnne Kinney
p1238
aVPauline S. Townsend
p1239
aVBart Lytton
p1240
asS'Richard Younce'
p1241
(lp1242
VCharles D. Blodgett
p1243
asS'Thomas Matthew McGrath'
p1244
(lp1245
VMr. Mc
p1246
asS'Lena Wiena'
p1247
(lp1248
VEdith Macia
p1249
asS'Miriam Chown'
p1250
(lp1251
VDickson P. Hill
p1252
asS'Helen Samuels'
p1253
(lp1254
VEdith Macia
p1255
asS'Serrill Gerber'
p1256
(lp1257
VEdith Macia
p1258
aVLou Rosser
p1259
a(lp1260
VLou Rosser
p1261
aVMr. Gerber
p1262
aasS'Ann White'
p1263
(lp1264
VEdith Macia
p1265
asS'Alex Treskiu'
p1266
(lp1267
VDickson P. Hill
p1268
asS'Shirley Taylor'
p1269
(lp1270
VDorothy K. Funn
p1271
asS'Helen Wheeler'
p1272
(lp1273
VLou Rosser
p1274
aVHelen Wheeler
p1275
asS'Arnold Manoff'
p1276
(lp1277
VDavid A. Lang
p1278
aVSilvia Richards
p1279
aVLeopold Atlas
p1280
aVLee J. Cobb
p1281
asS'Herbert Eobbins'
p1282
(lp1283
VMr. Robbins
p1284
asS'Ethel Holmstock'
p1285
(lp1286
VAnne Kinney
p1287
asS'Bob Rasland'
p1288
(lp1289
VMary E. P. Bradsher
p1290
asS'Frank Emer'
p1291
(lp1292
VEdith Macia
p1293
asS'Edward Huebsch'
p1294
(lp1295
VDavid A. Lang
p1296
asS'Henrietta Palley'
p1297
(lp1298
VAnne Kinney
p1299
asS'Rose Olson'
p1300
(lp1301
VDorothy K. Funn
p1302
asS'Maurice Perlman'
p1303
(lp1304
VEdith Macia
p1305
asS'Jack Englehardt'
p1306
(lp1307
VEdith Macia
p1308
asS'Stanley Hancock'
p1309
(lp1310
VCharles H. Garrigues
p1311
asS'Sam Edelsteiu'
p1312
(lp1313
VNicholas Campas
p1314
asS'Arthur Barry'
p1315
(lp1316
VNicholas Campas
p1317
aVMr. Barry
p1318
asS'Stanley Rubin'
p1319
(lp1320
VMr. Rubin
p1321
asS'Ruth Weber'
p1322
(lp1323
VLeopold Atlas
p1324
asS'Gertrude Selig'
p1325
(lp1326
VAnne Kinney
p1327
asS'Lou Sherman'
p1328
(lp1329
VLou Lou Rosser
p1330
asS'Clarence TobeT'
p1331
(lp1332
VDickson P. Hill
p1333
aVWilliam D. Ames
p1334
aVMr. Tobey
p1335
asS'Rose Kliue'
p1336
(lp1337
VEdith M.Mcia
p1338
asS'Flo Cohen'
p1339
(lp1340
VJohn Mills Davis
p1341
aVSamuel Evens
p1342
asS'Harry Campbell'
p1343
(lp1344
VEdith Macia
p1345
asS'Angela Clarke'
p1346
(lp1347
VCarin Kinzel
p1348
asS'Sidney Belinky'
p1349
(lp1350
VJohn Mills Davis
p1351
aVSamuel Evens
p1352
asS'Si Fialkoff'
p1353
(lp1354
VNicholas Campas
p1355
asS'Joseph Zadow'
p1356
(lp1357
VAnne Kinney
p1358
asS'Charlotte Wacker'
p1359
(lp1360
VDorothy K. Funn
p1361
asS'Herbert Feay'
p1362
(lp1363
VNicholas Campas
p1364
aVJack Davis
p1365
asS'Mrs Kelly'
p1366
(lp1367
VCharles D. Blodgett
p1368
asS'Sue Cohen'
p1369
(lp1370
VAnne Kinney
p1371
asS'Carl Williams'
p1372
(lp1373
VErnest L. Seymour
p1374
asS'Elizabeth McMullen'
p1375
(lp1376
VDickson P. Hill
p1377
aVMrs. Arthur Mayhew
p1378
asS'Betty Laros'
p1379
(lp1380
VJack Davis
p1381
aVJohn Mills Davis
p1382
aVSamuel Evens
p1383
asS'George Stathis'
p1384
(lp1385
VNicholas Campas
p1386
aVJohn Mills Davis
p1387
asS'John Sanford'
p1388
(lp1389
VLeopold Atlas
p1390
aVPauline S. Townsend
p1391
asS'Mrs Smith'
p1392
(lp1393
VEleanor Bertha Grover
p1394
aVCharles D. Blodgett
p1395
asS'David Herman'
p1396
(lp1397
VNicholas Campas
p1398
aVJack Davis
p1399
aVJack Davis
p1400
aVDavid Herman
p1401
asS'Benjamin David Anton'
p1402
(lp1403
VMr. Anton
p1404
asS'Fanya Friedman'
p1405
(lp1406
VAnne Kinney
p1407
asS'Benny Goodman'
p1408
(lp1409
VAnne Kinney
p1410
asS'Frances Tandy'
p1411
(lp1412
VDickson P. Hill
p1413
asS'Joseph Klein'
p1414
(lp1415
VJoseph Nicholas Campas
p1416
asS'Louise Moss'
p1417
(lp1418
VLouise Losey
p1419
asS'Hilda Geller'
p1420
(lp1421
VJohn Mills Davis
p1422
aVSamuel Evens
p1423
asS'Margaret Wilson'
p1424
(lp1425
VAnne Kinney
p1426
asS'Lettie Stever'
p1427
(lp1428
VJorome Robbins
p1429
asS'Meridel LeSeuer'
p1430
(lp1431
VCharles D. Blodgett
p1432
aVCharles D. Blodgett
p1433
asS'Pearl Hill'
p1434
(lp1435
VCharles D. Blodgett
p1436
asS'Caroline Perloff'
p1437
(lp1438
VMrs. Perloff
p1439
asS'Sanford Bernstein'
p1440
(lp1441
VEdith Macia
p1442
asS'Wendell H. Furry'
p1443
(lp1444
VRobert Gorham Davis
p1445
aVHarvard Granville Hicks
p1446
aVWilliam T. Martin
p1447
asS'David Rappaport'
p1448
(lp1449
VArpad Nicholas Campas
p1450
aVDavid Rappaport
p1451
aVJack Davis
p1452
aVJohn Mills Davis
p1453
aVSamuel Evens
p1454
asS'Bill Redner'
p1455
(lp1456
VMary E. P. Bradsher
p1457
asS'Sadie Ornitz'
p1458
(lp1459
VBabbette Lang
p1460
asS'Hymie Aliiert'
p1461
(lp1462
VEdith Macia
p1463
asS'Jean Mayer'
p1464
(lp1465
VAnne Kinney
p1466
asS'Alfred Levitt'
p1467
(lp1468
VDavid A. Lang
p1469
aVLeopold Atlas
p1470
asS'Alice Wilson Gordon'
p1471
(lp1472
VAlice Wil
p1473
asS'George Gorchoff'
p1474
(lp1475
VRobert Gladnick
p1476
asS'Norman Byrne'
p1477
(lp1478
VLeRoy Herndon
p1479
asS'Zema Matlin'
p1480
(lp1481
VAnne Kinney
p1482
asS'Jay Gorney'
p1483
(lp1484
VPauline S. Townsend
p1485
aVBart Lytton
p1486
asS'Harry Haywood'
p1487
(lp1488
VLou Rosser
p1489
asS'George LaFortune'
p1490
(lp1491
VNicholas Campas
p1492
aVN. Y. Jack Davis
p1493
asS'Dorothy Woods'
p1494
(lp1495
VJosephine Dickson P. Hill
p1496
asS'Sam Wixman'
p1497
(lp1498
VAnne Kinney
p1499
asS'Gertrude Lane'
p1500
(lp1501
VJack Davis
p1502
aVJack Davis
p1503
asS'Dorothy K Mrs'
p1504
(lp1505
VJackRichard McMichael
p1506
a(lp1507
VMrs. Funn
p1508
aVMr. Rosser
p1509
aasS'Decca Treuhaft'
p1510
(lp1511
VMrs. Robert Treu
p1512
aVDickson P. Hill
p1513
asS'Tanya Tuttle'
p1514
(lp1515
VPauline S. Townsend
p1516
asS'Israel Halperin'
p1517
(lp1518
VRobert Gorham Davis
p1519
aVGranville Hicks
p1520
aVDaniel J. Boorstin
p1521
aVWilliam T. Martin
p1522
aVLouis Robert Gorham Davis
p1523
aVGranville Hicks
p1524
aVGeorge Mayberry
p1525
aVHerbert Robbins
p1526
asS'Newton Hill'
p1527
(lp1528
VCharles D. Blodgett
p1529
asS'Bill Ingham'
p1530
(lp1531
VAnne Kinney
p1532
asS'Jean Richardson'
p1533
(lp1534
VAnne Kinney
p1535
asS'Bert Witkowski'
p1536
(lp1537
VEdith Macia
p1538
asS'William T. Martin Putter'
p1539
(lp1540
VN. Y.
p1541
asS'Jeannette Finkelstein'
p1542
(lp1543
VDorothy K. Funn
p1544
asS'Josephine Woods Eidenoff'
p1545
(lp1546
VDickson P. Hill
p1547
asS'Julian Gordon'
p1548
(lp1549
VAnne Kinney
p1550
asS'Ann Nechemias'
p1551
(lp1552
VDorothy K. Funn
p1553
asS'Emma Stanley'
p1554
(lp1555
VDickson P. Hill
p1556
asS'Abraham Mlnkus'
p1557
(lp1558
VLeRoy Herndon
p1559
aVRichard Byrd Lewis
p1560
aVAnne Kinney
p1561
asS'Nick Lazari'
p1562
(lp1563
VNicholas Campas
p1564
asS'Hank Morley'
p1565
(lp1566
VDarling Adams
p1567
asS'Charles Alfred Duarte'
p1568
(lp1569
VLou Rosser
p1570
asS'Hyman Koppelman'
p1571
(lp1572
VDorothy K. Funn
p1573
asS'Shirley Stone'
p1574
(lp1575
VMrs. Charles Stone
p1576
aVEdith Macia
p1577
aVShirley Ellis
p1578
asS'Mr Coleman'
p1579
(lp1580
VEdna Rosen
p1581
aVDorothy K. Funn
p1582
asS'Fanny Lehman'
p1583
(lp1584
VCharles D. Blodgett
p1585
aVWilliam D. Ames
p1586
asS'Betty Gannett'
p1587
(lp1588
VAnne Kinney
p1589
a(lp1590
VLou Rosser
p1591
aVA. Lou Rosser
p1592
aasS'Alexander Kolker'
p1593
(lp1594
VJohn Mills Davis
p1595
aVSamuel Evens
p1596
asS'Bob Robinson'
p1597
(lp1598
VEdith Macia
p1599
asS'Gerry Schlein'
p1600
(lp1601
VLee J. Cobb
p1602
asS'Leo Baroway'
p1603
(lp1604
VAnne Kinney
p1605
a(lp1606
VCharles D. Blodgett
p1607
aVWilliam D. Ames
p1608
aasS'Louise Thompson'
p1609
(lp1610
VManning Johnson
p1611
a(lp1612
VLou Rosser
p1613
aVRay Bertha Grover
p1614
aVMarv E. P. Bradsher
p1615
aVDickson P. Hill
p1616
aVWilliam D. Ames
p1617
aasS'John Wright'
p1618
(lp1619
VNicholas Campas
p1620
aVJack Davis
p1621
aVJohn Mills Davis
p1622
aVSamuel Evens
p1623
asS'Jessie Pedrick'
p1624
(lp1625
VDickson P. Hill
p1626
aVMike Lou Rosser
p1627
aVMax Appleman
p1628
aVAlexander Lou Rosser
p1629
aVHazel Bertha Grover
p1630
asS'Sam Horn'
p1631
(lp1632
VEdith Macia
p1633
asS'Evelyn Fargo'
p1634
(lp1635
VAnne Kinney
p1636
asS'John Stanford'
p1637
(lp1638
VDavid A. Lang
p1639
asS'Mary Nolan'
p1640
(lp1641
VDarling Adams
p1642
asS'Jack S. Zucker'
p1643
(lp1644
VDorothy K. Funn
p1645
asS'Nat Wald'
p1646
(lp1647
VRobert Gladnick
p1648
asS'Ida Rothstein'
p1649
(lp1650
VLou Rosser
p1651
asS'Harry F. Ward'
p1652
(lp1653
VLeonard Patterson
p1654
aVManning Johnson
p1655
asS'William Taylor'
p1656
(lp1657
VDorothy K. Funn
p1658
asS'Catherine Becker'
p1659
(lp1660
VPauline S. Townsend
p1661
asS'Barbara Darling'
p1662
(lp1663
VMrs. Byron T. Bereniece Baldwin
p1664
asS'Mrs Koch'
p1665
(lp1666
VLester David A. Lang
p1667
aVJoe Charlotte Darling Adams
p1668
asS'Albert Legard'
p1669
(lp1670
VCharles D. Blodgett
p1671
asS'Jack Robinson'
p1672
(lp1673
VRoy Erwin
p1674
asS'Nerval Crutcher'
p1675
(lp1676
VDarling Adams
p1677
asS'Dave Himinelstein'
p1678
(lp1679
VLou Rosser
p1680
asS'Edith Johnson'
p1681
(lp1682
VEdith Macia
p1683
asS'Gene Hammond'
p1684
(lp1685
VMary E. P. Bradsher
p1686
asS'Barta Numovna'
p1687
(lp1688
VAnne Kinney
p1689
aVLeRoy Herndon
p1690
aVRichard Byrd Lewis
p1691
asS'George Siskin'
p1692
(lp1693
VLou Rosser
p1694
asS'Julian Zimet'
p1695
(lp1696
VDavid A. Lang
p1697
aVPauline S. Townsend
p1698
asS'Alvah Bessie'
p1699
(lp1700
VRobert Rossen
p1701
aVDavid A. Lang
p1702
aVLeopold Atlas
p1703
asS'Janet Scott'
p1704
(lp1705
VJohn Mills Dayis
p1706
aVSamuel Evens
p1707
asS'Carl Grossenbacher'
p1708
(lp1709
VWilliam T. Martin
p1710
aVIsadore Amdur
p1711
asS'Charles Hendley'
p1712
(lp1713
VRobert Graham Davis
p1714
asS'Dave Teitelbaum'
p1715
(lp1716
VJames Kendall
p1717
aVS. S. Alice E. Rice
p1718
asS'Holland Roberts'
p1719
(lp1720
VAnne Kinuey
p1721
a(lp1722
VCharles D. Blodgett
p1723
aasS'Norman Perlman'
p1724
(lp1725
VEdith Macia
p1726
asS'Jeauette Dworkin'
p1727
(lp1728
VMrs. Michael John Mills Davis
p1729
aVSamuel Evens
p1730
asS'Harry Schwartz'
p1731
(lp1732
VEdith Macia
p1733
aVEdith Macia
p1734
asS'Violet Orr'
p1735
(lp1736
VLou Rosser
p1737
asS'Harold Dimsdale'
p1738
(lp1739
VEdith Macia
p1740
asS'Mack Libby'
p1741
(lp1742
VHarry J. Marks
p1743
asS'Herman Beilan'
p1744
(lp1745
VMr. Beilan
p1746
asS'Mildred Bowen'
p1747
(lp1748
VCharles D. Blodgett
p1749
asS'Madeline Lee'
p1750
(lp1751
VJerome Robbins
p1752
asS'Karen Morley'
p1753
(lp1754
VRoy Erwin
p1755
aVLarry Parks
p1756
asS'Ed Fisher'
p1757
(lp1758
VEdith Macia
p1759
asS'Leon Kaplan'
p1760
(lp1761
VJames Kendall
p1762
asS'Nemmy Sparks'
p1763
(lp1764
VLeopold Atlas
p1765
aVPauline S. Townsend
p1766
aVHarry J. Marks
p1767
asS'Robert Kelly'
p1768
(lp1769
VCharles D. Blodgett
p1770
asS'Margaret Undjus'
p1771
(lp1772
VMargaret Benjamin Gitlow
p1773
asS'Bill Clifford'
p1774
(lp1775
VDickson P. Hill
p1776
aVWilliam D. Ames
p1777
asS'Ralph Johnson'
p1778
(lp1779
VCharles D. Blodgett
p1780
asS'Shimen Raskin'
p1781
(lp1782
VLee J. Cobb
p1783
asS'Ray Halpern'
p1784
(lp1785
VBertha Grover
p1786
asS'Anita Boyagian'
p1787
(lp1788
VAnita Edith Macia
p1789
asS'Harry Williams'
p1790
(lp1791
VLou Rosser
p1792
asS'Joe Adams'
p1793
(lp1794
VEdith Macia
p1795
asS'Arthur Orville Wright'
p1796
(lp1797
VMr. Wright
p1798
asS'Charles Leonard'
p1799
(lp1800
VDavid A. Lang
p1801
aVBabbette Lang
p1802
asS'Ben Maddow'
p1803
(lp1804
VPauline S. Townsend
p1805
asS'Clare Burnstein'
p1806
(lp1807
VMrs. Russell Wm. Babbette Lang
p1808
asS'James Feuton Wood'
p1809
(lp1810
VDickson P. Hill
p1811
aVWilliam D. Ames
p1812
asS'Beckie Wolstenholme'
p1813
(lp1814
VMrs. Art Wol
p1815
aVCharles D. Blodgett
p1816
asS'Donald Niven Wheeler'
p1817
(lp1818
VElizabeth Bentley
p1819
aVMr. Wheeler
p1820
aVU. S.
p1821
asS'Elliott Sullivan'
p1822
(lp1823
VEly Lee J. Cobb
p1824
aVJerome Robbins
p1825
asS'Alberto Moreau'
p1826
(lp1827
VDorothy K. Funn
p1828
asS'Sidney Claibourne'
p1829
(lp1830
VCharles D. Blodgett
p1831
asS'Helen Leonard'
p1832
(lp1833
VDavid A. Lang
p1834
aVS. Townsend
p1835
aVBabbette Lang
p1836
asS'Seymour Bennett'
p1837
(lp1838
VDavid A. Lang
p1839
asS'Earl Phillips'
p1840
(lp1841
VDickson P. Hill
p1842
asS'Paul Rosenfeld'
p1843
(lp1844
VPauline S. Townsend
p1845
asS'Martin Berkeley'
p1846
(lp1847
VMr. Berkeley
p1848
asS'Robert Bush'
p1849
(lp1850
VDr. Bush
p1851
asS'Elizabeth Faragoh'
p1852
(lp1853
VMrs. Francis Far
p1854
aVPauline S. Townsend
p1855
asS'Henriette Martin'
p1856
(lp1857
VDavid A. Lang
p1858
aVPauline S. Townsend
p1859
asS'Ruth Burrows'
p1860
(lp1861
VPauline S. Townsend
p1862
asS'Ethel Karson'
p1863
(lp1864
VEdith Macia
p1865
asS'Lloyd Gough'
p1866
(lp1867
VLarry Parks
p1868
aVJerome Robbins
p1869
asS'Sylvia Siegel'
p1870
(lp1871
VHarold Hecht
p1872
aVSol Shor
p1873
asS'Ludwig Donath'
p1874
(lp1875
VLee J. Cobb
p1876
asS'Jeff Kibre'
p1877
(lp1878
VRoland W. Kibbee
p1879
aVDarling Adams
p1880
asS'Mrs Buchman'
p1881
(lp1882
VHarold Pauline S. Townsend
p1883
asS'James Branca'
p1884
(lp1885
VDorothy K. Funn
p1886
asS'Ohio Cincinnati'
p1887
(lp1888
VJack Davis
p1889
aVNicholas Campas
p1890
aVJames McNamara
p1891
aVMr. McNamara
p1892
asS'Jane Dawson Kelly'
p1893
(lp1894
VEdith Macia
p1895
asS'James Gilliam'
p1896
(lp1897
VWilliam D. Ames
p1898
asS'Ora Kelly'
p1899
(lp1900
VCharles D. Blodgett
p1901
asS'Philip Dey Eastman'
p1902
(lp1903
VPolifka Fleury
p1904
asS'Iva Anthony'
p1905
(lp1906
VEdith Macia
p1907
asS'Russell William Bnrnstein'
p1908
(lp1909
VBabbette Lang
p1910
asS'Blackie Meyers'
p1911
(lp1912
VJames Kendall
p1913
asS'Rose Clinton'
p1914
(lp1915
VDorothy K. Funn
p1916
asS'Joe Lash'
p1917
(lp1918
VLeonard Patterson
p1919
aVMr. Lash
p1920
asS'Lillian Jones'
p1921
(lp1922
VAnne Kinney
p1923
asS'Art Wolstenholme'
p1924
(lp1925
VCharles D. Blodgett
p1926
asS'Harry Carlyle'
p1927
(lp1928
VRoy Erwin
p1929
aVPauline S. Townsend
p1930
asS'Pauline Hopkins'
p1931
(lp1932
VOwen Silvia Richards
p1933
aVRoy Erwin
p1934
aVCarin Kinzel
p1935
a(lp1936
VMrs. Owen Vinson
p1937
aasS'Sarah Bognoff'
p1938
(lp1939
VCharles H. Garrigues
p1940
asS'Herman Mazer'
p1941
(lp1942
VEdith Macia
p1943
asS'Clara Rairland'
p1944
(lp1945
VMary E. P. Bradsher
p1946
asS'Clarence Hathaway'
p1947
(lp1948
VManning Johnson
p1949
aVA. A. Manning Johnson
p1950
asS'Sidney Bloomfield'
p1951
(lp1952
VHarry J. Marks
p1953
aVMargot Robert Gorhain Davis
p1954
asS'Herman Clott'
p1955
(lp1956
VDorothy K. Funn
p1957
asS'John Morgan'
p1958
(lp1959
VCharles D. Blodgett
p1960
asS'Bea Burke'
p1961
(lp1962
VAnne Kinney
p1963
asS'Paul Perlin'
p1964
(lp1965
VDarling Adams
p1966
asS'Herbert Naboisek'
p1967
(lp1968
VMary E. P. Bradsher
p1969
asS'Jack Ginsberg'
p1970
(lp1971
VAnne Kinney
p1972
asS'Arthur Birnkarnt'
p1973
(lp1974
VDavid A. Lang
p1975
aVPauline S. Townsend
p1976
asS'Arthur Osman'
p1977
(lp1978
VMr. Osman
p1979
aVMr. Paley
p1980
aVOifioe Workei
p1981
aVSamuel C. Manning Johnson
p1982
aVGoldberg Dorotli\u005c K. Funn
p1983
asS'James King'
p1984
(lp1985
VNicholas Campas
p1986
aVJack Davis
p1987
asS'Wilma Shore'
p1988
(lp1989
VDavid A. Lang
p1990
asS'Ed Rolfe'
p1991
(lp1992
VSilvia Richards
p1993
asS'Elizabeth Augustine'
p1994
(lp1995
VElizabeth McMuUen
p1996
asS'Joe Saul'
p1997
(lp1998
VJoseph Spri
p1999
asS'John Little'
p2000
(lp2001
VRobert Gladnick
p2002
asS'Len DeCaux'
p2003
(lp2004
VDorothy K. Funn
p2005
asS'Robert Shaw'
p2006
(lp2007
VPauline S. Townsend
p2008
asS'Alice Hunter'
p2009
(lp2010
VPauline S. Townsend
p2011
asS'Lillian Heron'
p2012
(lp2013
VEdith Macia
p2014
asS'Dave Drummond'
p2015
(lp2016
VRobert Gladnick
p2017
aVMr. Gladnick
p2018
aVMr. Drummond
p2019
asS'Dean Hood'
p2020
(lp2021
VLou Rosser
p2022
asS'Dorothy W. Douglas'
p2023
(lp2024
VRobert Gorham Davis
p2025
asS'Jack Lazar'
p2026
(lp2027
VEdith Macia
p2028
asS'Robert W. Dunn'
p2029
(lp2030
VArnaud David A. Lang
p2031
aVRoland W. Kibbee
p2032
asS'Abraham Maymadus'
p2033
(lp2034
VAnne Kinney
p2035
asS'Evelyn Howard'
p2036
(lp2037
VMrs. Maurice How
p2038
asS'Henry Peterson'
p2039
(lp2040
VDarling Adams
p2041
asS'Lillian Lowenfels'
p2042
(lp2043
VMrs. Walter
p2044
aVMrs. Lowenfeb
p2045
asS'Mrs Pieper'
p2046
(lp2047
VMary Charles D. Blodgett
p2048
asS'Robert Black'
p2049
(lp2050
VCharles D. Blodgett
p2051
aVBertha Grover
p2052
aVWilliam D. Ames
p2053
asS'Marge Price'
p2054
(lp2055
VWilliam D. Ames
p2056
asS'Ohio Cokimbus'
p2057
(lp2058
VByron Thornwell Darling
p2059
aVByron ThorwellDarling
p2060
aVDr. Bella V. Dodd
p2061
aVDr. Dodd
p2062
asS'Ruth Stoddard Ryan'
p2063
(lp2064
VAnne Kinney
p2065
asS'Alice Wilson'
p2066
(lp2067
VRobert Gladnick
p2068
asS'Robert Dwinnell'
p2069
(lp2070
VCharles D. Blodgett
p2071
asS'James Lerner'
p2072
(lp2073
VBenjamin Gitlow
p2074
asS'Annette Harper'
p2075
(lp2076
VCarin Kinzel
p2077
aVDwight Hauser
p2078
asS'Albert Lockett'
p2079
(lp2080
VAnne Kinney
p2081
asS'Johnny Weber'
p2082
(lp2083
VHarry J. Marks
p2084
asS'Paul Jarrico'
p2085
(lp2086
VMax Benoff
p2087
aVRobert Rossen
p2088
a(lp2089
VV. J.
p2090
aasS'Ben Dobbs'
p2091
(lp2092
VLou Rosser
p2093
asS'June Kelleher'
p2094
(lp2095
VEdith Macia
p2096
asS'Charles Albert Page'
p2097
(lp2098
VMorris Appelman
p2099
asS'Edith Landall'
p2100
(lp2101
VEdith Macia
p2102
aVDavid A. Lang
p2103
aVS. Townsend
p2104
aVRoland W. Kibbee
p2105
aVRobert Rossen
p2106
asS'Ann Roth Rieliards'
p2107
(lp2108
VMarie Dorothy K. Funn
p2109
asS'Bert Cooper'
p2110
(lp2111
VRoy Erwin
p2112
asS'Richard O. Boyer'
p2113
(lp2114
VPauline S. Townsend
p2115
asS'John Smith'
p2116
(lp2117
VCharles D. Blodgett
p2118
asS'Ida Pratt'
p2119
(lp2120
VEdith Macia
p2121
asS'Murry Wagner'
p2122
(lp2123
VDwight Hauser
p2124
asS'Rose Pearson'
p2125
(lp2126
VHarold Hecht
p2127
asS'Jake Price'
p2128
(lp2129
VWilliam D. Ames
p2130
asS'Naomi Robeson'
p2131
(lp2132
VDwight Hauser
p2133
aVLeopold Atlas
p2134
asS'John Looschen'
p2135
(lp2136
VMr. Looschen
p2137
asS'Angelina Riskin'
p2138
(lp2139
VAnne Kinney
p2140
asS'Tom Brown'
p2141
(lp2142
VLou Rosser
p2143
asS'Paul Curtis'
p2144
(lp2145
VDavid A. Lang
p2146
asS'Sally Attarian'
p2147
(lp2148
VCharles D. Blodgett
p2149
asS'Henry Shire'
p2150
(lp2151
VAnne Kinney
p2152
asS'Gus Browne'
p2153
(lp2154
VEdith Macia
p2155
asS'Marjorie Hay'
p2156
(lp2157
VLeRoy Herndon
p2158
asS'Rev McMichael'
p2159
(lp2160
VJack R. Benjamin Gitlow
p2161
aVLeonard Patterson
p2162
aVManning Johnson
p2163
asS'Mrs Warwick'
p2164
(lp2165
VGertrude Charles D. Blodgett
p2166
aVBertha Grover
p2167
aVWilliam D. Ames
p2168
asS'Waldo Salt'
p2169
(lp2170
VDavid A. Lang
p2171
aVRoland W. Kibbee
p2172
asS'Louis McMullen'
p2173
(lp2174
VDickson P. Hill
p2175
asS'Tamara Hovey'
p2176
(lp2177
VSilvia Richards
p2178
asS'What is Smith'
p2179
(lp2180
VMr. Springer
p2181
aVJoseph Springer
p2182
asS'Margaret Ginsberg'
p2183
(lp2184
VMrs. Jack Gins
p2185
aVAnne Kinney
p2186
asS'David Leeds'
p2187
(lp2188
VDavid Amarigio
p2189
asS'John Stapp'
p2190
(lp2191
VPauline S. Townsend
p2192
asS'Louise Janis'
p2193
(lp2194
VPauline S. Townsend
p2195
asS'Sanders Shelf'
p2196
(lp2197
VAnne Kinney
p2198
asS'Joe Ayeroff'
p2199
(lp2200
VLou Rosser
p2201
asS'Lee Gold'
p2202
(lp2203
VSilvia Richards
p2204
asS'Mike Gold'
p2205
(lp2206
VJohn Mills Davis
p2207
asS'Barrows Dunham'
p2208
(lp2209
VMr. Dunham
p2210
asS'Esther Soler'
p2211
(lp2212
VMrs. Soler
p2213
aVWilliam B. Mann School
p2214
asS'Hallie Jonas'
p2215
(lp2216
VCarin Kinzel
p2217
asS'Helen Gardner'
p2218
(lp2219
VAnne Kinney
p2220
asS'Bill Crockett'
p2221
(lp2222
VWilliam D. Ames
p2223
asS'Vaughan A. K Tashjian'
p2224
(lp2225
VAnne Kinney
p2226
asS'Daniel Boone Schirmer'
p2227
(lp2228
VHarry J. Marks
p2229
asS'Ann Yanish'
p2230
(lp2231
VDickson P. Hill
p2232
aVCharles D. Blodgett
p2233
aVWilliam D. Ames
p2234
aVBertha Grover
p2235
asS'Albert Byler'
p2236
(lp2237
VAnne Kinney
p2238
asS'Anne Green'
p2239
(lp2240
VLeopold Atlas
p2241
asS'Shirley Kanter'
p2242
(lp2243
VPauline S. Townsend
p2244
asS'Frank Oats'
p2245
(lp2246
VAnne Kinney
p2247
aVOleta O'Connor David A. Lang
p2248
aVAnne Kinney
p2249
asS'Wesley Bodkin'
p2250
(lp2251
VDickson P. Hill
p2252
aVCharles D. Blodgett
p2253
asS'Conn Haven'
p2254
(lp2255
VByron Thorwell Darling
p2256
aVPaul Zilseh Daniel Fine
p2257
aVTheodore S. Polumbaum
p2258
aVArthur L. Levy
p2259
aVHarold T. Woerner, Jr.
p2260
aVByron Thorwell Darling
p2261
aVWilliam Ted ISIartin
p2262
aVIsadore Amdur
p2263
aVMr. Amdur
p2264
asS'Sol Kaplan'
p2265
(lp2266
VMr. Kaplan
p2267
asS'Naomi Workman'
p2268
(lp2269
VRobert Gladnick
p2270
asS'Nell Higman'
p2271
(lp2272
VLou Rosser
p2273
asS'Bertha Grover'
p2274
(lp2275
VBertha Grover
p2276
asS'Eugene Parker'
p2277
(lp2278
VCharles D. Blodgett
p2279
asS'Don Gordon'
p2280
(lp2281
VDarling Adams
p2282
asS'Martha Stone'
p2283
(lp2284
VLou Rosser
p2285
asS'James Tourney'
p2286
(lp2287
VJames Anne Kinney
p2288
aVJim Thorne
p2289
asS'Arthur Wright'
p2290
(lp2291
VSamuel Evens
p2292
aVMr. Wright
p2293
asS'Al Stanley'
p2294
(lp2295
VDickson P. Hill
p2296
asS'Herman Waldreen'
p2297
(lp2298
VHerman Waldman
p2299
aVDavid Wolfe
p2300
asS'John Hubley'
p2301
(lp2302
VDarling Adams
p2303
asS'Helen Pate'
p2304
(lp2305
VEdith Macia
p2306
asS'Jack Standish'
p2307
(lp2308
VCharles D. Blodgett
p2309
asS'Henry Shefiard'
p2310
(lp2311
VK. Funn
p2312
asS'Emily Gordon'
p2313
(lp2314
VAnne Kinney
p2315
asS'Edward Biberman'
p2316
(lp2317
VZachary Schwartz
p2318
aVHarold Hecht
p2319
aVDavid A. Lang
p2320
aVDarling Adams
p2321
asS'Fred Ball'
p2322
(lp2323
VMr. Ball
p2324
asS'Godine Eagle'
p2325
(lp2326
VDickson P. Hill
p2327
asS'Bernice Kalman'
p2328
(lp2329
VDickson P. Hill
p2330
aVBertha Grover
p2331
aVWilliam D. Ames
p2332
aVBertha Grover
p2333
asS'Herbert Klein'
p2334
(lp2335
VAnne Kinney
p2336
asS'Mrs Fisher'
p2337
(lp2338
VEdith Macia
p2339
a(lp2340
VAnya Lieber
p2341
aasS'Mrs Wepman'
p2342
(lp2343
VSarah Walsh
p2344
aVMrs. Wepman
p2345
asS'EUenore Abowitz'
p2346
(lp2347
VMrs. Murray Abo
p2348
aVAnne Kinney
p2349
asS'Al Lannon'
p2350
(lp2351
VDorothy K. Funn
p2352
a(lp2353
VJames Kendall
p2354
aasS'Jane March'
p2355
(lp2356
VAnne Kinney
p2357
asS'Morris Keller'
p2358
(lp2359
VDickson P. Hill
p2360
asS'Will Campbell'
p2361
(lp2362
VCharles D. Blodgett
p2363
asS'James McFadden'
p2364
(lp2365
VBertha Grover
p2366
asS'Irving Velson'
p2367
(lp2368
VCharles Robert Gladnick
p2369
asS'Janet McHarg'
p2370
(lp2371
VDickson P. Hill
p2372
asS'Betty Arden'
p2373
(lp2374
VAnne Kinney
p2375
asS'Jean Frederick'
p2376
(lp2377
VMrs. George Van Fred
p2378
aVMary E. P. Bradsher
p2379
asS'Byron Thorwell Darling'
p2380
(lp2381
VRobert Bush
p2382
aVCharles Gainor
p2383
aVEdward Gewirts
p2384
asS'Rubby Sherr'
p2385
(lp2386
VMr. Sherr
p2387
asS'John Henry Reynolds'
p2388
(lp2389
VRobert Gorham Davis
p2390
aVWilliam T. Martin
p2391
aVNorman Levinson
p2392
asS'Lloyd Lehman'
p2393
(lp2394
VLou Rosser
p2395
aVDickson P. Hill
p2396
asS'Louise Gilliam'
p2397
(lp2398
VWilliam D. Ames
p2399
asS'Louise Losey'
p2400
(lp2401
VMrs. Joseph Losey
p2402
aVPauline S. Townsend
p2403
aVLouise Moss
p2404
asS'Ernest Cook'
p2405
(lp2406
VCharles D. Blodgett
p2407
asS'Gordon Kahn'
p2408
(lp2409
VHarold Hecht
p2410
aVDavid A. Lang
p2411
aVMax Benoff
p2412
aVLeopold Atlas
p2413
asS'Aram Attarian'
p2414
(lp2415
VCharles D. Blodgett
p2416
asS'Florence Hutchinson'
p2417
(lp2418
VDickson P. Hill
p2419
asS'George Chakin'
p2420
(lp2421
VRobert Gladnick
p2422
asS'Thelma Dale'
p2423
(lp2424
VDorothy K. Funn
p2425
aVSarah Hartman Dorothy K. Funn
p2426
asS'Donald Baker'
p2427
(lp2428
VLou Rosser
p2429
asS'Jack Smith'
p2430
(lp2431
VJames Kendall
p2432
asS'David Livingston'
p2433
(lp2434
VMr. Livingston
p2435
asS'Herbert Goldfrank'
p2436
(lp2437
VSilvia Richards
p2438
aVHerbert Davis
p2439
asS'William Reich'
p2440
(lp2441
VCharles D. Blodgett
p2442
aVAl Charles D. Blodgett
p2443
asS'Dave Grant'
p2444
(lp2445
VHarry J. Marks
p2446
asS'Catherine Larkin'
p2447
(lp2448
VBabbette Lang
p2449
asS'Sophia Malloy'
p2450
(lp2451
VEdith Macia
p2452
asS'Shelly Davis'
p2453
(lp2454
VCharles D. Blodgett
p2455
asS'Dora Garber'
p2456
(lp2457
VEdith Macia
p2458
asS'Gene Lien'
p2459
(lp2460
VDickson P. Hill
p2461
aVMary E. P. Bradsher
p2462
asS'Margaret Gilbert'
p2463
(lp2464
VHerbert A. Philbrick
p2465
asS'Morrie Smolan'
p2466
(lp2467
VCharles H. Garrigues
p2468
aVAnne Kinney
p2469
asS'Goldie Gregurek'
p2470
(lp2471
VMrs. Frank Gregu
p2472
asS'Also he Fascism'
p2473
(lp2474
VMr. KuNziQ
p2475
aVMr. Patterson
p2476
aVMr. KuNziG
p2477
aVMr. PATTERSON
p2478
aVMr. KuNZiG
p2479
aVMr. Chairman
p2480
aVRichard McMichael
p2481
aVJohn Edmiston
p2482
aVManning Johnson
p2483
aVLeonard Patterson
p2484
aVJack R. McMichael
p2485
asS'Sophia Elfont'
p2486
(lp2487
VMiss Ell
p2488
aVStetson Junior
p2489
asS'Adele Margolis'
p2490
(lp2491
VMrs. Nathan Mar
p2492
aVMrs. Margolis
p2493
asS'Betty Martin'
p2494
(lp2495
VAnne Kinney
p2496
asS'Frances Itskowitz'
p2497
(lp2498
VMike" Gordon
p2499
aVFrances Gordon
p2500
asS'Daniel McCombe'
p2501
(lp2502
VMr. Mc
p2503
asS'Jacob Mindel'
p2504
(lp2505
VLou Rosser
p2506
asS'Dorothy Olson'
p2507
(lp2508
VSilvia Richards
p2509
aVJohn Edith Macia
p2510
aVMrs. John Edith
p2511
asS'Jens Simousgard'
p2512
(lp2513
VAnne Kinney
p2514
asS'Anna Mcintosh'
p2515
(lp2516
VCharles D. Blodgett
p2517
aVBen Davis Club
p2518
asS'Dorothy Blumberg'
p2519
(lp2520
VMrs. Al Blum
p2521
aVDorothy K. Funn
p2522
asS'George Morris'
p2523
(lp2524
VLou Rosser
p2525
asS'Barbara Wooley'
p2526
(lp2527
VMrs. Angus Wooley
p2528
aVPauline S. Townsend
p2529
aVBarbara Roberts
p2530
asS'Bernie Nidiss'
p2531
(lp2532
VEdith Macia
p2533
asS'Sylvia Elfenbein'
p2534
(lp2535
VDorothy K. Funn
p2536
asS'Robert Arnold'
p2537
(lp2538
VJohn Mills Davis
p2539
asS'Otto Hall'
p2540
(lp2541
VManning Johnson
p2542
asS'Ernest Fox'
p2543
(lp2544
VJames Kendall
p2545
asS'Lynn Whitney'
p2546
(lp2547
VRoy Erwin
p2548
aVCarin Kinzel
p2549
asS'Glenda Sullivan'
p2550
(lp2551
VRobert Rossen
p2552
asS'Ella Gonzales'
p2553
(lp2554
VMary E. P. Bradsher
p2555
asS'Walter Kolowski'
p2556
(lp2557
VRobert Gladnick
p2558
asS'Kendall also Mr'
p2559
(lp2560
VCharles DavidBlodgett
p2561
aVMr. Blodgett
p2562
aVMr. Blodgett
p2563
aVMr. Blodgett
p2564
asS'Sara Geyer'
p2565
(lp2566
VEdith Macia
p2567
asS'Sue Rossen'
p2568
(lp2569
VPauline S. Townsend
p2570
asS'Ferdinand Smith'
p2571
(lp2572
VJames Kendall
p2573
asS'Shirley Fields'
p2574
(lp2575
VNicholas Campas
p2576
aVShirley Fields
p2577
asS'Lem Belton'
p2578
(lp2579
VDorothy K. Funn
p2580
asS'John Leech'
p2581
(lp2582
VAnne Kinney
p2583
asS'Zara Becker'
p2584
(lp2585
VRichard Byrd Lewis
p2586
aVAnne Kinney
p2587
asS'Libby Minkus'
p2588
(lp2589
VAnne Kinney
p2590
asS'Jean Lien'
p2591
(lp2592
VDickson P. Hill
p2593
aVMary E. P. Bradsher
p2594
asS'Pauline Vinson'
p2595
(lp2596
VMrs. Owen Vinson
p2597
aVPauline Hopkins
p2598
asS'Allen Johnson'
p2599
(lp2600
VCharles D. Blodgett
p2601
asS'Loretta Starvus'
p2602
(lp2603
VDickson P. Hill
p2604
aVWilliam D. Ames
p2605
aVLou Rosser
p2606
asS'Lou Harris'
p2607
(lp2608
VRobert Rossen
p2609
aVRoland W. Kibbee
p2610
asS'Elena Beck'
p2611
(lp2612
VMildred Benoff
p2613
aVPauline S. Townsend
p2614
asS'Minna Klein'
p2615
(lp2616
VAnne Kinney
p2617
asS'Leo Selfrid'
p2618
(lp2619
VAnne Kinney
p2620
asS'Nina Ingham'
p2621
(lp2622
VAnne Kinney
p2623
asS'Josef Michel'
p2624
(lp2625
VRobert Rossen
p2626
asS'Charles Gainor'
p2627
(lp2628
VDr. Gainor
p2629
asS'Richard Lynden'
p2630
(lp2631
VLou Rosser
p2632
asS'Edith Bomser'
p2633
(lp2634
VEditli Macia
p2635
aVNat Edith Macia
p2636
asS'Mrs Goldstein'
p2637
(lp2638
VTheodora Mitzberg Herbert Philbrick
p2639
asS'Hjalmar Peterson'
p2640
(lp2641
VDarling Adams
p2642
asS'Harry Fruit'
p2643
(lp2644
VMr. Fruit
p2645
asS'Martha Lepowsky'
p2646
(lp2647
VDorothy K. Funn
p2648
aVMrs. Kahn
p2649
asS'Mrs Edgley'
p2650
(lp2651
VPauline S. Townsend
p2652
aVEdward David A. Lang
p2653
asS'Charles Glenn'
p2654
(lp2655
VCarin Kinzel
p2656
aVSilvia Richards
p2657
asS'Stanley Roberts'
p2658
(lp2659
VRobert Rossen
p2660
aVEdna Rosen
p2661
aVSarah Oilman
p2662
asS'Doris Fogarty'
p2663
(lp2664
VDickson P. Hill
p2665
asS'Harold Oakerly'
p2666
(lp2667
VJames Kendall
p2668
asS'Mrs Hanson'
p2669
(lp2670
VEvelyn Charles D. Blodgett
p2671
asS'Libby Jacobson'
p2672
(lp2673
VAnne Kinney
p2674
asS'Val Burton'
p2675
(lp2676
VDavid A. Lang
p2677
asS'Inez Hearn'
p2678
(lp2679
VCharles D. Blodgett
p2680
asS'Marcus Singer'
p2681
(lp2682
VIsadore Amdur
p2683
asS'Nicholas Campas Bartlett'
p2684
(lp2685
VMr. Bartlett
p2686
asS'Pettis Perry'
p2687
(lp2688
VAnne Kinney
p2689
asS'George Van Frederick'
p2690
(lp2691
VDickson P. Hill
p2692
aVMary E. P. Bradsher
p2693
asS'Oscar Fuss'
p2694
(lp2695
VAnne Kinney
p2696
asS'Mary Jane Adams'
p2697
(lp2698
VEdith Macia
p2699
asS'Simon Lazarus'
p2700
(lp2701
VMr. Lazarus
p2702
asS'Marie Rinaldo'
p2703
(lp2704
VMildred Benoff
p2705
aVPauline S. Townsend
p2706
asS'Arnold Dorenz'
p2707
(lp2708
VNicholas Campas
p2709
aVMr. Dorenz
p2710
asS'Roi Sherman'
p2711
(lp2712
VErnest L. Seymour
p2713
asS'James Dow'
p2714
(lp2715
VRoland W. Kibbee
p2716
asS'Dorothy Zadow'
p2717
(lp2718
VAnne Kinney
p2719
asS'Phil Klein'
p2720
(lp2721
VDarling Adams
p2722
asS'David Wolfe'
p2723
(lp2724
VHerman Wald
p2725
asS'Frank Oppenheimer'
p2726
(lp2727
VAnne Kinney
p2728
asS'Harry Gilder'
p2729
(lp2730
VEdith Macia
p2731
asS'Rude LauibtMt'
p2732
(lp2733
VAnne Kinney
p2734
asS'Mrs Lanipell'
p2735
(lp2736
VMillard Silvia Richards
p2737
asS'Rosalie Crockett'
p2738
(lp2739
VWilliam D. Ames
p2740
asS'Ishmael Flory'
p2741
(lp2742
VNicholas Campas
p2743
aVJack Davis
p2744
asS'Florence Tobey'
p2745
(lp2746
VDickson P. Hill
p2747
aVWilliam D. Ames
p2748
aVMrs. Tobey
p2749
aVErnest L. Seymour
p2750
aVLou Rosser
p2751
asS'Boorstin stated Mr'
p2752
(lp2753
VMr. Boorstinalso
p2754
aVGranville Hicks
p2755
aVMr. Boorstin
p2756
aVMr. Davis
p2757
asS'Paul Rudolph Zllsel'
p2758
(lp2759
VMr. Zilsel
p2760
asS'Rosalind Lindesmith'
p2761
(lp2762
VMrs. Johnny Dickson P. Hill
p2763
aVWilliam D. Ames
p2764
asS'Kathleen Griffitli'
p2765
(lp2766
VMrs. Kathleen Griffith Hee
p2767
asS'Emmett Teague'
p2768
(lp2769
VDickson P. Hill
p2770
asS'Leon Meadows'
p2771
(lp2772
VCarin Kinzel
p2773
asS'Leila Thompson'
p2774
(lp2775
VBertha Orover
p2776
aVDick.son P. Hill
p2777
aVCharles D. Blodgett
p2778
aVWilliam D. Ames
p2779
asS'Kostas Dakchoylous'
p2780
(lp2781
VJohn Mills Davis
p2782
asS'Marie Phillips'
p2783
(lp2784
VDickson P. Hill
p2785
asS'In 1944 Party'
p2786
(lp2787
VHarrison George
p2788
aVEarl Browder
p2789
aVRoy Hudson
p2790
aVH. Jackson
p2791
aVRoy Hudson
p2792
aVGeorge Mink
p2793
asS'Ben Bengal'
p2794
(lp2795
VPauline S. Townsend
p2796
asS'Jane Wilson'
p2797
(lp2798
VJane Anne Kinney
p2799
aVLeRoy Herndon
p2800
asS'Bill Ellis'
p2801
(lp2802
VRobert Gladnick
p2803
aVMr. Ellis
p2804
asS'Mary Kotick'
p2805
(lp2806
VJohn Mills Davis
p2807
asS'Louis J. Lubin'
p2808
(lp2809
VJohn Mills Davis
p2810
aVSamuel Evens
p2811
asS'Sandra Martin'
p2812
(lp2813
VCharles D. Blodgett
p2814
asS'Charles Klare'
p2815
(lp2816
VMr. Klare
p2817
asS'Seth Levine'
p2818
(lp2819
VDorothy K. Funn
p2820
asS'William Michelson'
p2821
(lp2822
VJohn Mills Davis
p2823
asS'Maurice Howard'
p2824
(lp2825
VDarling Adams
p2826
asS'Leon Shapiro'
p2827
(lp2828
VJohn Mills Davis
p2829
aVSamuel Evens
p2830
asS'Libby Corngold'
p2831
(lp2832
VLou Rosser
p2833
asS'Fred Williams'
p2834
(lp2835
VBertha Grover
p2836
asS'Martha McMullen'
p2837
(lp2838
VMrs. Dickson P. Hill
p2839
aVLouis McMullen
p2840
asS'Moe Finklestein'
p2841
(lp2842
VBella V. Dodd
p2843
asS'Mort Newman'
p2844
(lp2845
VLou Rosser
p2846
aVMr. Mort Newman
p2847
asS'Charlie White'
p2848
(lp2849
VLeonard Patterson
p2850
aVMr. White
p2851
asS'Jean Rand'
p2852
(lp2853
VLou Rosser
p2854
aVJean Rand
p2855
asS'Howard Dimsdale'
p2856
(lp2857
VDavid A. Lang
p2858
aVSilvia Richards
p2859
asS'Nathan Goldstein'
p2860
(lp2861
VJohn Mills Davis
p2862
aVSamuel Evens
p2863
asS'Miriam Holtz'
p2864
(lp2865
VAnne Kinney
p2866
asS'Becky Goodman'
p2867
(lp2868
VAnne Kinney
p2869
asS'Lionel Berman'
p2870
(lp2871
VJerome Bobbins
p2872
asS'William Albertson'
p2873
(lp2874
VNicholas Campas
p2875
aVJack Davis
p2876
aVCostas Nicholas Campas
p2877
aVJack Davis
p2878
asS'Jacob Geyer'
p2879
(lp2880
VJack Edith Macia
p2881
asS'Kendall Mr'
p2882
(lp2883
VArthur Middleton
p2884
aVMr. Kendall
p2885
asS'Celia Wilhy'
p2886
(lp2887
VSilvia Richards
p2888
asS'Bella Lewitzky'
p2889
(lp2890
VMrs. Newell Rey
p2891
aVAnne Kinney
p2892
asS'Lilith James'
p2893
(lp2894
VPauline S. Townsend
p2895
aVBart Lytton
p2896
aVRobert Rossen
p2897
asS'Leona McGinty'
p2898
(lp2899
VMrs. Howland Cham
p2900
aVAnne Kinney
p2901
a(lp2902
VMrs. Howland Cham
p2903
aVLou Rosser
p2904
aasS'Robert J. Rutman'
p2905
(lp2906
VMr. Rutman
p2907
asS'Sandra Young'
p2908
(lp2909
VEdith Macia
p2910
asS'Arthur Anhattzer'
p2911
(lp2912
VEdith Macia
p2913
asS'Fran Salit'
p2914
(lp2915
VEdith Macia
p2916
asS'Charles Dorenz'
p2917
(lp2918
VNicholas Campas
p2919
aVJack Davis
p2920
aVJohn Mills Davis
p2921
asS'Frieda Trachgin'
p2922
(lp2923
VEdith Macia
p2924
asS'Margaret Maltz'
p2925
(lp2926
VBabbette Lang
p2927
asS'Edna Rosenberg Coleman'
p2928
(lp2929
VDorothy K. Funn
p2930
aVEdna Rosenberg
p2931
asS'IVIrs Kaufman'
p2932
(lp2933
VJohn Mills Davis
p2934
aVSamuel Evens
p2935
asS'Clara Walden'
p2936
(lp2937
VPauline S. Townsend
p2938
asS'Kelly Douglas'
p2939
(lp2940
VSamuel Evens
p2941
asS'Elizabeth Guarnaccia'
p2942
(lp2943
VHerbert A. Philbrick
p2944
asS'Carter Brown'
p2945
(lp2946
VAnne Kinney
p2947
asS'Carl Foreman'
p2948
(lp2949
VDavid A. Lang
p2950
aVSol Shor
p2951
aVBabbette Lang
p2952
asS'Anna Shepro'
p2953
(lp2954
VLeRoy Herndon
p2955
aVRichard Byrd Lewis
p2956
asS'Steve Murdock'
p2957
(lp2958
VCharles D. Blodgett
p2959
asS'Ruth Hultgren'
p2960
(lp2961
VCharles D. Blodgett
p2962
aVWilliam D. Ames
p2963
asS'John Bittman'
p2964
(lp2965
VCharles D. Blodgett
p2966
asS'Rose Dreyfus'
p2967
(lp2968
VEdith Macia
p2969
asS'Catherine Vandercar'
p2970
(lp2971
VBabbette Lang
p2972
asS'Robert Campbell'
p2973
(lp2974
VDorothy K. Funn
p2975
asS'Ernest Boykin'
p2976
(lp2977
VCharles D. Blodgett
p2978
asS'Al Saxton'
p2979
(lp2980
VErnest L. Seymour
p2981
asS'Evelyn Keller'
p2982
(lp2983
VAnne Kinney
p2984
asS'George Willner'
p2985
(lp2986
VSilvia Richards
p2987
aVLeopold Atlas
p2988
aVBabbette Lang
p2989
asS'Bill Young'
p2990
(lp2991
VSilvia Richards
p2992
asS'Sam Kalish'
p2993
(lp2994
VLeRoy Herndon
p2995
aVRichard Byrd Lewis
p2996
aVAnne Kinney
p2997
asS'Abraham Lincoln Polonsky'
p2998
(lp2999
VLeopold Atlas
p3000
asS'Bert Corona'
p3001
(lp3002
VLou Rosser
p3003
asS'Ben Pollin'
p3004
(lp3005
VRoy Erwin
p3006
asS'Harold Schachter'
p3007
(lp3008
VCharles D. Blodgett
p3009
aVMr. Schachter
p3010
aVCarlton Col
p3011
asS'Samuel Meyer Kaplan'
p3012
(lp3013
VThomas Delaney
p3014
aVMr. Kaplan
p3015
aVMr. Delaney
p3016
aVMr. Kaplan
p3017
asS'Sam Darcy'
p3018
(lp3019
VLou Rosser
p3020
aVJoe Koide
p3021
asS'Mary Lou Rosser'
p3022
(lp3023
VMrs. Lou Lou Rosser
p3024
asS'Gladys Black'
p3025
(lp3026
VCharles D. Blodgett
p3027
aVBertha Grover
p3028
aVWilliam D. Ames
p3029
asS'Elliott Grennard'
p3030
(lp3031
VDavid A. Lang
p3032
asS'Revels Cayton'
p3033
(lp3034
VDorothy K. Funn
p3035
a(lp3036
VLou Rosser
p3037
aasS'Reuben Ship'
p3038
(lp3039
VPauline S. Townsend
p3040
aVCarin Kinzel
p3041
asS'Rose Hobart'
p3042
(lp3043
VLee J. Cobb
p3044
asS'Bernadette Doyle'
p3045
(lp3046
VDickson P. Hill
p3047
asS'Dorothy Tree'
p3048
(lp3049
VLarry Parks
p3050
aVLee J. Cobb
p3051
asS'Norman Canright'
p3052
(lp3053
VCharles D. Blodgett
p3054
asS'Sid Partridge'
p3055
(lp3056
VCharles D. Blodgett
p3057
asS'LaRne McCormiek'
p3058
(lp3059
VAnne Kinney
p3060
asS'Tommy Downs'
p3061
(lp3062
VEdith Macia
p3063
asS'William Pomerance'
p3064
(lp3065
VDarling Adams
p3066
aVPauline S. Townsend
p3067
aVRobert Rossen
p3068
asS'Edward Barlow'
p3069
(lp3070
VDickson P. Hill
p3071
aVBertha Grover
p3072
asS'John Rapf'
p3073
(lp3074
VRoy Erwin
p3075
asS'Lester Cole'
p3076
(lp3077
VRobert Rossen
p3078
aVDavid A. Lang
p3079
aVSol Shor
p3080
aVLeopold Atlas
p3081
asS'Phil Bard'
p3082
(lp3083
VRobert Gladnick
p3084
asS'Mitchell Lindeman'
p3085
(lp3086
VCarin Kinzel
p3087
asS'INIrs Bessie'
p3088
(lp3089
VAlvah Leopold Atlas
p3090
asS'David Amarigio'
p3091
(lp3092
VRobert Gladnick
p3093
aVDavid Leeds
p3094
asS'Goldie Bromberg'
p3095
(lp3096
VMrs. J. Edward Pauline S. Townsend
p3097
asS'Burton Freund'
p3098
(lp3099
VEdith Macia
p3100
asS'Kate Lawson'
p3101
(lp3102
VDarling Adams
p3103
asS'Harry Norman'
p3104
(lp3105
VEdith Macia
p3106
aVJoseph David A. Lang
p3107
asS'Fred Putnam'
p3108
(lp3109
VEdith Macia
p3110
aVMrs. Joe Aidlin
p3111
aVAnne Kinney
p3112
asS'Florence Jacobs'
p3113
(lp3114
VDorothy K. Funn
p3115
aVFranklin K. Lane
p3116
asS'Milton Henry'
p3117
(lp3118
VAnne Kinney
p3119
asS'Lawrence Arguimbau'
p3120
(lp3121
VWilliam T. Martin
p3122
aVMassachusetts Isadore Amdur
p3123
aVNorman Levinson
p3124
asS'Marsha Browne'
p3125
(lp3126
VMrs. Gus Browne Edith Macia
p3127
asS'John Polki'
p3128
(lp3129
VLou Rosser
p3130
asS'Bernhard Stern'
p3131
(lp3132
VGranville Hicks
p3133
asS'Mrs Sanford'
p3134
(lp3135
VMarguerite Roberts
p3136
asS'Wilhelmina Laughery'
p3137
(lp3138
VMary E. P. Bradsher
p3139
aVBertha Grover
p3140
aVDickson P. Hill
p3141
aVWilliam D. Ames
p3142
asS'Jack Olsen'
p3143
(lp3144
VJack 01
p3145
aVLou Rosser
p3146
asS'Julius Jacobs'
p3147
(lp3148
VDorothy K. Funn
p3149
asS'Mrs Hy Alexander'
p3150
(lp3151
VSilvia Richards
p3152
aVLeopold Atlas
p3153
aVPauline S. Townsend
p3154
aVMrs. Louis
p3155
aVSilvia Richards
p3156
asS'Flora Webster'
p3157
(lp3158
VMrs. Willard Parker Bereniece Baldwin
p3159
asS'David Kinkead'
p3160
(lp3161
VDickson P. Hill
p3162
asS'Charles Pfeiffer'
p3163
(lp3164
VLou Rosser
p3165
asS'Carl Grant'
p3166
(lp3167
VAnne Kinney
p3168
asS'Gene Morse'
p3169
(lp3170
VRobert Gladnick
p3171
asS'Edward Chodorov'
p3172
(lp3173
VJerome Robbins
p3174
asS'Mary Robinson'
p3175
(lp3176
VRoy Erwin
p3177
asS'Pete Matanami'
p3178
(lp3179
VDickson P. Hill
p3180
asS'Freda Spivak'
p3181
(lp3182
VEdith Macia
p3183
asS'Mrs McVey'
p3184
(lp3185
VPaul Roy Erwin
p3186
asS'Sidney Weinbaum'
p3187
(lp3188
VLeRoy Herndon
p3189
asS'Charles Oberkirch'
p3190
(lp3191
VJack Davis
p3192
aVN. Y.
p3193
asS'John Jeffrey'
p3194
(lp3195
VAnne Kinney
p3196
aVV. J. Harold Hecht
p3197
aVLeonard Patterson
p3198
asS'Louise Todd'
p3199
(lp3200
VAnne Kinney
p3201
a(lp3202
VCharles D. Blodgett
p3203
aVDickson P. Hill
p3204
aasS'Roger Capelle'
p3205
(lp3206
VDickson P. Hill
p3207
aVBertha Grover
p3208
asS'Eugene Alexander Toopeekoff'
p3209
(lp3210
VJames Kendall
p3211
asS'Kenneth Roberts'
p3212
(lp3213
VCharles D. Blodgett
p3214
asS'Mrs Skadron'
p3215
(lp3216
VLillian Sol Shor
p3217
asS'Martha Campion'
p3218
(lp3219
VManning Johnson
p3220
aVMartha Campion
p3221
asS'Joseph Stone'
p3222
(lp3223
VJoseph Klein
p3224
asS'Paul Trabusis'
p3225
(lp3226
VDavid A. Lang
p3227
asS'Mike Obermier'
p3228
(lp3229
VNicholas Campas
p3230
aVJack Davis
p3231
aVPaul Jack Davis
p3232
asS'Everett Weil'
p3233
(lp3234
VPauline S. Townsend
p3235
asS'Robert Neville'
p3236
(lp3237
VMary E. P. Bradsher
p3238
aVDickson P. Hill
p3239
aVWilliam D. Ames
p3240
asS'Sig Hesse'
p3241
(lp3242
VDickson P. Hill
p3243
asS'David Hillierman'
p3244
(lp3245
VDarling Adams
p3246
asS'Xaorai White'
p3247
(lp3248
VMary E. P. Bradsher
p3249
asS'Joe Terry'
p3250
(lp3251
VCharles D. Blodgett
p3252
asS'Bruce Anderson'
p3253
(lp3254
VMary E. P. Bradsher
p3255
asS'Janet Stevenson'
p3256
(lp3257
VMrs. Philip Steven
p3258
aVPauline S. Townsend
p3259
asS'Irvin Richter'
p3260
(lp3261
VDorothy K. Funn
p3262
asS'Nat Yanish'
p3263
(lp3264
VDickson P. Hill
p3265
aVCharles D. Blodgett
p3266
aVWilliam D. Ames
p3267
aVBertha Grover
p3268
asS'Betty Seklen'
p3269
(lp3270
VAnne Kinney
p3271
asS'Douglas Whitney Ward'
p3272
(lp3273
VCharles D. Blodgett
p3274
asS'Harry Utrich'
p3275
(lp3276
VLou Rosser
p3277
aVAl Lannon
p3278
asS'Sidney Benson'
p3279
(lp3280
VTed Pauline S. Townsend
p3281
asS'Philip Stevenson'
p3282
(lp3283
VLeopold Atlas
p3284
aVPauline S. Townsend
p3285
asS'Hilton Wolf'
p3286
(lp3287
VEdith Macia
p3288
asS'Robert Richards'
p3289
(lp3290
VPauline S. Townsend
p3291
asS'Harry Bridges'
p3292
(lp3293
VJames Kendall
p3294
asS'Louis Goldblatt'
p3295
(lp3296
VLou Rosser
p3297
aVLewis Miller
p3298
asS'Helen Allison Winter'
p3299
(lp3300
VMrs. Carl Win
p3301
aVBereniece Baldwin
p3302
asS'Victor Shapiro'
p3303
(lp3304
VDavid A. Lang
p3305
aVLeopold Atlas
p3306
aVRobert Rossen
p3307
asS'Lawrence West'
p3308
(lp3309
VAnne Kinney
p3310
asS'Donald Hatcliigan'
p3311
(lp3312
VNicholas Campas
p3313
aVJack Davis
p3314
aVN. Y. John Mills Davis
p3315
asS'Ann Roth Morgan'
p3316
(lp3317
VAnn Roth Richards
p3318
asS'Otis Archer Hood'
p3319
(lp3320
VHerbert Philbrick
p3321
asS'Harold T. Woerner'
p3322
(lp3323
VMr. Woerner Salesman
p3324
asS'Leo Rossman'
p3325
(lp3326
VJames Kendall
p3327
asS'Joseph Melia'
p3328
(lp3329
VDickson P. Hill
p3330
aVCharles D. Blodgett
p3331
aVWilliam D. Ames
p3332
asS'Lucy Warren'
p3333
(lp3334
VEdith Macia
p3335
aVJohn Pauline S. Townsend
p3336
asS'Arthur L. Levy'
p3337
(lp3338
VMr. Levy
p3339
asS'Sonya Solotoy'
p3340
(lp3341
VAnne Kinney
p3342
asS'Jay Moss'
p3343
(lp3344
VAnne Kinney
p3345
asS'Teresa Kalman'
p3346
(lp3347
VBertha Grover
p3348
asS'Leo M. Hurvich'
p3349
(lp3350
VMr. Hurvich
p3351
aVN. Y.
p3352
asS'Ralph Izzard'
p3353
(lp3354
VCharles D. Blodgett
p3355
asS'Ruth McGovney'
p3356
(lp3357
VRuth McGov
p3358
aVDickson P. HiU
p3359
asS'Jean Lees'
p3360
(lp3361
VBabbette Lang
p3362
asS'Irving Gold'
p3363
(lp3364
VJohn Mills Davis
p3365
aVSamuel Evens
p3366
asS'Mrs Ball'
p3367
(lp3368
VMrs. Ball
p3369
asS'The committee Springer'
p3370
(lp3371
VMax Klansky
p3372
asS'Arthur Newman'
p3373
(lp3374
VDorothy K. Funn
p3375
aVN. Y.
p3376
asS'Ella Winter'
p3377
(lp3378
VDavid A. Lang
p3379
aVManning Johnson
p3380
asS'Beatrice Lubitz Cole'
p3381
(lp3382
VPauline S. Townsend
p3383
asS'Mrs Townsend'
p3384
(lp3385
VPauline S Mar
p3386
asS'Ben Barzman'
p3387
(lp3388
VRobert Rossen
p3389
aVPauline S. Townsend
p3390
asS'Pele Edises'
p3391
(lp3392
VCharles D. Blodgett
p3393
asS'Martin Chancey'
p3394
(lp3395
VDorothy K. Funn
p3396
asS'Solomon Haas'
p3397
(lp3398
VMr. Haas
p3399
asS'David Flacks'
p3400
(lp3401
VDorothy K. Funn
p3402
asS'Mary Elizabeth Bradsher'
p3403
(lp3404
VMary Bradsher
p3405
asS'Harry Rich'
p3406
(lp3407
VNicholas Campas
p3408
aVJack Davis
p3409
asS'Estelle Foreman'
p3410
(lp3411
VDavid A. Lang
p3412
aVBabbette Lang
p3413
asS'Sophia Salit'
p3414
(lp3415
VEdith Macia
p3416
asS'Allen Boretz'
p3417
(lp3418
VDavid A. Lang
p3419
asS'Calif Hayward'
p3420
(lp3421
VDickson P. Hill
p3422
asS'Bella V Dr'
p3423
(lp3424
VDorothy K. Funn
p3425
asS'Clarence Davis'
p3426
(lp3427
VCharles D. Blodgett
p3428
asS'Jane Wallace'
p3429
(lp3430
VJane Wilson
p3431
aVJane Wilson
p3432
asS'Harold Buchman'
p3433
(lp3434
VRobert Rossen
p3435
aVDavid A. Lang
p3436
aVPauline S. Townsend
p3437
aVRoland W. Kibbee
p3438
asS'Mrs Bela'
p3439
(lp3440
VNicholas Sol Shor
p3441
asS'Pauline Laserfin'
p3442
(lp3443
VDavid A. Lang
p3444
asS'Peter Lyon'
p3445
(lp3446
VPauline S. Townsend
p3447
aVLee J. Cobb
p3448
asS'Matthew Crawford'
p3449
(lp3450
VLou Rosser
p3451
asS'Robert Cohen'
p3452
(lp3453
VDorothy K. Funn
p3454
a(lp3455
VRobert Gladnick
p3456
aVServicio Informacion Militar
p3457
aasS'Sam Moore'
p3458
(lp3459
VSilvia Richards
p3460
aVDwight Hauser
p3461
aVRoy Erwin
p3462
asS'Bob Roberts'
p3463
(lp3464
VDavid A. Lang
p3465
asS'John Bright'
p3466
(lp3467
VRobert Rossen
p3468
aVMr. Rossen
p3469
aVHarold Hecht
p3470
aVJohn Bright
p3471
aVDavid A. Lang
p3472
aVRoland W. Kibbee
p3473
asS'Maurice Rapf'
p3474
(lp3475
VDavid A. Lang
p3476
aVPauline S. Townsend
p3477
aVRoland W. Kibbee
p3478
aVRobert Rossen
p3479
asS'Howland Chamberlin'
p3480
(lp3481
VAnne Kinney
p3482
asS'Elizabeth Mayhew'
p3483
(lp3484
VElizabeth Mc
p3485
asS'Anna Taft'
p3486
(lp3487
VRobert Gladnick
p3488
asS'Amalia Pesko Crago'
p3489
(lp3490
VNicholas Campas
p3491
aVJack Davis
p3492
aVJohn Mills Davis
p3493
aVSamuel Evens
p3494
asS'Mrs Reynolds'
p3495
(lp3496
VBella Lewitzky
p3497
aVBella Lewitzky
p3498
asS'Charles Stone'
p3499
(lp3500
VCharles Edith Macia
p3501
asS'Max Silver'
p3502
(lp3503
VMr. Silver
p3504
asS'Miss Jane Gilbert'
p3505
(lp3506
VCharles D. Blodgett
p3507
asS'Cleophas Brown'
p3508
(lp3509
VWilliam D. Ames
p3510
aVCharles D. Blodgett
p3511
asS'Sam Kubin'
p3512
(lp3513
VEdith Macia
p3514
aVSara Edith Macia
p3515
asS'Sidney Freeman'
p3516
(lp3517
VLeRoy Herndon
p3518
asS'Nina Handman'
p3519
(lp3520
VEdith Macia
p3521
asS'Mrs Wheeler'
p3522
(lp3523
VJuanita Charles D. Blodgett
p3524
asS'Morton Nadler'
p3525
(lp3526
VAnne Kinney
p3527
asS'Morris Zuckman'
p3528
(lp3529
VJohn Mills Davis
p3530
aVSamuel Evens
p3531
asS'Eunice Mindlin'
p3532
(lp3533
VDavid A. Lang
p3534
asS'Elaine Black'
p3535
(lp3536
VLou Rosser
p3537
asS'Ann Revere'
p3538
(lp3539
VLarry Parks
p3540
aVLee J. Cobb
p3541
asS'Harriet Belinky'
p3542
(lp3543
VJohn Mills Davis
p3544
aVSamuel Evens
p3545
asS'Cecil Beard'
p3546
(lp3547
VDarling Adams
p3548
asS'Morris Carnovsky'
p3549
(lp3550
VLarry Parks
p3551
aVLee J. Col
p3552
asS'Lou Schneiderman'
p3553
(lp3554
VLou Sher
p3555
asS'Anita Whitney'
p3556
(lp3557
VLou Rosser
p3558
asS'Elias Schwarzbart'
p3559
(lp3560
VJohn Mills Davis
p3561
aVSamuel Evens
p3562
asS'Miriam Cliassen'
p3563
(lp3564
VEdith Macia
p3565
asS'Henry Meyers'
p3566
(lp3567
VDavid A. Lang
p3568
aVRobert Rossen
p3569
asS'Cyril Endfield'
p3570
(lp3571
VDavid A. Lang
p3572
asS'William S. Johnson'
p3573
(lp3574
VDorothy K. Funn
p3575
asS'William E. Oliver'
p3576
(lp3577
VAlice Bennett
p3578
aVUrcel Daniel
p3579
asS'Ole Fagerhaugh'
p3580
(lp3581
VCharles D. Blodgett
p3582
asS'Carl Swanson'
p3583
(lp3584
VAnne Kinney
p3585
asS'Jean Hedley'
p3586
(lp3587
VDickson P. Hill
p3588
asS'Oleta O Yates'
p3589
(lp3590
VOleta O'Connor
p3591
a(lp3592
VLou Rosser
p3593
aVOleta O'Connor
p3594
aasS'Loretta Starr'
p3595
(lp3596
VHarry J. Marks
p3597
asS'Robert Sloan'
p3598
(lp3599
VHarold Hecht
p3600
asS'Ruth Jennings'
p3601
(lp3602
VNicholas Campas
p3603
aVRuth Jennings
p3604
asS'Maurice Murphy'
p3605
(lp3606
VRoland W. Kibbee
p3607
a(lp3608
VLou Rosser
p3609
aVMr. Maurice Murphy
p3610
aasS'Alexander Riskin'
p3611
(lp3612
VAnne Kinney
p3613
asS'Frank Beye'
p3614
(lp3615
VAnne Kinney
p3616
asS'Frances Gordon'
p3617
(lp3618
VMrs. Harry John Mills Davis
p3619
aVMrs. Harry
p3620
aVSamuel Evens
p3621
asS'Paul Chown'
p3622
(lp3623
VDickson P. Hill
p3624
aVCharles D. Blodgett
p3625
asS'Harry Judis'
p3626
(lp3627
VEdith Macia
p3628
aVMrs. Harry Judis
p3629
aVEdith Macia
p3630
asS'David Jenkins'
p3631
(lp3632
VErnest L. Seymour
p3633
aVJames Kendall
p3634
asS'Marjorie Eisler'
p3635
(lp3636
VCharles D. Blodgett
p3637
aVBertha Grover
p3638
asS'Evelyn Weinstein'
p3639
(lp3640
VJohn Mills Davis
p3641
aVEvelyn Weinstein
p3642
asS'Opal Terry'
p3643
(lp3644
VCharles D. Blodgett
p3645
asS'Marjorie Canrlght'
p3646
(lp3647
VMrs. Norman Can
p3648
aVCharles D. Blodgett
p3649
asS'Al Yates'
p3650
(lp3651
VLou Rosser
p3652
asS'Ralph Cohen'
p3653
(lp3654
VJohn Mills Davis
p3655
aVSamuel Evens
p3656
asS'William J. Bailey'
p3657
(lp3658
VJames Kendall
p3659
asS'Charles Blacklock'
p3660
(lp3661
VCharles D. Blodgett
p3662
asS'Git Perlman'
p3663
(lp3664
VMrs. Maurice Edith Macia
p3665
asS'Mary Sherwood'
p3666
(lp3667
VDickson P. Hill
p3668
asS'Irving Myer'
p3669
(lp3670
VEdith Macia
p3671
asS'Joe Carr'
p3672
(lp3673
VEdith Macia
p3674
asS'Horace Pratt'
p3675
(lp3676
VEdith Macia
p3677
asS'Clarice Chapman'
p3678
(lp3679
VLeopold Atlas
p3680
asS'Arcus Reddock'
p3681
(lp3682
VAnne Kinney
p3683
asS'Charlotte Kyer'
p3684
(lp3685
VDickson P. Hill
p3686
asS'Lou Baron'
p3687
(lp3688
VAnne Kinney
p3689
a(lp3690
VLou Rosser
p3691
aasS'Barbara Bick'
p3692
(lp3693
VCharles D. Blodgett
p3694
asS'Margaret E. Forsyth'
p3695
(lp3696
VManning Johnson
p3697
asS'Michael Frank'
p3698
(lp3699
VEdith Macia
p3700
asS'Frank Tarloff'
p3701
(lp3702
VDavid A. Lang
p3703
aVPauline S. Townsend
p3704
asS'Marie Calloway'
p3705
(lp3706
VBertha Grover
p3707
asS'Edith Sharpe'
p3708
(lp3709
VBertha Grover
p3710
aVCharles D. Blodgett
p3711
aVWilliam D. Ames
p3712
asS'Maurice Clark'
p3713
(lp3714
VRobert Rossen
p3715
aVBart Lytton
p3716
aVDavid A. Lang
p3717
aVSol Shor
p3718
asS'Louis Geller'
p3719
(lp3720
VJohn Mills Davis
p3721
aVSamuel Evens
p3722
aVNicholas Campas
p3723
aVMr. Geller
p3724
asS'Sam Goodwin'
p3725
(lp3726
VLou Rosser
p3727
asS'Lee Coe'
p3728
(lp3729
VCharles D. Blodgett
p3730
aVWilliam D. Ames
p3731
asS'Bill Lawrence'
p3732
(lp3733
VRobert Gladnick
p3734
aVNicholas Campas
p3735
asS'Bill Williams'
p3736
(lp3737
VWilliam D. Ames
p3738
asS'Charles Gladstone'
p3739
(lp3740
VJoe Edith Macia
p3741
asS'Mrs Moos'
p3742
(lp3743
VElizabeth Herbert A. Philbrick
p3744
asS'Walter Laniliert'
p3745
(lp3746
VAnne Kiimey
p3747
aVMillard David A. Lang
p3748
aVSilvia Richards
p3749
asS'Max Bogner'
p3750
(lp3751
VAnne Kinney
p3752
asS'Ozzo Marrow'
p3753
(lp3754
VBertha Grover
p3755
asS'Bea Baron'
p3756
(lp3757
VAnne Kinney
p3758
asS'Celeste Strack'
p3759
(lp3760
VLou Rosser
p3761
asS'Jack Rackliffe'
p3762
(lp3763
VRobert Gorham Davis
p3764
aVGranville Hicks
p3765
aVDaniel J. Boorstln
p3766
aVNorman Levinsou
p3767
aVGeorge Mayberry
p3768
asS'William Bender'
p3769
(lp3770
VJohn Mills Davis
p3771
asS'Rose Bush'
p3772
(lp3773
VAnne Kinney
p3774
asS'Jack Gonzales'
p3775
(lp3776
VMary E. P. Bradsher
p3777
asS'Dirk J. Struik'
p3778
(lp3779
VWilliam T. Martin
p3780
aVIsadore Amdur
p3781
asS'Louis Ornitz'
p3782
(lp3783
VRobert Gladnick
p3784
aVN. Y.
p3785
asS'Rose Posell'
p3786
(lp3787
VLeRoy Herndon
p3788
aVAnne Kinney
p3789
asS'Holly Perlman'
p3790
(lp3791
VEdith Macia
p3792
asS'Nathan Walter Margolis'
p3793
(lp3794
VMr. Margolis
p3795
asS'Estelle Naomi Thomas'
p3796
(lp3797
VMiss Thomas
p3798
asS'Stella Gold'
p3799
(lp3800
VJohn Mills Davis
p3801
aVMrs. Irving
p3802
aVSamuel Evens
p3803
asS'Gertrude Fuller'
p3804
(lp3805
VLeopold Atlas
p3806
asS'Mrs Englehart'
p3807
(lp3808
VA. Dickson P. Hill
p3809
asS'Donald Henderson'
p3810
(lp3811
VManning Johnson
p3812
asS'Marguerite Roberts'
p3813
(lp3814
VMrs. John San
p3815
aVLeRoy Herndon
p3816
aVDavid A. Lang
p3817
aVLeopold Atlas
p3818
aVPauline S. Townsend
p3819
aVRobert Rossen
p3820
asS'Elsie Monjar'
p3821
(lp3822
VLou Rosser
p3823
aVMiss Monjar
p3824
asS'Thomas Deaoon'
p3825
(lp3826
VMr. Deacon
p3827
aVSulzberger Junior High
p3828
asS'Margaret Cowl'
p3829
(lp3830
VMargaret Und
p3831
asS'Gertrude Purcell'
p3832
(lp3833
VKapf Maurice
p3834
asS'Jack Burris'
p3835
(lp3836
VLou Rosser
p3837
asS'Edward Strong'
p3838
(lp3839
VDorothy K. Funn
p3840
asS'Adrian Scott'
p3841
(lp3842
VDavid A. Lang
p3843
aVRobert Rossen
p3844
asS'Joe McClosky'
p3845
(lp3846
VEdith Macia
p3847
asS'Ruth H. Wellnian'
p3848
(lp3849
VEdith Macia
p3850
asS'Lou Rosser'
p3851
(lp3852
VMr. Rosser
p3853
asS'Richard Frank'
p3854
(lp3855
VBella V. Dodd
p3856
asS'Lillian Gerber'
p3857
(lp3858
VEdith Macia
p3859
asS'Robert Wachsman'
p3860
(lp3861
VCharles Daggett
p3862
asS'Roy Hudson'
p3863
(lp3864
VManning Johnson
p3865
a(lp3866
VLou Rosser
p3867
aasS'Louis Green'
p3868
(lp3869
VCharles D. Blodgett
p3870
asS'Luther Morris'
p3871
(lp3872
VCharles D. Blodgett
p3873
aVBethlehem William D. Ames
p3874
asS'Mrs Lapin'
p3875
(lp3876
VEva Charles D. Blodgett
p3877
asS'Joe Young'
p3878
(lp3879
VCharles Gladstone
p3880
aVCharles Gladstone
p3881
asS'Sarah Simonsgard'
p3882
(lp3883
VAnne Kinney
p3884
asS'Reva Handle'
p3885
(lp3886
VAnne Kinney
p3887
asS'Bernard Vorhaus'
p3888
(lp3889
VRobert Rossen
p3890
asS'Hulda Johnson Flynn'
p3891
(lp3892
VMcGarvey Robert Gorham Davis
p3893
asS'Allan Bomser'
p3894
(lp3895
VEdith Macia
p3896
asS'Matilda Lewis'
p3897
(lp3898
VAnne Kinney
p3899
aVLeRoy Herndon
p3900
aVByrd Lewis
p3901
asS'Rosalind Freud'
p3902
(lp3903
VEdith Macia
p3904
asS'Frank Moskin'
p3905
(lp3906
VEdith Macia
p3907
asS'Charles Karson'
p3908
(lp3909
VEdith Macia
p3910
asS'Alan Philbrick'
p3911
(lp3912
VHarry J. Marks
p3913
asS'Victor Killian'
p3914
(lp3915
VLarry Parks
p3916
aVLee J. Cobb
p3917
asS'Ballis Blaisdell'
p3918
(lp3919
VMr. Blaisdell
p3920
asS'Funn has Mrs'
p3921
(lp3922
VMrs. Funnstated
p3923
aVMrs. Funn
p3924
asS'Cookie Wexley'
p3925
(lp3926
VPauline S. Townsend
p3927
asS'Libby Hilherman'
p3928
(lp3929
VMrs. Dave Hilber
p3930
asS'Howard Fast'
p3931
(lp3932
VPauline S. Townsend
p3933
asS'Stanley Praeger'
p3934
(lp3935
VPauline S. Townsend
p3936
aVBart Lytton
p3937
asS'Hilda Woods'
p3938
(lp3939
VDickson P. Hill
p3940
asS'Sadie Doran'
p3941
(lp3942
VJack Davis
p3943
asS'Adele Young'
p3944
(lp3945
VLou Rosser
p3946
asS'Frank Parsons'
p3947
(lp3948
VDickson P. Hill
p3949
aVMary E. P. Bradsher
p3950
aVBertha Grover
p3951
asS'Anne Witkowski'
p3952
(lp3953
VEdith Macia
p3954
asS'Sam Gelfand'
p3955
(lp3956
VAnne Kinney
p3957
asS'Robert Treuhaft'
p3958
(lp3959
VCharles D. Blodgett
p3960
asS'Hugh Bryson'
p3961
(lp3962
VLou Rosser
p3963
aVJim James Kendall
p3964
asS'Ann Roth Richards'
p3965
(lp3966
VMrs. Rob
p3967
aVRobert Rossen
p3968
aVBart Lytton
p3969
aVLeopold Atlas
p3970
aVPauline S. Townsend
p3971
aVBabbette Lang
p3972
aVDavid A. Lang
p3973
asS'George McLean'
p3974
(lp3975
VAnne Kinney
p3976
asS'Dorothy Pezman'
p3977
(lp3978
VAnne Kinney
p3979
asS'Dave Hedley'
p3980
(lp3981
VLou Rosser
p3982
asS'George Edwards'
p3983
(lp3984
VDickson P. Hill
p3985
aVCharles D. Blodgett
p3986
aVWilliam D. Ames
p3987
asS'Joe Lynch'
p3988
(lp3989
VErnest L. Seymour
p3990
asS'David Perloff'
p3991
(lp3992
VMr. Perloff
p3993
aVAbraham Lincoln
p3994
asS'Florence McDonald'
p3995
(lp3996
VEdith Macia
p3997
asS'Samuel Sillen'
p3998
(lp3999
VRobert Gorham Davis
p4000
as.