(dp0
S'Harry Tarnoff'
p1
(lp2
VAnne Kinney
p3
asS'Sarah Oilman'
p4
(lp5
VSarah Dorothy K. Funn
p6
aVGilman Rosenblatt
p7
asS'Jody Gilbert'
p8
(lp9
VHarvey Narcisenfeld
p10
asS'Harrie Woods'
p11
(lp12
VDickson P. Hill
p13
asS'Morris Karson'
p14
(lp15
VEdith Macia
p16
asS'Martin Hall'
p17
(lp18
VHerman Benjamin Gitlow
p19
asS'Jay Riibiu'
p20
(lp21
VNicholas Campas
p22
aVJack Davis
p23
aVJack Davis
p24
aVJay Rubin
p25
asS'Dan James'
p26
(lp27
VDavid A. Lang
p28
aVPauline S. Townsend
p29
aVBart Lytton
p30
asS'Maurice Braverman'
p31
(lp32
VDorothy K. Funn
p33
asS'Gertrude Pmcell'
p34
(lp35
VPaul Benedict Mar. 12
p36
aVMr. Radin
p37
asS'Madelaine Ruthven'
p38
(lp39
VHarold Hecht
p40
aVDavid A. Lang
p41
aVPauline S. Townsend
p42
aVRobert Rossen
p43
asS'John Poziomek'
p44
(lp45
VJohn John Mills Davis
p46
aVSamuel Evens
p47
asS'IVIrs. Sarah Kaufman'
p48
(lp49
VJohn Mills Davis
p50
aVSamuel Evens
p51
asS'Bess Taffel'
p52
(lp53
VDavid A. Lang
p54
aVLeopold Atlas
p55
asS'Jerome Robinson'
p56
(lp57
VJerome Rob
p58
asS'Ned Young'
p59
(lp60
VMr. Young
p61
asS'Myrtle Wixman'
p62
(lp63
VAnne Kinney
p64
asS'Clement Wilenchick'
p65
(lp66
VMr. Wilen
p67
asS'Irene Short'
p68
(lp69
VNicholas Campas
p70
aVIrene Short
p71
asS'Ann R Morgan'
p72
(lp73
VAnn Roth Richards
p74
asS'Anna Brickman'
p75
(lp76
VJohn Mills Davis
p77
aVSamuel Evens
p78
asS'Allen L Ryan'
p79
(lp80
VAnne Kinney
p81
asS'Beniard Young'
p82
(lp83
VCharles D. Blodgett
p84
asS'Angus Wooley'
p85
(lp86
VPauline S. Townsend
p87
asS'William Greenstein'
p88
(lp89
VMr. Green
p90
asS'Helen Lima'
p91
(lp92
VCharles D. Blodgett
p93
asS'Harry Gordon'
p94
(lp95
VHarry John Mills Davis
p96
aVSamuel Evens
p97
asS'Albert Maltz'
p98
(lp99
VHarold Hecht
p100
aVMax Benoff
p101
aVLeopold Atlas
p102
aVBabbette Lang
p103
asS'Edith Hershey'
p104
(lp105
VEdith Macia
p106
asS'Marian Redner'
p107
(lp108
VMarian Mary E. P. Bradsher
p109
asS'Leo Gerstinheim'
p110
(lp111
VNicholas Campas
p112
aVMr. Gerstinheim
p113
asS'Beruyce P Fleury'
p114
(lp115
VMrs. Fleury
p116
asS'Archie. Brown'
p117
(lp118
VRobert Gladnick
p119
asS'Joseph J. Posell'
p120
(lp121
VAnne Kinney
p122
asS'Carl Andren'
p123
(lp124
VMr. Andren
p125
asS'Dorothy Loeb'
p126
(lp127
VDorothy Nicholas Campas
p128
aVJoseph Klein
p129
asS'Charles Reichman'
p130
(lp131
VEdith Macia
p132
asS'Mr. Coleman'
p133
(lp134
VEdna Rosen
p135
aVDorothy K. Funn
p136
asS'Jane Callender'
p137
(lp138
VEdith Macia
p139
asS'Herbert Parker'
p140
(lp141
VNicholas Campas
p142
asS'Nina Klowden'
p143
(lp144
VDwight Hauser
p145
aVRoy Erwin
p146
aVCariu Kinzel
p147
asS'Billie Norman'
p148
(lp149
VEdith Macia
p150
asS'Estelle N Thomas'
p151
(lp152
VMiss Thomas
p153
asS'Donald Murray'
p154
(lp155
VAnne Kinney
p156
asS'Leslie Edgley'
p157
(lp158
VPauline S. Townsend
p159
asS'Bert Stone'
p160
(lp161
VAnne Kinney
p162
asS'Rose Malloy'
p163
(lp164
VEdith Macia
p165
asS'Harry Jackson'
p166
(lp167
VLou Rosser
p168
asS'Henry Hudson'
p169
(lp170
VEdith Macia
p171
asS'Gertrude Evans'
p172
(lp173
VDorothy K. Funn
p174
asS'Dave Teitelbaum'
p175
(lp176
VJames Kendall
p177
aVS. S. Alice E. Rice
p178
asS'Anne Froelich'
p179
(lp180
VLeopold Atlas
p181
asS'Walter Stack'
p182
(lp183
VLou Rosser
p184
aVJames Kendall
p185
asS'Abraham L Polonsky'
p186
(lp187
VLeopold Atlas
p188
asS'Carl Brandt'
p189
(lp190
VLou Rosser
p191
asS'Tassia Freed'
p192
(lp193
VAnne Kinney
p194
asS'Fred Biedenkapp'
p195
(lp196
VManning Johnson
p197
asS'Neil Crowe'
p198
(lp199
VErnest L. Seymour
p200
aVJames Kendall
p201
asS'Anya Lieberson'
p202
(lp203
VAnne Kinney
p204
asS'Louise Rousseau'
p205
(lp206
VDavid A. Lang
p207
aVMrs. Sam Rubin
p208
aVEdith Macia
p209
asS'William Wolff'
p210
(lp211
VCarin Kinzel
p212
asS'Georgia Backus'
p213
(lp214
VCarin Kinzel
p215
aVRobert Rossen
p216
aVDwight Hauser
p217
aVSilvia Richards
p218
aVRoy Erwin
p219
asS'Theodora Goldstein'
p220
(lp221
VHerbert Philbrick
p222
asS'Miriam Brooks'
p223
(lp224
VAnne Kinney
p225
asS'Johnny Cole'
p226
(lp227
VLeopold Atlas
p228
asS'Joseph Springer'
p229
(lp230
VRobert Gladnick
p231
aVJoe Saul
p232
asS'Molly Young'
p233
(lp234
VSilvia Richards
p235
asS'June Naboisek'
p236
(lp237
VMary E. P. Bradsher
p238
asS'Edna Ocko'
p239
(lp240
VJerome Robbins
p241
asS'Herschel Alexander'
p242
(lp243
VLou Rosser
p244
aVCharles D. Blodgett
p245
aVWilliam D. Ames
p246
asS'Joseph. Klein'
p247
(lp248
VJoseph Nicholas Campas
p249
asS'Daniel Fine'
p250
(lp251
VPeter Bent
p252
asS'Jay Gorney'
p253
(lp254
VPauline S. Townsend
p255
aVBart Lytton
p256
asS'Dildar Sanduw'
p257
(lp258
VDickson P. Hill
p259
aVDildar Sandow
p260
asS'Peter Stein'
p261
(lp262
VMr. Stein
p263
asS'John Delgado'
p264
(lp265
VCharles D. Blodgett
p266
asS'Jack Chassen'
p267
(lp268
VEdith Macia
p269
asS'Fanny Lehman'
p270
(lp271
VCharles D. Blodgett
p272
aVWilliam D. Ames
p273
asS'Doreen Holtz'
p274
(lp275
VEdith Macia
p276
asS'Mike Yarman'
p277
(lp278
VNicholas Campas
p279
asS'William Bottcher'
p280
(lp281
VJohn Mills Davis
p282
aVSamuel Ehens
p283
asS'Steve Oleksink'
p284
(lp285
VEdith Macia
p286
asS'Mortimer Offner'
p287
(lp288
VDavid A. Lang
p289
aVSol Shor
p290
asS'Marjorie MacGregor'
p291
(lp292
VMrs. Arnold Pauline S. Townsend
p293
asS'Charles Pfeiffer'
p294
(lp295
VLou Rosser
p296
asS'Sam Cloner'
p297
(lp298
VDarling Adams
p299
asS'Max Weitzman'
p300
(lp301
VHerbert Philbrick
p302
asS'George Blake'
p303
(lp304
VJohn Mills Davis
p305
asS'Martha Fletcher'
p306
(lp307
VMrs. Harold A. Flet
p308
aVHerbert A. Philbrick
p309
asS'Duncan Keir'
p310
(lp311
VJames Kendall
p312
aVMr. Keir
p313
asS'Benjamin D Anton'
p314
(lp315
VMr. Anton
p316
asS'Esther Goodman'
p317
(lp318
VLou Rosser
p319
asS'Harry Kramer'
p320
(lp321
VCharles D. Blodgett
p322
asS'Al Brown'
p323
(lp324
VCharles D. Blodgett
p325
asS'Dick Criley'
p326
(lp327
VLou Rosser
p328
asS'Langston Hughes'
p329
(lp330
VManning Johnson
p331
asS'Herbert Biberman'
p332
(lp333
VLeopold Atlas
p334
aVRoland W. Kibbee
p335
aVHarold Hecht
p336
aVGertrude Purcell
p337
asS'Gale Sondergaard'
p338
(lp339
VMrs. Herbert Biber
p340
aVLarry Parks
p341
aVLee J. Cobb
p342
asS'Evelyn Hanson'
p343
(lp344
VCharles D. Blodgett
p345
asS'Herb Kalman'
p346
(lp347
VDickson P. Hill
p348
aVBertha Grover
p349
aVErnest L. Seymour
p350
asS'Alex Treskiu'
p351
(lp352
VDickson P. Hill
p353
asS'James F Wood'
p354
(lp355
VDickson P. Hill
p356
aVWilliam D. Ames
p357
asS'John H Reynolds'
p358
(lp359
VRobert Gorham Davis
p360
aVWilliam T. Martin
p361
aVNorman Levinson
p362
asS'Albert R Williams'
p363
(lp364
VBenjamin Gitlow
p365
asS'Norma Barzman'
p366
(lp367
VPauline S. Townsend
p368
asS'Guy Endore'
p369
(lp370
VRobert Rossen
p371
aVDavid A. Lang
p372
aVLeopold Atlas
p373
aVBabbette Lang
p374
asS'Neil Hignian'
p375
(lp376
VAnne Kinney
p377
asS'Sondra Gorney'
p378
(lp379
VPauline S. Townsend
p380
asS'INIrs. Alvah Bessie'
p381
(lp382
VLeopold Atlas
p383
asS'Myrtle Rohr'
p384
(lp385
VEdith Macia
p386
asS'Ann Howe'
p387
(lp388
VAnne Kinney
p389
asS'Jack Montgomery'
p390
(lp391
VLou Rosser
p392
asS'Jules Keivetz'
p393
(lp394
VLou Rosser
p395
asS'Harry Shepro'
p396
(lp397
VLeroy Herndon
p398
aVRichard Byrd Lewis
p399
aVAnne Kinney
p400
asS'Ruth Finkelstein'
p401
(lp402
VDorothy K. Funn
p403
asS'Mildred Flacks'
p404
(lp405
VDorothy K. Funn
p406
asS'Katrina Manley'
p407
(lp408
VDickson P. Hill
p409
aVBertha Grover
p410
asS'Rena Dodd'
p411
(lp412
VJack Davis
p413
aVJohn Mills Davis
p414
aVSamuel Evens
p415
asS'Henry Beitscher'
p416
(lp417
VDorothy K. Funn
p418
asS'Hy Alexander'
p419
(lp420
VCarin Kinzel
p421
aVSilvia Kiohards
p422
aVDwight Hauser
p423
asS'Dalton Trmiibo'
p424
(lp425
VDavid A. Lang
p426
aVMax Benoff
p427
aVLeopold Atlas
p428
aVRobert Rossen
p429
asS'Clarence Carr'
p430
(lp431
VNicholas Campas
p432
aVJack Davis
p433
asS'George Bratoff'
p434
(lp435
VDickson P. Hill
p436
asS'Mary Bindley'
p437
(lp438
VEdith Macia
p439
asS'Preston Hill'
p440
(lp441
VLou Rosser
p442
asS'Helen Mallof'
p443
(lp444
VAnne Kinney
p445
asS'Freddie Walker'
p446
(lp447
VBertha Grover
p448
asS'Matt Vidaver'
p449
(lp450
VSilvia Richards
p451
asS'Honor Carey'
p452
(lp453
VMoxley LeRoy Herndon
p454
aVRichard Byrd Lewis
p455
aVAnne Kinney
p456
aVAime Kinney
p457
asS'Bob Cohn'
p458
(lp459
VAnne Kinney
p460
a(lp461
VLou Rosser
p462
aasS'Hy Gordon'
p463
(lp464
VRobert Gorham Davis
p465
aVRobert Gladnick
p466
asS'Milton Casluier'
p467
(lp468
VAnne Kinney
p469
asS'Frank Franks'
p470
(lp471
VCharles D. Blodgett
p472
asS'Goodman Brudney'
p473
(lp474
VCharles D. Blodgett
p475
asS'Martin Chancey'
p476
(lp477
VDorothy K. Funn
p478
asS'Bobbie Karson'
p479
(lp480
VEdith Macia
p481
asS'Peter Chaunt'
p482
(lp483
VManning Johnson
p484
aVN. Y.
p485
asS'Richard B Lewis'
p486
(lp487
VBart Mar.
p488
asS'Jessie Carufo'
p489
(lp490
VBabbette Lang
p491
asS'John Wright'
p492
(lp493
VNicholas Campas
p494
aVJack Davis
p495
aVJohn Mills Davis
p496
aVSamuel Evens
p497
asS'Selma Lahne'
p498
(lp499
VNicholas Campas
p500
asS'Joe Eisler'
p501
(lp502
VCharles D. Blodgett
p503
aVBertha Grover
p504
asS'Lester Fuller'
p505
(lp506
VLeopold Atlas
p507
aVRobert Rossen
p508
asS'Bob Raven'
p509
(lp510
VRobert Gladnick
p511
asS'Carl Hacker'
p512
(lp513
VNicholas Campas
p514
aVJack Davis
p515
asS'Ian Hunter'
p516
(lp517
VRobert Rossen
p518
asS'Adam Lapin'
p519
(lp520
VCharles D. Blodgett
p521
asS'Beulah Wales'
p522
(lp523
VAnne Kinney
p524
asS'Frieda Schweukmyer'
p525
(lp526
VNicholas Campas
p527
aVJack Davis
p528
asS'Tom Chapman'
p529
(lp530
VLeopold Atlas
p531
asS'Joe Koide'
p532
(lp533
VMr. Koide
p534
asS'Richard Schlatter'
p535
(lp536
VMr. Schlatter
p537
asS'Jack Wetherwax'
p538
(lp539
VAnne Kinney
p540
asS'Eugene Eagle'
p541
(lp542
VDickson P. Hill
p543
asS'David Kinkead'
p544
(lp545
VDickson P. Hill
p546
asS'Bjorne Halliug'
p547
(lp548
VErnest L. Seymour
p549
asS'Saul Friedburg'
p550
(lp551
VHarry J. Marks
p552
aVMr. Friedburg
p553
asS'Rob Hall'
p554
(lp555
VDorothy K. Funn
p556
asS'Harold Klein'
p557
(lp558
VNicholas Campas
p559
aVJohn Mills Davis
p560
aVSamuel Evens
p561
asS'Bill Rutter'
p562
(lp563
VDickson P. Hill
p564
asS'Stanley Chapman'
p565
(lp566
VDorothy K. Funn
p567
asS'William Schneiderman'
p568
(lp569
VDavid A. Lang
p570
aVAnne Kinney
p571
asS'Mason Roberson'
p572
(lp573
VCharles D. Blodgett
p574
asS'Jack Manley'
p575
(lp576
VDickson P. Hill
p577
asS'Leo Bigelman'
p578
(lp579
VDennis Robert Rossen
p580
aVAnne Kinney
p581
aVPauline S. Townsend
p582
asS'Lew Scott'
p583
(lp584
VAnne Kinney
p585
asS'Bob Chasson'
p586
(lp587
VLou Rosser
p588
aVMr. Chasson
p589
asS'Hannah Shapiro'
p590
(lp591
VJohn Mills Davis
p592
aVSamuel Evens
p593
asS'Al Heltness'
p594
(lp595
VAnne Kinney
p596
asS'Ann Revere'
p597
(lp598
VLarry Parks
p599
aVLee J. Cobb
p600
asS'Rose Sharf'
p601
(lp602
VEdith Macia
p603
aVMrs. Dave Sharf
p604
asS'Luke Hinman'
p605
(lp606
VRoland W. Kibbee
p607
aVB. Edith Macia
p608
asS'Marcella Avnet'
p609
(lp610
VDorothy K. Funn
p611
asS'Bill Norman'
p612
(lp613
VBella V. Dodd
p614
aVSteve Miller
p615
aVBella V. Dodd
p616
aVRobert Gladnick
p617
aVManning Johnson
p618
asS'Robert Rutman'
p619
(lp620
VMr. Rutman
p621
asS'Vera Roberts'
p622
(lp623
VCharles D. Blodgett
p624
aVJames Kendall
p625
aVMr. Robertson
p626
asS'Marian Shire'
p627
(lp628
VAnne Kinney
p629
asS'William Schneidernian'
p630
(lp631
VLou Rosser
p632
aVCharles D. Blodgett
p633
asS'Paul Heide'
p634
(lp635
VLou Rosser
p636
aVDickson P. Hill
p637
aVCharles D. Blodgett
p638
asS'Nina Oster'
p639
(lp640
VEdith Macia
p641
asS'Mary Shaw'
p642
(lp643
VPauline S. Townsend
p644
asS'Daniel B Schirmer'
p645
(lp646
VHarry J. Marks
p647
asS'Cliff Stice'
p648
(lp649
VEdith Macia
p650
asS'John Wexley'
p651
(lp652
VDavid A. Lanir
p653
aVPauline S. Townsend
p654
aVBart Lytton
p655
aVRobert Rossen
p656
asS'Charles Klare'
p657
(lp658
VMr. Klare
p659
asS'Howard Koch'
p660
(lp661
VLester David A. Lang
p662
aVJoe Charlotte Darling Adams
p663
asS'James Drake'
p664
(lp665
VJames Kendall
p666
asS'George V Frederick'
p667
(lp668
VDickson P. Hill
p669
aVMary E. P. Bradsher
p670
asS'Evelyn Goldistein'
p671
(lp672
VMrs. Nathan Gold
p673
aVJohn Mills Davis
p674
aVSamuel Evens
p675
asS'Hugo Butler'
p676
(lp677
VRobert Rossen
p678
aVDavid A. Lang
p679
aVSol Shor
p680
asS'Estelle Saul'
p681
(lp682
VBabbette Lang
p683
asS'Abe Gelbart'
p684
(lp685
VWilliam T. Martin
p686
aVIsadore Amdur
p687
aVNorman Levinson
p688
asS'Bill Lowe'
p689
(lp690
VDickson P. Hill
p691
aVWilliam D. Ames
p692
asS'Max Gordon'
p693
(lp694
VNicholas Campas
p695
aVJack Davis
p696
asS'Walter Green'
p697
(lp698
VDickson P. Hill
p699
aVCharles D. Blodgett
p700
aVWilliam D. Ames
p701
asS'Harvey Narcisenfeld'
p702
(lp703
VMr. Narcisenfeld
p704
asS'Harriet Bouslog'
p705
(lp706
VDorothy K. Funn
p707
asS'John Doberty'
p708
(lp709
VEdith Macia
p710
asS'Willie Schulz'
p711
(lp712
VNicholas Campas
p713
aVJack Davis
p714
asS'Nathan Rosen'
p715
(lp716
VIsadora Amdur
p717
asS'Bertram Edises'
p718
(lp719
VCharles D. Blodgett
p720
asS'Morris Salz'
p721
(lp722
VDorothy K. Fram
p723
aVDoTotbj K. Fram
p724
asS'Ernest L Seymour'
p725
(lp726
VMr. Seymour
p727
asS'Doris Roberson'
p728
(lp729
VWalker Dickson P. Hill
p730
asS'Emil Freed'
p731
(lp732
VAnne Kinney
p733
asS'Bob Pate'
p734
(lp735
VEdith Macia
p736
asS'George Sklar'
p737
(lp738
VDavid A. Lang
p739
asS'Eddie Fisher'
p740
(lp741
VAnne Kinney
p742
a(lp743
VAnya Lieber
p744
aasS'George Tyne'
p745
(lp746
VLee J. Cobb
p747
asS'Martha McMullen'
p748
(lp749
VMrs. Dickson P. Hill
p750
aVLouis McMullen
p751
asS'Elizabetb Barlow'
p752
(lp753
VMrs. Edward Bar
p754
aVDickson P. Hill
p755
aVWilliam D. Ames
p756
aVBertha Grover
p757
asS'John Dicho'
p758
(lp759
VEdith Macia
p760
asS'Max Posey'
p761
(lp762
VLou Rosser
p763
asS'Fred Rinaldo'
p764
(lp765
VPauline S. Townsend
p766
aVRobert Rossen
p767
asS'Moe Finklestein'
p768
(lp769
VBella V. Dodd
p770
asS'Andreas Dinam'
p771
(lp772
VPauline S. Townsend
p773
asS'Wayne Hultgren'
p774
(lp775
VDickson P. Hill
p776
aVWilliam D. Ames
p777
asS'Luther Morris'
p778
(lp779
VCharles D. Blodgett
p780
aVBethlehem William D. Ames
p781
asS'Kathleen Hee'
p782
(lp783
VGriffith Charles D. Blodgett
p784
asS'Jack Moore'
p785
(lp786
VAnne Kinney
p787
asS'Clara Riebej'
p788
(lp789
VDorothy K. Fiinu
p790
aVMaurice Dorothy K. Fu-n
p791
asS'Bernard Lusher'
p792
(lp793
VMr. Lusher
p794
asS'Sid Hoff'
p795
(lp796
VRobert Gladnick
p797
asS'Carl Winter'
p798
(lp799
VAnne Kinney
p800
aVPauline S. Townsend
p801
asS'Ted Kalman'
p802
(lp803
VBertha Grover
p804
aVWilliam D. Ames
p805
asS'Sara Kusiiitz'
p806
(lp807
VEdith Macia
p808
aVAnne Kinney
p809
asS'Cleveland Hearn'
p810
(lp811
VCharles D. Blodgett
p812
asS'Gus Browne'
p813
(lp814
VEdith Macia
p815
asS'Bill Danzig'
p816
(lp817
VCharles D. Blodgett
p818
asS'Calvin Batiste'
p819
(lp820
VBertha Grover
p821
asS'Kicliard Goodwin'
p822
(lp823
VRobert Gorham Davis
p824
aVDaniel J. Boorstin
p825
aVRobert Gorliam Davis
p826
aVMr. Goodwin
p827
asS'Harry Tanner'
p828
(lp829
VBabbette Lang
p830
asS'Dorothy Comingore'
p831
(lp832
VDavid A. Lang
p833
asS'Carl Hanson'
p834
(lp835
VCharles D. Blodgett
p836
aVBertha Grover
p837
aVWilliam D. Ames
p838
asS'Charlie Busk'
p839
(lp840
VBertha Grover
p841
asS'Maureen Ryan'
p842
(lp843
VAnne Kinney
p844
asS'Rose Segure'
p845
(lp846
VAnne Kinney
p847
a(lp848
VCharles D. Blodgett
p849
aasS'John Bevins'
p850
(lp851
VAnne Kinney
p852
asS'Arthur Strawn'
p853
(lp854
VLeopold Atlas
p855
asS'Edwina Pomerance'
p856
(lp857
VDarling Adams
p858
aVPauline S. Townsend
p859
asS'Ed Robbins'
p860
(lp861
VAnne Kinney
p862
asS'Jerome Chodorov'
p863
(lp864
VJerome Robbins
p865
asS'Warner Calloway'
p866
(lp867
VBertha Grover
p868
asS'Elizabeth Grant'
p869
(lp870
VMrs. Morton Leopold Atlas
p871
asS'Archie Brown'
p872
(lp873
VLou Rosser
p874
aVCharles D. Blodgett
p875
aVErnest L. Seymour
p876
asS'Marie Calloway'
p877
(lp878
VBertha Grover
p879
asS'Martin Mackie'
p880
(lp881
VCharles D. Blodgett
p882
asS'Dorothy Anhattzer'
p883
(lp884
VEdith Macia
p885
asS'Isadore Reivich'
p886
(lp887
VMr. Reivich
p888
asS'Bimbo Brown'
p889
(lp890
VDickson P. Hill
p891
aVMary E. P. Bradsher
p892
asS'Michael Wilson'
p893
(lp894
VDavid A. Lang
p895
aVBabbette Lang
p896
asS'Jean Rand'
p897
(lp898
VLou Rosser
p899
aVJean Rand
p900
asS'Frauces Capelle'
p901
(lp902
VBertha Grover
p903
aVBast Oakland Dickson P. Hill
p904
aVWilliam D. Ames
p905
asS'David Saunders'
p906
(lp907
VJames Kendall
p908
aVS. S. Alice H. Rice
p909
asS'Albert Blumberg'
p910
(lp911
VDorothy K. Funn
p912
asS'Sam Ornitz'
p913
(lp914
VDavid A. Lang
p915
aVRoland W. Kibbee
p916
aVBabbette Lang
p917
asS'Byron T Darling'
p918
(lp919
VRobert Bush
p920
aVCharles Gainor
p921
aVEdward Gewirts
p922
asS'Tiba Willner'
p923
(lp924
VSilvia Richards
p925
aVBabbette Lang
p926
asS'Vern Anthony'
p927
(lp928
VEdith Macia
p929
asS'Ann Rotti'
p930
(lp931
VAnn Roth Morgan
p932
asS'Joan Place'
p933
(lp934
VAnne Kinney
p935
asS'John Spears'
p936
(lp937
VAnne Kinney
p938
asS'George Shaffer'
p939
(lp940
VAnne Kinney
p941
asS'Billie Wachter'
p942
(lp943
VDickson P. Hill
p944
aVWilliam D. Ames
p945
asS'Ralph Johnson'
p946
(lp947
VCharles D. Blodgett
p948
asS'Bertha Bargeman'
p949
(lp950
VMrs. Marvin David A. Lang
p951
asS'George Sandy'
p952
(lp953
VAnne Kinney
p954
asS'Samuel Stember'
p955
(lp956
VRobert Gladnick
p957
aVAbraham Lin
p958
asS'Jules Carson'
p959
(lp960
VAnne Kinney
p961
a(lp962
VCharles D. Blodgett
p963
aasS'Rudy Baker'
p964
(lp965
VJoe Koide
p966
asS'Sam Kramberg'
p967
(lp968
VNicholas Campas
p969
asS'Mildred Grossman'
p970
(lp971
VDorothy K. Funn
p972
asS'Jack Fox'
p973
(lp974
VAnne Kinney
p975
aVDavida Anne Kinney
p976
aVMrs. Fred Franchi
p977
asS'Margaret Nelson'
p978
(lp979
VLou Rosser
p980
asS'Harry C. Steinmetz'
p981
(lp982
VAnne Kinney
p983
aVStevens Clara Anne Kinney
p984
asS'Aubrey Grossman'
p985
(lp986
VDickson P. Hill
p987
aVLou Rosser
p988
aVMr. Grossman
p989
asS'Trudy Peck'
p990
(lp991
VHarold Hecht
p992
asS'Ferdinand C Smith'
p993
(lp994
VK. Frmn
p995
asS'Lou. Schneiderman'
p996
(lp997
VLou Sher
p998
asS'Al Lewis'
p999
(lp1000
VAnne Kinney
p1001
aVRichard Byrd Lewis
p1002
asS'Salvatore Gentilli'
p1003
(lp1004
VJack Davis
p1005
asS'Casey Gurewitz'
p1006
(lp1007
VDorothy K. Funn
p1008
asS'Fanny Emer'
p1009
(lp1010
VEdith Macia
p1011
asS'Clara Davis'
p1012
(lp1013
VSamuel Evens
p1014
asS'Bill Gandall'
p1015
(lp1016
VRobert Gladnick
p1017
asS'Helen Jacobson'
p1018
(lp1019
VJohn Mills Davis
p1020
asS'Andrew Mays'
p1021
(lp1022
VBertha Grover
p1023
asS'William T. Parry'
p1024
(lp1025
VRobert Gorham Davis
p1026
asS'Clariua Michelson'
p1027
(lp1028
VManning Johnson
p1029
asS'Ruby Heide'
p1030
(lp1031
VDickson P. Hill
p1032
aVCharles D. Blodgett
p1033
asS'William Winston'
p1034
(lp1035
VSamuel Evens
p1036
asS'Art Shields'
p1037
(lp1038
VDorrhy K. Fttttj
p1039
asS'Carl Brodsky'
p1040
(lp1041
VJohn Mills Davis
p1042
asS'Cedric H Belfrage'
p1043
(lp1044
VMr. Belfrage
p1045
asS'Joe Rohr'
p1046
(lp1047
VEdith Macia
p1048
asS'Sam Rossen'
p1049
(lp1050
VLarry Parks
p1051
asS'Allen. Yates'
p1052
(lp1053
VAnne Kinney
p1054
asS'Israel Halperin'
p1055
(lp1056
VRobert Gorham Davis
p1057
aVGranville Hicks
p1058
aVDaniel J. Boorstin
p1059
aVWilliam T. Martin
p1060
aVLouis Robert Gorham Davis
p1061
aVGranville Hicks
p1062
aVGeorge Mayberry
p1063
aVHerbert Robbins
p1064
asS'Georgia Burns'
p1065
(lp1066
VHarold Hecht
p1067
asS'Marjorie Robinson'
p1068
(lp1069
VEdith Macia
p1070
asS'Al Kaplan'
p1071
(lp1072
VLou Rosser
p1073
asS'Sam Telford'
p1074
(lp1075
VJames Kendall
p1076
aVS. S. Alice H. Rice
p1077
asS'Lawn Brooks'
p1078
(lp1079
VEdith Macia
p1080
asS'Hoyt Haddock'
p1081
(lp1082
VDorothy K. Funn
p1083
asS'Fred Ball'
p1084
(lp1085
VMr. Ball
p1086
asS'Desired Ball'
p1087
(lp1088
VMrs. Ball
p1089
asS'Laurie Blankfort'
p1090
(lp1091
VDavid A. Lang
p1092
asS'Paul McVey'
p1093
(lp1094
VDwight Hauser
p1095
aVRoy Erwin
p1096
aVMr. Dwight Hauser
p1097
aVCarin Kinzel
p1098
aVPaul McVey
p1099
a(lp1100
VRoy Erwin
p1101
aasS'Larry Levy'
p1102
(lp1103
VHarry J. Marks
p1104
asS'Gordon Williams'
p1105
(lp1106
VDickson P. Hill
p1107
aVCharles D. Blodgett
p1108
asS'Ben Olson'
p1109
(lp1110
VSilvia Richards
p1111
asS'Ethel Claibourne'
p1112
(lp1113
VMrs. Sidney Clai
p1114
aVCharles D. Blodgett
p1115
asS'Phoebe Brand'
p1116
(lp1117
VMrs. Morris Carnov
p1118
aVLee J. Cobb
p1119
asS'Morton Grant'
p1120
(lp1121
VRobert Rossen
p1122
aVDavid A. Lang
p1123
aVLeopold Atlas
p1124
asS'Lucy Arnold'
p1125
(lp1126
VAnne Kinney
p1127
asS'Sadie Dawson'
p1128
(lp1129
VEdith Macia
p1130
asS'David. Wolfe'
p1131
(lp1132
VHerman Wald
p1133
asS'Louis Ivens'
p1134
(lp1135
VMr. Ivens
p1136
asS'Alfred Wagenknecht'
p1137
(lp1138
VManning Johnson
p1139
asS'Henry Blankfort'
p1140
(lp1141
VRobert Rossen
p1142
aVCarin Kinzel
p1143
aVDavid A. Lang
p1144
aVDwight Hauser
p1145
asS'Ida Wood'
p1146
(lp1147
VDickson P. Hill
p1148
asS'Hulda J Flynn'
p1149
(lp1150
VRees McGarvey Robert Gorham Davis
p1151
asS'Tillie OlelvSiuk'
p1152
(lp1153
VEdith Macia
p1154
asS'Charlie White'
p1155
(lp1156
VLeonard Patterson
p1157
aVMr. White
p1158
asS'Funn Dorothy K'
p1159
(lp1160
VJackRichard McMichael
p1161
a(lp1162
VMrs. Funn
p1163
aVMr. Rosser
p1164
aasS'Elaine Gonda'
p1165
(lp1166
VCarlin Kinzel
p1167
asS'Wilhelmina Maise'
p1168
(lp1169
VAnne Kinney
p1170
asS'John Matsuto'
p1171
(lp1172
VAnne Kinney
p1173
asS'Theodore S. Polumbaum'
p1174
(lp1175
VMr. Polum
p1176
asS'Paul Cline'
p1177
(lp1178
VCharles H. Garrigues
p1179
aVAnne Kinney
p1180
a(lp1181
VLou Rosser
p1182
aasS'Joe Kline'
p1183
(lp1184
VEdith Macia
p1185
asS'Rude Lambert'
p1186
(lp1187
VDickson P. Hill
p1188
asS'Lloyd Seeliger'
p1189
(lp1190
VLou Rosser
p1191
asS'Michael Uris'
p1192
(lp1193
VDavid A. Lang
p1194
aVRobert Rossen
p1195
asS'Herbert Davis'
p1196
(lp1197
VHerbert Goldfrank
p1198
asS'Carroll Barnes'
p1199
(lp1200
VDickson P. Hill
p1201
asS'Marvin Bargeman'
p1202
(lp1203
VDavid A. Lang
p1204
asS'Lou Solomon'
p1205
(lp1206
VDavid A. Lang
p1207
aVPauline S. Townsend
p1208
aVRobert Rossen
p1209
asS'Edward Nolan'
p1210
(lp1211
VZachary Schwartz
p1212
aVListon Benjamin Gitlow
p1213
asS'H Alexander'
p1214
(lp1215
VSilvia Richards
p1216
aVLeopold Atlas
p1217
aVPauline S. Townsend
p1218
aVMrs. Louis
p1219
aVSilvia Richards
p1220
asS'Al White'
p1221
(lp1222
VMary E. P. Bradsher
p1223
asS'Cone C. YouuK'
p1224
(lp1225
VLou Rosser
p1226
asS'Michael Dworkin'
p1227
(lp1228
VJohn Mills Davis
p1229
aVSanuiel Evens
p1230
asS'Ruth Oser'
p1231
(lp1232
VBabbette Lang
p1233
asS'Rather Party'
p1234
(lp1235
VRobert Gladnick
p1236
aVMr. Gladnick
p1237
asS'Nicholas Bela'
p1238
(lp1239
VDavid A. Lang
p1240
aVPauline S. Townsend
p1241
asS'Calvin Cousins'
p1242
(lp1243
VDorothy K. Funn
p1244
asS'Elizabeth Leech'
p1245
(lp1246
VAnne Kinney
p1247
aVPauline S. Townsend
p1248
aVBart Lytton
p1249
asS'Richard Younce'
p1250
(lp1251
VCharles D. Blodgett
p1252
asS'Leo M. Hurvich'
p1253
(lp1254
VMr. Hurvich
p1255
aVN. Y.
p1256
asS'Lena Wiena'
p1257
(lp1258
VEdith Macia
p1259
asS'Miriam Chown'
p1260
(lp1261
VDickson P. Hill
p1262
asS'Helen Samuels'
p1263
(lp1264
VEdith Macia
p1265
asS'Serrill Gerber'
p1266
(lp1267
VEdith Macia
p1268
aVLou Rosser
p1269
a(lp1270
VLou Rosser
p1271
aVMr. Gerber
p1272
aasS'Ann White'
p1273
(lp1274
VEdith Macia
p1275
asS'Shirley Taylor'
p1276
(lp1277
VDorothy K. Funn
p1278
asS'Helen Wheeler'
p1279
(lp1280
VLou Rosser
p1281
aVHelen Wheeler
p1282
asS'Arnold Manoff'
p1283
(lp1284
VDavid A. Lang
p1285
aVSilvia Richards
p1286
aVLeopold Atlas
p1287
aVLee J. Cobb
p1288
asS'Herbert Eobbins'
p1289
(lp1290
VMr. Robbins
p1291
asS'Ethel Holmstock'
p1292
(lp1293
VAnne Kinney
p1294
asS'Bob Rasland'
p1295
(lp1296
VMary E. P. Bradsher
p1297
asS'Frank Emer'
p1298
(lp1299
VEdith Macia
p1300
asS'Edward Huebsch'
p1301
(lp1302
VDavid A. Lang
p1303
asS'Henrietta Palley'
p1304
(lp1305
VAnne Kinney
p1306
asS'Rose Olson'
p1307
(lp1308
VDorothy K. Funn
p1309
asS'Maurice Perlman'
p1310
(lp1311
VEdith Macia
p1312
asS'Jack Englehardt'
p1313
(lp1314
VEdith Macia
p1315
asS'Dave Sharf'
p1316
(lp1317
VEdith Macia
p1318
asS'Stanley Hancock'
p1319
(lp1320
VCharles H. Garrigues
p1321
asS'Rose Most'
p1322
(lp1323
VAnne Kinney
p1324
asS'Arthur Barry'
p1325
(lp1326
VNicholas Campas
p1327
aVMr. Barry
p1328
asS'Stanley Rubin'
p1329
(lp1330
VMr. Rubin
p1331
asS'Ruth Weber'
p1332
(lp1333
VLeopold Atlas
p1334
asS'Veda Lewis'
p1335
(lp1336
VCharles D. Blodgett
p1337
asS'Gertrude Selig'
p1338
(lp1339
VAnne Kinney
p1340
asS'Lou Sherman'
p1341
(lp1342
VLou Lou Rosser
p1343
asS'Clarence TobeT'
p1344
(lp1345
VDickson P. Hill
p1346
aVWilliam D. Ames
p1347
aVMr. Tobey
p1348
asS'Flo Cohen'
p1349
(lp1350
VJohn Mills Davis
p1351
aVSamuel Evens
p1352
asS'Harry Campbell'
p1353
(lp1354
VEdith Macia
p1355
asS'Angela Clarke'
p1356
(lp1357
VCarin Kinzel
p1358
asS'Sidney Belinky'
p1359
(lp1360
VJohn Mills Davis
p1361
aVSamuel Evens
p1362
asS'Si Fialkoff'
p1363
(lp1364
VNicholas Campas
p1365
asS'Joseph Zadow'
p1366
(lp1367
VAnne Kinney
p1368
asS'Charlotte Wacker'
p1369
(lp1370
VDorothy K. Funn
p1371
asS'Herbert Feay'
p1372
(lp1373
VNicholas Campas
p1374
aVJack Davis
p1375
asS'Sue Cohen'
p1376
(lp1377
VAnne Kinney
p1378
asS'Carl Williams'
p1379
(lp1380
VErnest L. Seymour
p1381
asS'Elizabeth McMullen'
p1382
(lp1383
VDickson P. Hill
p1384
aVMrs. Arthur Mayhew
p1385
asS'Betty Laros'
p1386
(lp1387
VJack Davis
p1388
aVJohn Mills Davis
p1389
aVSamuel Evens
p1390
asS'George Stathis'
p1391
(lp1392
VNicholas Campas
p1393
aVJohn Mills Davis
p1394
asS'John Sanford'
p1395
(lp1396
VLeopold Atlas
p1397
aVPauline S. Townsend
p1398
a(lp1399
VMarguerite Roberts
p1400
aasS'David Herman'
p1401
(lp1402
VNicholas Campas
p1403
aVJack Davis
p1404
aVJack Davis
p1405
aVDavid Herman
p1406
asS'Fanya Friedman'
p1407
(lp1408
VAnne Kinney
p1409
asS'Benny Goodman'
p1410
(lp1411
VAnne Kinney
p1412
asS'Frances Tandy'
p1413
(lp1414
VDickson P. Hill
p1415
asS'Louise Moss'
p1416
(lp1417
VLouise Losey
p1418
asS'Hilda Geller'
p1419
(lp1420
VJohn Mills Davis
p1421
aVSamuel Evens
p1422
asS'Margaret Wilson'
p1423
(lp1424
VAnne Kinney
p1425
asS'Lettie Stever'
p1426
(lp1427
VJorome Robbins
p1428
asS'Meridel LeSeuer'
p1429
(lp1430
VCharles D. Blodgett
p1431
aVCharles D. Blodgett
p1432
asS'Pearl Hill'
p1433
(lp1434
VCharles D. Blodgett
p1435
asS'Caroline Perloff'
p1436
(lp1437
VMrs. Perloff
p1438
asS'Sanford Bernstein'
p1439
(lp1440
VEdith Macia
p1441
asS'Wendell H. Furry'
p1442
(lp1443
VRobert Gorham Davis
p1444
aVHarvard Granville Hicks
p1445
aVWilliam T. Martin
p1446
asS'David Rappaport'
p1447
(lp1448
VArpad Nicholas Campas
p1449
aVDavid Rappaport
p1450
aVJack Davis
p1451
aVJohn Mills Davis
p1452
aVSamuel Evens
p1453
asS'Bill Redner'
p1454
(lp1455
VMary E. P. Bradsher
p1456
asS'Sadie Ornitz'
p1457
(lp1458
VBabbette Lang
p1459
asS'Hymie Aliiert'
p1460
(lp1461
VEdith Macia
p1462
asS'Jean Mayer'
p1463
(lp1464
VAnne Kinney
p1465
asS'Alfred Levitt'
p1466
(lp1467
VDavid A. Lang
p1468
aVLeopold Atlas
p1469
asS'Aram Attarian'
p1470
(lp1471
VCharles D. Blodgett
p1472
asS'George Gorchoff'
p1473
(lp1474
VRobert Gladnick
p1475
asS'Norman Byrne'
p1476
(lp1477
VLeRoy Herndon
p1478
asS'Zema Matlin'
p1479
(lp1480
VAnne Kinney
p1481
asS'Molly Thorner'
p1482
(lp1483
VWilliam D. Ames
p1484
asS'Harry Haywood'
p1485
(lp1486
VLou Rosser
p1487
asS'George LaFortune'
p1488
(lp1489
VNicholas Campas
p1490
aVN. Y. Jack Davis
p1491
asS'Dorothy Woods'
p1492
(lp1493
VJosephine Dickson P. Hill
p1494
asS'Sam Wixman'
p1495
(lp1496
VAnne Kinney
p1497
asS'Gertrude Lane'
p1498
(lp1499
VJack Davis
p1500
aVJack Davis
p1501
asS'Decca Treuhaft'
p1502
(lp1503
VMrs. Robert Treu
p1504
aVDickson P. Hill
p1505
asS'Tanya Tuttle'
p1506
(lp1507
VPauline S. Townsend
p1508
asS'Mrs. Fisher'
p1509
(lp1510
VEdith Macia
p1511
asS'Newton Hill'
p1512
(lp1513
VCharles D. Blodgett
p1514
asS'Betty. Martin'
p1515
(lp1516
VAnne Kinney
p1517
asS'Bill Ingham'
p1518
(lp1519
VAnne Kinney
p1520
asS'Jean Richardson'
p1521
(lp1522
VAnne Kinney
p1523
asS'Bert Witkowski'
p1524
(lp1525
VEdith Macia
p1526
asS'William T. Martin Putter'
p1527
(lp1528
VN. Y.
p1529
asS'Jeannette Finkelstein'
p1530
(lp1531
VDorothy K. Funn
p1532
asS'Nathan Jacobson'
p1533
(lp1534
VErnest L. Seymour
p1535
asS'Julian Gordon'
p1536
(lp1537
VAnne Kinney
p1538
asS'Ann Nechemias'
p1539
(lp1540
VDorothy K. Funn
p1541
asS'Emma Stanley'
p1542
(lp1543
VDickson P. Hill
p1544
asS'Abraham Mlnkus'
p1545
(lp1546
VLeRoy Herndon
p1547
aVRichard Byrd Lewis
p1548
aVAnne Kinney
p1549
asS'Nick Lazari'
p1550
(lp1551
VNicholas Campas
p1552
asS'Hank Morley'
p1553
(lp1554
VDarling Adams
p1555
asS'Rubby Sherr'
p1556
(lp1557
VMr. Sherr
p1558
asS'Hyman Koppelman'
p1559
(lp1560
VDorothy K. Funn
p1561
asS'Shirley Stone'
p1562
(lp1563
VMrs. Charles Stone
p1564
aVEdith Macia
p1565
aVShirley Ellis
p1566
asS'Viola B Shore'
p1567
(lp1568
VBabbette Lang
p1569
asS'Joe Crago'
p1570
(lp1571
VJohn Mills Davis
p1572
aVSamuel Evens
p1573
asS'Betty Gannett'
p1574
(lp1575
VAnne Kinney
p1576
a(lp1577
VLou Rosser
p1578
aVA. Lou Rosser
p1579
aasS'Alexander Kolker'
p1580
(lp1581
VJohn Mills Davis
p1582
aVSamuel Evens
p1583
asS'Bob Robinson'
p1584
(lp1585
VEdith Macia
p1586
asS'Louise. Thompson'
p1587
(lp1588
VManning Johnson
p1589
asS'Marie. Rinaldo'
p1590
(lp1591
VMildred Benoff
p1592
aVPauline S. Townsend
p1593
asS'Tony S Lucia'
p1594
(lp1595
VTony Robert Gladnick
p1596
asS'Leo Baroway'
p1597
(lp1598
VAnne Kinney
p1599
a(lp1600
VCharles D. Blodgett
p1601
aVWilliam D. Ames
p1602
aasS'Louise Thompson'
p1603
(lp1604
VLou Rosser
p1605
aVRay Bertha Grover
p1606
aVMarv E. P. Bradsher
p1607
aVDickson P. Hill
p1608
aVWilliam D. Ames
p1609
asS'Arthur O Wright'
p1610
(lp1611
VMr. Wright
p1612
asS'Jessie Pedrick'
p1613
(lp1614
VDickson P. Hill
p1615
aVMike Lou Rosser
p1616
aVMax Appleman
p1617
aVAlexander Lou Rosser
p1618
aVHazel Bertha Grover
p1619
asS'Sam Horn'
p1620
(lp1621
VEdith Macia
p1622
asS'Evelyn Fargo'
p1623
(lp1624
VAnne Kinney
p1625
asS'John Stanford'
p1626
(lp1627
VDavid A. Lang
p1628
asS'Mary Nolan'
p1629
(lp1630
VDarling Adams
p1631
asS'Jack S. Zucker'
p1632
(lp1633
VDorothy K. Funn
p1634
asS'Nat Wald'
p1635
(lp1636
VRobert Gladnick
p1637
asS'Ida Rothstein'
p1638
(lp1639
VLou Rosser
p1640
asS'Harry F. Ward'
p1641
(lp1642
VLeonard Patterson
p1643
aVManning Johnson
p1644
asS'William Taylor'
p1645
(lp1646
VDorothy K. Funn
p1647
asS'Catherine Becker'
p1648
(lp1649
VPauline S. Townsend
p1650
asS'Barbara Darling'
p1651
(lp1652
VMrs. Byron T. Bereniece Baldwin
p1653
asS'Hjalmar Peterson'
p1654
(lp1655
VDarling Adams
p1656
asS'Albert Legard'
p1657
(lp1658
VCharles D. Blodgett
p1659
asS'Jack Robinson'
p1660
(lp1661
VRoy Erwin
p1662
asS'Nerval Crutcher'
p1663
(lp1664
VDarling Adams
p1665
asS'Dave Himinelstein'
p1666
(lp1667
VLou Rosser
p1668
asS'Walter Kirkon'
p1669
(lp1670
VCharles D. Blodgett
p1671
asS'Edith Johnson'
p1672
(lp1673
VEdith Macia
p1674
asS'Gene Hammond'
p1675
(lp1676
VMary E. P. Bradsher
p1677
asS'George Siskin'
p1678
(lp1679
VLou Rosser
p1680
asS'Julian Zimet'
p1681
(lp1682
VDavid A. Lang
p1683
aVPauline S. Townsend
p1684
asS'Alvah Bessie'
p1685
(lp1686
VRobert Rossen
p1687
aVDavid A. Lang
p1688
aVLeopold Atlas
p1689
asS'Janet Scott'
p1690
(lp1691
VJohn Mills Dayis
p1692
aVSamuel Evens
p1693
asS'Carl Grossenbacher'
p1694
(lp1695
VWilliam T. Martin
p1696
aVIsadore Amdur
p1697
asS'Charles Hendley'
p1698
(lp1699
VRobert Graham Davis
p1700
asS'Holland Roberts'
p1701
(lp1702
VAnne Kinuey
p1703
a(lp1704
VCharles D. Blodgett
p1705
aasS'Norman Perlman'
p1706
(lp1707
VEdith Macia
p1708
asS'Jeauette Dworkin'
p1709
(lp1710
VMrs. Michael John Mills Davis
p1711
aVSamuel Evens
p1712
asS'Harry Schwartz'
p1713
(lp1714
VEdith Macia
p1715
aVEdith Macia
p1716
asS'Violet Orr'
p1717
(lp1718
VLou Rosser
p1719
asS'Elizabeth. Augustine'
p1720
(lp1721
VElizabeth McMuUen
p1722
asS'Harold Dimsdale'
p1723
(lp1724
VEdith Macia
p1725
asS'Mack Libby'
p1726
(lp1727
VHarry J. Marks
p1728
asS'Herman Beilan'
p1729
(lp1730
VMr. Beilan
p1731
asS'Mildred Bowen'
p1732
(lp1733
VCharles D. Blodgett
p1734
asS'Madeline Lee'
p1735
(lp1736
VJerome Robbins
p1737
asS'Karen Morley'
p1738
(lp1739
VRoy Erwin
p1740
aVLarry Parks
p1741
asS'Ed Fisher'
p1742
(lp1743
VEdith Macia
p1744
asS'Leon Kaplan'
p1745
(lp1746
VJames Kendall
p1747
asS'Nemmy Sparks'
p1748
(lp1749
VLeopold Atlas
p1750
aVPauline S. Townsend
p1751
aVHarry J. Marks
p1752
asS'Robert Kelly'
p1753
(lp1754
VCharles D. Blodgett
p1755
asS'Margaret Undjus'
p1756
(lp1757
VMargaret Benjamin Gitlow
p1758
asS'Bill Clifford'
p1759
(lp1760
VDickson P. Hill
p1761
aVWilliam D. Ames
p1762
asS'Lester Cole'
p1763
(lp1764
VRobert Rossen
p1765
aVDavid A. Lang
p1766
aVSol Shor
p1767
aVLeopold Atlas
p1768
asS'Shimen Raskin'
p1769
(lp1770
VLee J. Cobb
p1771
asS'Kathleen Dickerson'
p1772
(lp1773
VWilliam D. Ames
p1774
asS'Ray Halpern'
p1775
(lp1776
VBertha Grover
p1777
asS'Anita Boyagian'
p1778
(lp1779
VAnita Edith Macia
p1780
asS'Harry Williams'
p1781
(lp1782
VLou Rosser
p1783
asS'Joe Adams'
p1784
(lp1785
VEdith Macia
p1786
asS'Charles Leonard'
p1787
(lp1788
VDavid A. Lang
p1789
aVBabbette Lang
p1790
asS'Ben Maddow'
p1791
(lp1792
VPauline S. Townsend
p1793
asS'Clare Burnstein'
p1794
(lp1795
VMrs. Russell Wm. Babbette Lang
p1796
asS'Saul Wachter'
p1797
(lp1798
VWilliam D. Ames
p1799
asS'Beckie Wolstenholme'
p1800
(lp1801
VMrs. Art Wol
p1802
aVCharles D. Blodgett
p1803
asS'Elliott Sullivan'
p1804
(lp1805
VEly Lee J. Cobb
p1806
aVJerome Robbins
p1807
asS'Alberto Moreau'
p1808
(lp1809
VDorothy K. Funn
p1810
asS'Sidney Claibourne'
p1811
(lp1812
VCharles D. Blodgett
p1813
asS'Helen Leonard'
p1814
(lp1815
VDavid A. Lang
p1816
aVS. Townsend
p1817
aVBabbette Lang
p1818
asS'Seymour Bennett'
p1819
(lp1820
VDavid A. Lang
p1821
asS'Earl Phillips'
p1822
(lp1823
VDickson P. Hill
p1824
asS'Paul Rosenfeld'
p1825
(lp1826
VPauline S. Townsend
p1827
asS'Martin Berkeley'
p1828
(lp1829
VMr. Berkeley
p1830
asS'Robert Bush'
p1831
(lp1832
VDr. Bush
p1833
asS'Elizabeth Faragoh'
p1834
(lp1835
VMrs. Francis Far
p1836
aVPauline S. Townsend
p1837
asS'Henriette Martin'
p1838
(lp1839
VDavid A. Lang
p1840
aVPauline S. Townsend
p1841
asS'Ruth Burrows'
p1842
(lp1843
VPauline S. Townsend
p1844
asS'Ethel Karson'
p1845
(lp1846
VEdith Macia
p1847
asS'Lloyd Gough'
p1848
(lp1849
VLarry Parks
p1850
aVJerome Robbins
p1851
asS'Sylvia Siegel'
p1852
(lp1853
VHarold Hecht
p1854
aVSol Shor
p1855
asS'Ludwig Donath'
p1856
(lp1857
VLee J. Cobb
p1858
asS'Jeff Kibre'
p1859
(lp1860
VRoland W. Kibbee
p1861
aVDarling Adams
p1862
asS'Clara Walden'
p1863
(lp1864
VPauline S. Townsend
p1865
asS'James Branca'
p1866
(lp1867
VDorothy K. Funn
p1868
asS'Eugene R. Stone'
p1869
(lp1870
VCarin Kinzel
p1871
asS'Charles Oberkirch'
p1872
(lp1873
VJack Davis
p1874
aVN. Y.
p1875
asS'James Gilliam'
p1876
(lp1877
VWilliam D. Ames
p1878
asS'Ora Kelly'
p1879
(lp1880
VCharles D. Blodgett
p1881
a(lp1882
VCharles D. Blodgett
p1883
aasS'Bea Baron'
p1884
(lp1885
VAnne Kinney
p1886
asS'Iva Anthony'
p1887
(lp1888
VEdith Macia
p1889
asS'Rose Clinton'
p1890
(lp1891
VDorothy K. Funn
p1892
asS'Joe Lash'
p1893
(lp1894
VLeonard Patterson
p1895
aVMr. Lash
p1896
asS'Lillian Jones'
p1897
(lp1898
VAnne Kinney
p1899
asS'Charles A Page'
p1900
(lp1901
VMorris Appelman
p1902
asS'Harry Carlyle'
p1903
(lp1904
VRoy Erwin
p1905
aVPauline S. Townsend
p1906
asS'Pauline Hopkins'
p1907
(lp1908
VOwen Silvia Richards
p1909
aVRoy Erwin
p1910
aVCarin Kinzel
p1911
a(lp1912
VMrs. Owen Vinson
p1913
aasS'Sarah Bognoff'
p1914
(lp1915
VCharles H. Garrigues
p1916
asS'Herman Mazer'
p1917
(lp1918
VEdith Macia
p1919
asS'Bill Lawrence'
p1920
(lp1921
VRobert Gladnick
p1922
aVNicholas Campas
p1923
asS'Clarence Hathaway'
p1924
(lp1925
VManning Johnson
p1926
aVA. A. Manning Johnson
p1927
asS'Sidney Bloomfield'
p1928
(lp1929
VHarry J. Marks
p1930
aVMargot Robert Gorhain Davis
p1931
asS'Herman Clott'
p1932
(lp1933
VDorothy K. Funn
p1934
asS'John Morgan'
p1935
(lp1936
VCharles D. Blodgett
p1937
asS'Bea Burke'
p1938
(lp1939
VAnne Kinney
p1940
asS'Paul Perlin'
p1941
(lp1942
VDarling Adams
p1943
asS'Jack Ginsberg'
p1944
(lp1945
VAnne Kinney
p1946
asS'Arthur Birnkarnt'
p1947
(lp1948
VDavid A. Lang
p1949
aVPauline S. Townsend
p1950
asS'Arthur Osman'
p1951
(lp1952
VMr. Osman
p1953
aVMr. Paley
p1954
aVOifioe Workei
p1955
aVSamuel C. Manning Johnson
p1956
aVGoldberg Dorotli\u005c K. Funn
p1957
asS'James King'
p1958
(lp1959
VNicholas Campas
p1960
aVJack Davis
p1961
asS'Wilma Shore'
p1962
(lp1963
VDavid A. Lang
p1964
asS'Ed Rolfe'
p1965
(lp1966
VSilvia Richards
p1967
asS'Joe Saul'
p1968
(lp1969
VJoseph Spri
p1970
asS'John Little'
p1971
(lp1972
VRobert Gladnick
p1973
asS'Len DeCaux'
p1974
(lp1975
VDorothy K. Funn
p1976
asS'Robert Shaw'
p1977
(lp1978
VPauline S. Townsend
p1979
asS'Alice Hunter'
p1980
(lp1981
VPauline S. Townsend
p1982
asS'Lillian Heron'
p1983
(lp1984
VEdith Macia
p1985
asS'Dave Drummond'
p1986
(lp1987
VRobert Gladnick
p1988
aVMr. Gladnick
p1989
aVMr. Drummond
p1990
asS'Dean Hood'
p1991
(lp1992
VLou Rosser
p1993
asS'Eleanor Smith'
p1994
(lp1995
VBertha Grover
p1996
aVCharles D. Blodgett
p1997
asS'Dorothy W. Douglas'
p1998
(lp1999
VRobert Gorham Davis
p2000
asS'Jack Lazar'
p2001
(lp2002
VEdith Macia
p2003
asS'Robert W. Dunn'
p2004
(lp2005
VArnaud David A. Lang
p2006
aVRoland W. Kibbee
p2007
asS'Abraham Maymadus'
p2008
(lp2009
VAnne Kinney
p2010
asS'Evelyn Howard'
p2011
(lp2012
VMrs. Maurice How
p2013
asS'Henry Peterson'
p2014
(lp2015
VDarling Adams
p2016
asS'Lillian Lowenfels'
p2017
(lp2018
VMrs. Walter
p2019
aVMrs. Lowenfeb
p2020
asS'Robert Black'
p2021
(lp2022
VCharles D. Blodgett
p2023
aVBertha Grover
p2024
aVWilliam D. Ames
p2025
asS'Marge Price'
p2026
(lp2027
VWilliam D. Ames
p2028
asS'Rosalie Creque'
p2029
(lp2030
VDickson P. Hill
p2031
asS'Alice Wilson'
p2032
(lp2033
VRobert Gladnick
p2034
asS'Robert Dwinnell'
p2035
(lp2036
VCharles D. Blodgett
p2037
asS'James Lerner'
p2038
(lp2039
VBenjamin Gitlow
p2040
asS'Annette Harper'
p2041
(lp2042
VCarin Kinzel
p2043
aVDwight Hauser
p2044
asS'Albert Lockett'
p2045
(lp2046
VAnne Kinney
p2047
asS'Johnny Weber'
p2048
(lp2049
VHarry J. Marks
p2050
asS'Paul Jarrico'
p2051
(lp2052
VMax Benoff
p2053
aVRobert Rossen
p2054
asS'Ben Dobbs'
p2055
(lp2056
VLou Rosser
p2057
asS'June Kelleher'
p2058
(lp2059
VEdith Macia
p2060
asS'Edith Landall'
p2061
(lp2062
VEdith Macia
p2063
aVDavid A. Lang
p2064
aVS. Townsend
p2065
aVRoland W. Kibbee
p2066
aVRobert Rossen
p2067
asS'A Englehart'
p2068
(lp2069
VDickson P. Hill
p2070
asS'Bert Cooper'
p2071
(lp2072
VRoy Erwin
p2073
asS'Richard O. Boyer'
p2074
(lp2075
VPauline S. Townsend
p2076
asS'John Smith'
p2077
(lp2078
VCharles D. Blodgett
p2079
asS'Ida Pratt'
p2080
(lp2081
VEdith Macia
p2082
asS'Murry Wagner'
p2083
(lp2084
VDwight Hauser
p2085
asS'Rose Pearson'
p2086
(lp2087
VHarold Hecht
p2088
asS'Jake Price'
p2089
(lp2090
VWilliam D. Ames
p2091
asS'Naomi Robeson'
p2092
(lp2093
VDwight Hauser
p2094
aVLeopold Atlas
p2095
asS'John Looschen'
p2096
(lp2097
VMr. Looschen
p2098
asS'Angelina Riskin'
p2099
(lp2100
VAnne Kinney
p2101
asS'Josephine W Eidenoff'
p2102
(lp2103
VDickson P. Hill
p2104
asS'Tom Brown'
p2105
(lp2106
VLou Rosser
p2107
asS'Paul Curtis'
p2108
(lp2109
VDavid A. Lang
p2110
asS'Sally Attarian'
p2111
(lp2112
VCharles D. Blodgett
p2113
asS'Pauline L Finn'
p2114
(lp2115
VRobert Rossen
p2116
aVPauline Lauber
p2117
aVCarin Kinzel
p2118
aVPauline S. Townsend
p2119
asS'Mary Goldstein'
p2120
(lp2121
VEdith Macia
p2122
aVMr. Goldstein
p2123
asS'Marjorie Hay'
p2124
(lp2125
VLeRoy Herndon
p2126
asS'Lynn Hames'
p2127
(lp2128
VCharles D. Blodgett
p2129
asS'Waldo Salt'
p2130
(lp2131
VDavid A. Lang
p2132
aVRoland W. Kibbee
p2133
asS'Louis McMullen'
p2134
(lp2135
VDickson P. Hill
p2136
asS'Tamara Hovey'
p2137
(lp2138
VSilvia Richards
p2139
asS'Dolph Winebrenner'
p2140
(lp2141
VAnne Kinney
p2142
asS'What is Smith'
p2143
(lp2144
VMr. Springer
p2145
aVJoseph Springer
p2146
asS'Kenneth Arnold'
p2147
(lp2148
VIsadore Amdur
p2149
asS'Nat Yanish'
p2150
(lp2151
VDickson P. Hill
p2152
aVCharles D. Blodgett
p2153
aVWilliam D. Ames
p2154
aVBertha Grover
p2155
asS'David Leeds'
p2156
(lp2157
VDavid Amarigio
p2158
asS'John Stapp'
p2159
(lp2160
VPauline S. Townsend
p2161
asS'Louise Janis'
p2162
(lp2163
VPauline S. Townsend
p2164
asS'Sanders Shelf'
p2165
(lp2166
VAnne Kinney
p2167
asS'Joe Ayeroff'
p2168
(lp2169
VLou Rosser
p2170
asS'Paul. Jarrico'
p2171
(lp2172
VV. J.
p2173
asS'Lee Gold'
p2174
(lp2175
VSilvia Richards
p2176
asS'Mike Gold'
p2177
(lp2178
VJohn Mills Davis
p2179
asS'Samuel M Kaplan'
p2180
(lp2181
VThomas Delaney
p2182
aVMr. Kaplan
p2183
aVMr. Delaney
p2184
aVMr. Kaplan
p2185
asS'Barrows Dunham'
p2186
(lp2187
VMr. Dunham
p2188
asS'Esther Soler'
p2189
(lp2190
VMrs. Soler
p2191
aVWilliam B. Mann School
p2192
asS'Hallie Jonas'
p2193
(lp2194
VCarin Kinzel
p2195
asS'Helen Gardner'
p2196
(lp2197
VAnne Kinney
p2198
asS'Bill Crockett'
p2199
(lp2200
VWilliam D. Ames
p2201
asS'Vaughan A. K Tashjian'
p2202
(lp2203
VAnne Kinney
p2204
asS'Andy Charles'
p2205
(lp2206
VLou Rosser
p2207
aVMr. Charles
p2208
asS'Ann Yanish'
p2209
(lp2210
VDickson P. Hill
p2211
aVCharles D. Blodgett
p2212
aVWilliam D. Ames
p2213
aVBertha Grover
p2214
asS'Albert Byler'
p2215
(lp2216
VAnne Kinney
p2217
asS'Anne Green'
p2218
(lp2219
VLeopold Atlas
p2220
asS'Shirley Kanter'
p2221
(lp2222
VPauline S. Townsend
p2223
asS'Frank Oats'
p2224
(lp2225
VAnne Kinney
p2226
aVOleta O'Connor David A. Lang
p2227
aVAnne Kinney
p2228
asS'Wesley Bodkin'
p2229
(lp2230
VDickson P. Hill
p2231
aVCharles D. Blodgett
p2232
asS'William Creque'
p2233
(lp2234
VDickson P. Hill
p2235
asS'Sol Kaplan'
p2236
(lp2237
VMr. Kaplan
p2238
asS'Naomi Workman'
p2239
(lp2240
VRobert Gladnick
p2241
asS'Mrs. Pieper'
p2242
(lp2243
VMary Charles D. Blodgett
p2244
asS'Ann R Richards'
p2245
(lp2246
VMrs. Rob
p2247
aVRobert Rossen
p2248
aVBart Lytton
p2249
aVLeopold Atlas
p2250
aVPauline S. Townsend
p2251
aVBabbette Lang
p2252
aVDavid A. Lang
p2253
asS'Dodd Bella V'
p2254
(lp2255
VDorothy K. Funn
p2256
asS'Nell Higman'
p2257
(lp2258
VLou Rosser
p2259
asS'Bertha Grover'
p2260
(lp2261
VBertha Grover
p2262
asS'Roy. Hudson'
p2263
(lp2264
VManning Johnson
p2265
asS'Eugene Parker'
p2266
(lp2267
VCharles D. Blodgett
p2268
asS'Don Gordon'
p2269
(lp2270
VDarling Adams
p2271
asS'Martha Stone'
p2272
(lp2273
VLou Rosser
p2274
asS'James Tourney'
p2275
(lp2276
VJames Anne Kinney
p2277
aVJim Thorne
p2278
asS'Arthur Wright'
p2279
(lp2280
VSamuel Evens
p2281
aVMr. Wright
p2282
asS'Al Stanley'
p2283
(lp2284
VDickson P. Hill
p2285
asS'Herman Waldreen'
p2286
(lp2287
VHerman Waldman
p2288
aVDavid Wolfe
p2289
asS'Sarah. Hartman'
p2290
(lp2291
VSarah Hartman
p2292
asS'John Hubley'
p2293
(lp2294
VDarling Adams
p2295
asS'Helen Pate'
p2296
(lp2297
VEdith Macia
p2298
asS'Jack Standish'
p2299
(lp2300
VCharles D. Blodgett
p2301
asS'Henry Shefiard'
p2302
(lp2303
VK. Funn
p2304
asS'Emily Gordon'
p2305
(lp2306
VAnne Kinney
p2307
asS'Edward Biberman'
p2308
(lp2309
VZachary Schwartz
p2310
aVHarold Hecht
p2311
aVDavid A. Lang
p2312
aVDarling Adams
p2313
asS'Godine Eagle'
p2314
(lp2315
VDickson P. Hill
p2316
asS'Bernice Kalman'
p2317
(lp2318
VDickson P. Hill
p2319
aVBertha Grover
p2320
aVWilliam D. Ames
p2321
aVBertha Grover
p2322
asS'Herbert Klein'
p2323
(lp2324
VAnne Kinney
p2325
asS'Louise. Todd'
p2326
(lp2327
VAnne Kinney
p2328
asS'EUenore Abowitz'
p2329
(lp2330
VMrs. Murray Abo
p2331
aVAnne Kinney
p2332
asS'Al Lannon'
p2333
(lp2334
VDorothy K. Funn
p2335
a(lp2336
VJames Kendall
p2337
aasS'Jane March'
p2338
(lp2339
VAnne Kinney
p2340
asS'Morris Keller'
p2341
(lp2342
VDickson P. Hill
p2343
asS'Will Campbell'
p2344
(lp2345
VCharles D. Blodgett
p2346
asS'James McFadden'
p2347
(lp2348
VBertha Grover
p2349
asS'Irving Velson'
p2350
(lp2351
VCharles Robert Gladnick
p2352
asS'Janet McHarg'
p2353
(lp2354
VDickson P. Hill
p2355
asS'Betty Arden'
p2356
(lp2357
VAnne Kinney
p2358
asS'Jean Frederick'
p2359
(lp2360
VMrs. George Van Fred
p2361
aVMary E. P. Bradsher
p2362
asS'Margaret Ginsberg'
p2363
(lp2364
VMrs. Jack Gins
p2365
aVAnne Kinney
p2366
asS'Lloyd Lehman'
p2367
(lp2368
VLou Rosser
p2369
aVDickson P. Hill
p2370
asS'Hyman S Kraft'
p2371
(lp2372
VRobert Rossen
p2373
asS'Louise Gilliam'
p2374
(lp2375
VWilliam D. Ames
p2376
asS'Louise Losey'
p2377
(lp2378
VMrs. Joseph Losey
p2379
aVPauline S. Townsend
p2380
aVLouise Moss
p2381
asS'Ernest Cook'
p2382
(lp2383
VCharles D. Blodgett
p2384
asS'Gordon Kahn'
p2385
(lp2386
VHarold Hecht
p2387
aVDavid A. Lang
p2388
aVMax Benoff
p2389
aVLeopold Atlas
p2390
asS'Florence Hutchinson'
p2391
(lp2392
VDickson P. Hill
p2393
asS'Selma Bachelis'
p2394
(lp2395
VDarling Adams
p2396
asS'George Chakin'
p2397
(lp2398
VRobert Gladnick
p2399
asS'Thelma Dale'
p2400
(lp2401
VDorothy K. Funn
p2402
aVSarah Hartman Dorothy K. Funn
p2403
asS'Donald Baker'
p2404
(lp2405
VLou Rosser
p2406
asS'Jack Smith'
p2407
(lp2408
VJames Kendall
p2409
asS'David Livingston'
p2410
(lp2411
VMr. Livingston
p2412
asS'Rose Kliue'
p2413
(lp2414
VEdith M.Mcia
p2415
asS'William Reich'
p2416
(lp2417
VCharles D. Blodgett
p2418
aVAl Charles D. Blodgett
p2419
asS'Dave Grant'
p2420
(lp2421
VHarry J. Marks
p2422
asS'Catherine Larkin'
p2423
(lp2424
VBabbette Lang
p2425
asS'Lou Harris'
p2426
(lp2427
VRobert Rossen
p2428
aVRoland W. Kibbee
p2429
asS'Adele Young'
p2430
(lp2431
VLou Rosser
p2432
asS'Dora Garber'
p2433
(lp2434
VEdith Macia
p2435
asS'Gene Lien'
p2436
(lp2437
VDickson P. Hill
p2438
aVMary E. P. Bradsher
p2439
asS'Margaret Gilbert'
p2440
(lp2441
VHerbert A. Philbrick
p2442
asS'Morrie Smolan'
p2443
(lp2444
VCharles H. Garrigues
p2445
aVAnne Kinney
p2446
asS'Goldie Gregurek'
p2447
(lp2448
VMrs. Frank Gregu
p2449
asS'Also he Fascism'
p2450
(lp2451
VMr. KuNziQ
p2452
aVMr. Patterson
p2453
aVMr. KuNziG
p2454
aVMr. PATTERSON
p2455
aVMr. KuNZiG
p2456
aVMr. Chairman
p2457
aVRichard McMichael
p2458
aVJohn Edmiston
p2459
aVManning Johnson
p2460
aVLeonard Patterson
p2461
aVJack R. McMichael
p2462
asS'Sophia Elfont'
p2463
(lp2464
VMiss Ell
p2465
aVStetson Junior
p2466
asS'Adele Margolis'
p2467
(lp2468
VMrs. Nathan Mar
p2469
aVMrs. Margolis
p2470
asS'Elizabeth. Mayhew'
p2471
(lp2472
VElizabeth Mc
p2473
asS'Beatrice L Cole'
p2474
(lp2475
VPauline S. Townsend
p2476
asS'Eugene A Toopeekoff'
p2477
(lp2478
VJames Kendall
p2479
asS'Frances Itskowitz'
p2480
(lp2481
VMike" Gordon
p2482
aVFrances Gordon
p2483
asS'Daniel McCombe'
p2484
(lp2485
VMr. Mc
p2486
asS'Jacob Mindel'
p2487
(lp2488
VLou Rosser
p2489
asS'Dorothy Olson'
p2490
(lp2491
VSilvia Richards
p2492
aVJohn Edith Macia
p2493
aVMrs. John Edith
p2494
asS'Jens Simousgard'
p2495
(lp2496
VAnne Kinney
p2497
asS'Anna Mcintosh'
p2498
(lp2499
VCharles D. Blodgett
p2500
aVBen Davis Club
p2501
asS'Dorothy Blumberg'
p2502
(lp2503
VMrs. Al Blum
p2504
aVDorothy K. Funn
p2505
asS'George Morris'
p2506
(lp2507
VLou Rosser
p2508
asS'Bill Young'
p2509
(lp2510
VSilvia Richards
p2511
asS'Bernie Nidiss'
p2512
(lp2513
VEdith Macia
p2514
asS'Sylvia Elfenbein'
p2515
(lp2516
VDorothy K. Funn
p2517
asS'Robert Arnold'
p2518
(lp2519
VJohn Mills Davis
p2520
asS'Paul R Zllsel'
p2521
(lp2522
VMr. Zilsel
p2523
asS'Otto Hall'
p2524
(lp2525
VManning Johnson
p2526
asS'Ernest Fox'
p2527
(lp2528
VJames Kendall
p2529
asS'Lynn Whitney'
p2530
(lp2531
VRoy Erwin
p2532
aVCarin Kinzel
p2533
asS'Glenda Sullivan'
p2534
(lp2535
VRobert Rossen
p2536
asS'Ella Gonzales'
p2537
(lp2538
VMary E. P. Bradsher
p2539
asS'Walter Kolowski'
p2540
(lp2541
VRobert Gladnick
p2542
asS'Sara Geyer'
p2543
(lp2544
VEdith Macia
p2545
asS'Sue Rossen'
p2546
(lp2547
VPauline S. Townsend
p2548
asS'Ferdinand Smith'
p2549
(lp2550
VJames Kendall
p2551
asS'Shirley Fields'
p2552
(lp2553
VNicholas Campas
p2554
aVShirley Fields
p2555
asS'Lem Belton'
p2556
(lp2557
VDorothy K. Funn
p2558
asS'John Leech'
p2559
(lp2560
VAnne Kinney
p2561
asS'Zara Becker'
p2562
(lp2563
VRichard Byrd Lewis
p2564
aVAnne Kinney
p2565
asS'Libby Minkus'
p2566
(lp2567
VAnne Kinney
p2568
asS'Jean Lien'
p2569
(lp2570
VDickson P. Hill
p2571
aVMary E. P. Bradsher
p2572
asS'Pauline Vinson'
p2573
(lp2574
VMrs. Owen Vinson
p2575
aVPauline Hopkins
p2576
asS'Allen Johnson'
p2577
(lp2578
VCharles D. Blodgett
p2579
asS'Paul Schlipf'
p2580
(lp2581
VCharles D. Blodgett
p2582
asS'Sophia Malloy'
p2583
(lp2584
VEdith Macia
p2585
asS'Elena Beck'
p2586
(lp2587
VMildred Benoff
p2588
aVPauline S. Townsend
p2589
asS'Minna Klein'
p2590
(lp2591
VAnne Kinney
p2592
asS'Leo Selfrid'
p2593
(lp2594
VAnne Kinney
p2595
asS'Nina Ingham'
p2596
(lp2597
VAnne Kinney
p2598
asS'Josef Michel'
p2599
(lp2600
VRobert Rossen
p2601
asS'Charles Gainor'
p2602
(lp2603
VDr. Gainor
p2604
asS'Richard Lynden'
p2605
(lp2606
VLou Rosser
p2607
asS'Edith Bomser'
p2608
(lp2609
VEditli Macia
p2610
aVNat Edith Macia
p2611
asS'Harry Fruit'
p2612
(lp2613
VMr. Fruit
p2614
asS'Martha Lepowsky'
p2615
(lp2616
VDorothy K. Funn
p2617
aVMrs. Kahn
p2618
asS'Charles Glenn'
p2619
(lp2620
VCarin Kinzel
p2621
aVSilvia Richards
p2622
asS'Doris Fogarty'
p2623
(lp2624
VDickson P. Hill
p2625
asS'Harold Oakerly'
p2626
(lp2627
VJames Kendall
p2628
asS'Libby Jacobson'
p2629
(lp2630
VAnne Kinney
p2631
asS'Val Burton'
p2632
(lp2633
VDavid A. Lang
p2634
asS'Inez Hearn'
p2635
(lp2636
VCharles D. Blodgett
p2637
asS'Marcus Singer'
p2638
(lp2639
VIsadore Amdur
p2640
asS'Herbert Naboisek'
p2641
(lp2642
VMary E. P. Bradsher
p2643
asS'Pettis Perry'
p2644
(lp2645
VAnne Kinney
p2646
asS'Oscar Fuss'
p2647
(lp2648
VAnne Kinney
p2649
asS'Simon Lazarus'
p2650
(lp2651
VMr. Lazarus
p2652
asS'Arnold Dorenz'
p2653
(lp2654
VNicholas Campas
p2655
aVMr. Dorenz
p2656
asS'James Dow'
p2657
(lp2658
VRoland W. Kibbee
p2659
asS'Dorothy Zadow'
p2660
(lp2661
VAnne Kinney
p2662
asS'Phil Klein'
p2663
(lp2664
VDarling Adams
p2665
asS'Joseph. Stone'
p2666
(lp2667
VJoseph Klein
p2668
asS'Loretta Starvus'
p2669
(lp2670
VDickson P. Hill
p2671
aVWilliam D. Ames
p2672
aVLou Rosser
p2673
asS'Frank Oppenheimer'
p2674
(lp2675
VAnne Kinney
p2676
asS'Harry Gilder'
p2677
(lp2678
VEdith Macia
p2679
asS'Mary L Rosser'
p2680
(lp2681
VMrs. Lou Lou Rosser
p2682
asS'Rude LauibtMt'
p2683
(lp2684
VAnne Kinney
p2685
asS'Ishmael Flory'
p2686
(lp2687
VNicholas Campas
p2688
aVJack Davis
p2689
asS'Florence Tobey'
p2690
(lp2691
VDickson P. Hill
p2692
aVWilliam D. Ames
p2693
aVMrs. Tobey
p2694
aVErnest L. Seymour
p2695
aVLou Rosser
p2696
asS'Robert Richards'
p2697
(lp2698
VPauline S. Townsend
p2699
asS'Rosalind Lindesmith'
p2700
(lp2701
VMrs. Johnny Dickson P. Hill
p2702
aVWilliam D. Ames
p2703
asS'Kathleen Griffitli'
p2704
(lp2705
VMrs. Kathleen Griffith Hee
p2706
asS'Josephine. Woods'
p2707
(lp2708
VJosephine Woods Eideuoff
p2709
asS'Emmett Teague'
p2710
(lp2711
VDickson P. Hill
p2712
asS'Leon Meadows'
p2713
(lp2714
VCarin Kinzel
p2715
asS'Nori Lafferty'
p2716
(lp2717
VDickson P. Hill
p2718
asS'Kostas Dakchoylous'
p2719
(lp2720
VJohn Mills Davis
p2721
asS'Marie Phillips'
p2722
(lp2723
VDickson P. Hill
p2724
asS'In 1944 Party'
p2725
(lp2726
VHarrison George
p2727
aVEarl Browder
p2728
aVRoy Hudson
p2729
aVH. Jackson
p2730
aVRoy Hudson
p2731
aVGeorge Mink
p2732
asS'Ben Bengal'
p2733
(lp2734
VPauline S. Townsend
p2735
asS'Jane Wilson'
p2736
(lp2737
VJane Anne Kinney
p2738
aVLeRoy Herndon
p2739
asS'Bill Ellis'
p2740
(lp2741
VRobert Gladnick
p2742
aVMr. Ellis
p2743
asS'Mary Kotick'
p2744
(lp2745
VJohn Mills Davis
p2746
asS'Louis J. Lubin'
p2747
(lp2748
VJohn Mills Davis
p2749
aVSamuel Evens
p2750
asS'Sandra Martin'
p2751
(lp2752
VCharles D. Blodgett
p2753
asS'Millard Lanipell'
p2754
(lp2755
VSilvia Richards
p2756
asS'Bella Reynolds'
p2757
(lp2758
VBella Lewitzky
p2759
asS'William Michelson'
p2760
(lp2761
VJohn Mills Davis
p2762
asS'Maurice Howard'
p2763
(lp2764
VDarling Adams
p2765
asS'Leon Shapiro'
p2766
(lp2767
VJohn Mills Davis
p2768
aVSamuel Evens
p2769
asS'Fred Williams'
p2770
(lp2771
VBertha Grover
p2772
asS'Ruth. McGovney'
p2773
(lp2774
VRuth McGov
p2775
aVDickson P. HiU
p2776
asS'Seth Levine'
p2777
(lp2778
VDorothy K. Funn
p2779
asS'Mort Newman'
p2780
(lp2781
VLou Rosser
p2782
aVMr. Mort Newman
p2783
asS'John Polki'
p2784
(lp2785
VLou Rosser
p2786
asS'Amalia P Crago'
p2787
(lp2788
VNicholas Campas
p2789
aVJack Davis
p2790
aVJohn Mills Davis
p2791
aVSamuel Evens
p2792
asS'Les Edgley'
p2793
(lp2794
VPauline S. Townsend
p2795
aVEdward David A. Lang
p2796
asS'Howard Dimsdale'
p2797
(lp2798
VDavid A. Lang
p2799
aVSilvia Richards
p2800
asS'Eva Lapin'
p2801
(lp2802
VCharles D. Blodgett
p2803
asS'Nathan Goldstein'
p2804
(lp2805
VJohn Mills Davis
p2806
aVSamuel Evens
p2807
asS'Miriam Holtz'
p2808
(lp2809
VAnne Kinney
p2810
asS'Becky Goodman'
p2811
(lp2812
VAnne Kinney
p2813
asS'Lionel Berman'
p2814
(lp2815
VJerome Bobbins
p2816
asS'Calif Hayward'
p2817
(lp2818
VDickson P. Hill
p2819
asS'William Albertson'
p2820
(lp2821
VNicholas Campas
p2822
aVJack Davis
p2823
aVCostas Nicholas Campas
p2824
aVJack Davis
p2825
asS'Jacob Geyer'
p2826
(lp2827
VJack Edith Macia
p2828
asS'Robert Neville'
p2829
(lp2830
VMary E. P. Bradsher
p2831
aVDickson P. Hill
p2832
aVWilliam D. Ames
p2833
asS'Virginia Mullen'
p2834
(lp2835
VMrs. Mullen
p2836
asS'Celia Wilhy'
p2837
(lp2838
VSilvia Richards
p2839
asS'Bella Lewitzky'
p2840
(lp2841
VMrs. Newell Rey
p2842
aVAnne Kinney
p2843
asS'Lilith James'
p2844
(lp2845
VPauline S. Townsend
p2846
aVBart Lytton
p2847
aVRobert Rossen
p2848
asS'Leona McGinty'
p2849
(lp2850
VMrs. Howland Cham
p2851
aVAnne Kinney
p2852
a(lp2853
VMrs. Howland Cham
p2854
aVLou Rosser
p2855
aasS'Sandra Young'
p2856
(lp2857
VEdith Macia
p2858
asS'Arthur Anhattzer'
p2859
(lp2860
VEdith Macia
p2861
asS'Fran Salit'
p2862
(lp2863
VEdith Macia
p2864
asS'Charles Dorenz'
p2865
(lp2866
VNicholas Campas
p2867
aVJack Davis
p2868
aVJohn Mills Davis
p2869
asS'Frieda Trachgin'
p2870
(lp2871
VEdith Macia
p2872
asS'Margaret Maltz'
p2873
(lp2874
VBabbette Lang
p2875
asS'Sam Edelsteiu'
p2876
(lp2877
VNicholas Campas
p2878
asS'Kelly Douglas'
p2879
(lp2880
VSamuel Evens
p2881
asS'Elizabeth Guarnaccia'
p2882
(lp2883
VHerbert A. Philbrick
p2884
asS'Carter Brown'
p2885
(lp2886
VAnne Kinney
p2887
asS'Carl Foreman'
p2888
(lp2889
VDavid A. Lang
p2890
aVSol Shor
p2891
aVBabbette Lang
p2892
asS'Anna Shepro'
p2893
(lp2894
VLeRoy Herndon
p2895
aVRichard Byrd Lewis
p2896
asS'Steve Murdock'
p2897
(lp2898
VCharles D. Blodgett
p2899
asS'Ruth Hultgren'
p2900
(lp2901
VCharles D. Blodgett
p2902
aVWilliam D. Ames
p2903
asS'John Bittman'
p2904
(lp2905
VCharles D. Blodgett
p2906
asS'Rose Dreyfus'
p2907
(lp2908
VEdith Macia
p2909
asS'Catherine Vandercar'
p2910
(lp2911
VBabbette Lang
p2912
asS'George Markham'
p2913
(lp2914
VMr. Markham
p2915
asS'Robert Campbell'
p2916
(lp2917
VDorothy K. Funn
p2918
asS'Ernest Boykin'
p2919
(lp2920
VCharles D. Blodgett
p2921
asS'Al Saxton'
p2922
(lp2923
VErnest L. Seymour
p2924
asS'Esther J Wagner'
p2925
(lp2926
VBabbette Lang
p2927
asS'Evelyn Keller'
p2928
(lp2929
VAnne Kinney
p2930
asS'George Willner'
p2931
(lp2932
VSilvia Richards
p2933
aVLeopold Atlas
p2934
aVBabbette Lang
p2935
asS'Sam Kalish'
p2936
(lp2937
VLeRoy Herndon
p2938
aVRichard Byrd Lewis
p2939
aVAnne Kinney
p2940
asS'Sarah Wepman'
p2941
(lp2942
VMrs. Wepman
p2943
asS'Blackie Meyers'
p2944
(lp2945
VJames Kendall
p2946
asS'Bert Corona'
p2947
(lp2948
VLou Rosser
p2949
asS'Ben Pollin'
p2950
(lp2951
VRoy Erwin
p2952
asS'Harold Schachter'
p2953
(lp2954
VCharles D. Blodgett
p2955
aVMr. Schachter
p2956
aVCarlton Col
p2957
asS'Anna L Strong'
p2958
(lp2959
VBenjamin Gitlow
p2960
asS'Russell W Bnrnstein'
p2961
(lp2962
VBabbette Lang
p2963
asS'Helen A Winter'
p2964
(lp2965
VMrs. Carl Win
p2966
aVBereniece Baldwin
p2967
asS'Sam Darcy'
p2968
(lp2969
VLou Rosser
p2970
aVJoe Koide
p2971
asS'Gladys Black'
p2972
(lp2973
VCharles D. Blodgett
p2974
aVBertha Grover
p2975
aVWilliam D. Ames
p2976
asS'Elliott Grennard'
p2977
(lp2978
VDavid A. Lang
p2979
asS'Revels Cayton'
p2980
(lp2981
VLou Rosser
p2982
asS'Francis E Faragoh'
p2983
(lp2984
VReis Rosenberg
p2985
aVEdward Dmytryk
p2986
asS'Reuben Ship'
p2987
(lp2988
VPauline S. Townsend
p2989
aVCarin Kinzel
p2990
asS'Rose Hobart'
p2991
(lp2992
VLee J. Cobb
p2993
asS'Bernadette Doyle'
p2994
(lp2995
VDickson P. Hill
p2996
asS'Dorothy Tree'
p2997
(lp2998
VLarry Parks
p2999
aVLee J. Cobb
p3000
asS'Norman Canright'
p3001
(lp3002
VCharles D. Blodgett
p3003
asS'Sid Partridge'
p3004
(lp3005
VCharles D. Blodgett
p3006
asS'LaRne McCormiek'
p3007
(lp3008
VAnne Kinney
p3009
asS'Alice W Gordon'
p3010
(lp3011
VAlice Wil
p3012
asS'Tommy Downs'
p3013
(lp3014
VEdith Macia
p3015
asS'William Pomerance'
p3016
(lp3017
VDarling Adams
p3018
aVPauline S. Townsend
p3019
aVRobert Rossen
p3020
asS'Edward Barlow'
p3021
(lp3022
VDickson P. Hill
p3023
aVBertha Grover
p3024
asS'John Rapf'
p3025
(lp3026
VRoy Erwin
p3027
asS'Herbert Goldfrank'
p3028
(lp3029
VSilvia Richards
p3030
aVHerbert Davis
p3031
asS'Phil Bard'
p3032
(lp3033
VRobert Gladnick
p3034
asS'Elsie Monjar'
p3035
(lp3036
VLou Rosser
p3037
aVMiss Monjar
p3038
asS'Mitchell Lindeman'
p3039
(lp3040
VCarin Kinzel
p3041
asS'Barbara Wooley'
p3042
(lp3043
VMrs. Angus Wooley
p3044
aVPauline S. Townsend
p3045
aVBarbara Roberts
p3046
asS'David Amarigio'
p3047
(lp3048
VRobert Gladnick
p3049
aVDavid Leeds
p3050
asS'Goldie Bromberg'
p3051
(lp3052
VMrs. J. Edward Pauline S. Townsend
p3053
asS'Burton Freund'
p3054
(lp3055
VEdith Macia
p3056
asS'Kate Lawson'
p3057
(lp3058
VDarling Adams
p3059
asS'Harry Norman'
p3060
(lp3061
VEdith Macia
p3062
aVJoseph David A. Lang
p3063
asS'Fred Putnam'
p3064
(lp3065
VEdith Macia
p3066
aVMrs. Joe Aidlin
p3067
aVAnne Kinney
p3068
asS'Edna R Coleman'
p3069
(lp3070
VDorothy K. Funn
p3071
aVEdna Rosenberg
p3072
asS'Milton Henry'
p3073
(lp3074
VAnne Kinney
p3075
asS'Lawrence Arguimbau'
p3076
(lp3077
VWilliam T. Martin
p3078
aVMassachusetts Isadore Amdur
p3079
aVNorman Levinson
p3080
asS'Marsha Browne'
p3081
(lp3082
VMrs. Gus Browne Edith Macia
p3083
asS'Bernhard Stern'
p3084
(lp3085
VGranville Hicks
p3086
asS'Charles A Duarte'
p3087
(lp3088
VLou Rosser
p3089
asS'Wilhelmina Laughery'
p3090
(lp3091
VMary E. P. Bradsher
p3092
aVBertha Grover
p3093
aVDickson P. Hill
p3094
aVWilliam D. Ames
p3095
asS'Jack Olsen'
p3096
(lp3097
VJack 01
p3098
aVLou Rosser
p3099
asS'Julius Jacobs'
p3100
(lp3101
VDorothy K. Funn
p3102
asS'Thomas M McGrath'
p3103
(lp3104
VMr. Mc
p3105
asS'Flora Webster'
p3106
(lp3107
VMrs. Willard Parker Bereniece Baldwin
p3108
asS'Mary J Adams'
p3109
(lp3110
VEdith Macia
p3111
asS'Carl Grant'
p3112
(lp3113
VAnne Kinney
p3114
asS'Gene Morse'
p3115
(lp3116
VRobert Gladnick
p3117
asS'Edward Chodorov'
p3118
(lp3119
VJerome Robbins
p3120
asS'Mary Robinson'
p3121
(lp3122
VRoy Erwin
p3123
asS'Pete Matanami'
p3124
(lp3125
VDickson P. Hill
p3126
asS'Freda Spivak'
p3127
(lp3128
VEdith Macia
p3129
asS'Sidney Weinbaum'
p3130
(lp3131
VLeRoy Herndon
p3132
asS'William G Soler'
p3133
(lp3134
VMr. Soler
p3135
asS'Ohio. Cincinnati'
p3136
(lp3137
VJack Davis
p3138
aVNicholas Campas
p3139
aVJames McNamara
p3140
aVMr. McNamara
p3141
asS'John Jeffrey'
p3142
(lp3143
VAnne Kinney
p3144
aVV. J. Harold Hecht
p3145
aVLeonard Patterson
p3146
asS'Florence Jacobs'
p3147
(lp3148
VDorothy K. Funn
p3149
aVFranklin K. Lane
p3150
asS'Roger Capelle'
p3151
(lp3152
VDickson P. Hill
p3153
aVBertha Grover
p3154
asS'Leila Thompson'
p3155
(lp3156
VBertha Orover
p3157
aVDick.son P. Hill
p3158
aVCharles D. Blodgett
p3159
aVWilliam D. Ames
p3160
asS'Kenneth Roberts'
p3161
(lp3162
VCharles D. Blodgett
p3163
asS'Ruth S Ryan'
p3164
(lp3165
VAnne Kinney
p3166
asS'Martha Campion'
p3167
(lp3168
VManning Johnson
p3169
aVMartha Campion
p3170
asS'Paul Trabusis'
p3171
(lp3172
VDavid A. Lang
p3173
asS'Harry G Itskowitz'
p3174
(lp3175
VHarry Gordon
p3176
asS'Everett Weil'
p3177
(lp3178
VPauline S. Townsend
p3179
asS'Ruth Standish'
p3180
(lp3181
VCharles D. Blodgett
p3182
asS'Sig Hesse'
p3183
(lp3184
VDickson P. Hill
p3185
asS'Louise Todd'
p3186
(lp3187
VCharles D. Blodgett
p3188
aVDickson P. Hill
p3189
asS'David Hillierman'
p3190
(lp3191
VDarling Adams
p3192
asS'Joe Terry'
p3193
(lp3194
VCharles D. Blodgett
p3195
asS'Bruce Anderson'
p3196
(lp3197
VMary E. P. Bradsher
p3198
asS'Janet Stevenson'
p3199
(lp3200
VMrs. Philip Steven
p3201
aVPauline S. Townsend
p3202
asS'Irvin Richter'
p3203
(lp3204
VDorothy K. Funn
p3205
asS'Otis A Hood'
p3206
(lp3207
VHerbert Philbrick
p3208
asS'Betty Seklen'
p3209
(lp3210
VAnne Kinney
p3211
asS'Harry Utrich'
p3212
(lp3213
VLou Rosser
p3214
aVAl Lannon
p3215
asS'Sidney Benson'
p3216
(lp3217
VTed Pauline S. Townsend
p3218
asS'Philip Stevenson'
p3219
(lp3220
VLeopold Atlas
p3221
aVPauline S. Townsend
p3222
asS'Hilton Wolf'
p3223
(lp3224
VEdith Macia
p3225
asS'Stella Gold'
p3226
(lp3227
VJohn Mills Davis
p3228
aVMrs. Irving
p3229
aVSamuel Evens
p3230
asS'Adam. Lapin'
p3231
(lp3232
VBenjamin Gitlow
p3233
asS'Harry Bridges'
p3234
(lp3235
VJames Kendall
p3236
asS'Louis Goldblatt'
p3237
(lp3238
VLou Rosser
p3239
aVLewis Miller
p3240
asS'Ann R Rieliards'
p3241
(lp3242
VMarie Dorothy K. Funn
p3243
asS'Victor Shapiro'
p3244
(lp3245
VDavid A. Lang
p3246
aVLeopold Atlas
p3247
aVRobert Rossen
p3248
asS'Lawrence West'
p3249
(lp3250
VAnne Kinney
p3251
asS'Donald Hatcliigan'
p3252
(lp3253
VNicholas Campas
p3254
aVJack Davis
p3255
aVN. Y. John Mills Davis
p3256
asS'Roi Sherman'
p3257
(lp3258
VErnest L. Seymour
p3259
asS'Joy Williams'
p3260
(lp3261
VDickson P. Hill
p3262
aVCharles D. Blodgett
p3263
asS'Harold T. Woerner'
p3264
(lp3265
VMr. Woerner Salesman
p3266
asS'Leo Rossman'
p3267
(lp3268
VJames Kendall
p3269
asS'Joseph Melia'
p3270
(lp3271
VDickson P. Hill
p3272
aVCharles D. Blodgett
p3273
aVWilliam D. Ames
p3274
asS'Lucy Warren'
p3275
(lp3276
VEdith Macia
p3277
aVJohn Pauline S. Townsend
p3278
asS'Arthur L. Levy'
p3279
(lp3280
VMr. Levy
p3281
asS'Sonya Solotoy'
p3282
(lp3283
VAnne Kinney
p3284
asS'Jay Moss'
p3285
(lp3286
VAnne Kinney
p3287
asS'Teresa Kalman'
p3288
(lp3289
VBertha Grover
p3290
asS'Virgil Akeson'
p3291
(lp3292
VDorothy K. Funn
p3293
asS'Ralph Izzard'
p3294
(lp3295
VCharles D. Blodgett
p3296
asS'Jean Lees'
p3297
(lp3298
VBabbette Lang
p3299
asS'Irving Gold'
p3300
(lp3301
VJohn Mills Davis
p3302
aVSamuel Evens
p3303
asS'Barta Numovna'
p3304
(lp3305
VAnne Kinney
p3306
aVLeRoy Herndon
p3307
aVRichard Byrd Lewis
p3308
asS'The committee Springer'
p3309
(lp3310
VMax Klansky
p3311
asS'Arthur Newman'
p3312
(lp3313
VDorothy K. Funn
p3314
aVN. Y.
p3315
asS'Art Wolstenholme'
p3316
(lp3317
VCharles D. Blodgett
p3318
asS'Ella Winter'
p3319
(lp3320
VDavid A. Lang
p3321
aVManning Johnson
p3322
asS'Nicholas C Bartlett'
p3323
(lp3324
VMr. Bartlett
p3325
asS'Ben Barzman'
p3326
(lp3327
VRobert Rossen
p3328
aVPauline S. Townsend
p3329
asS'Pele Edises'
p3330
(lp3331
VCharles D. Blodgett
p3332
asS'Russell A Nixon'
p3333
(lp3334
VDorothy K. Funn
p3335
aVMr. Sipser
p3336
asS'Conn. Haven'
p3337
(lp3338
VByron Thorwell Darling
p3339
aVPaul Zilseh Daniel Fine
p3340
aVTheodore S. Polumbaum
p3341
aVArthur L. Levy
p3342
aVHarold T. Woerner, Jr.
p3343
aVByron Thorwell Darling
p3344
aVWilliam Ted ISIartin
p3345
aVIsadore Amdur
p3346
aVMr. Amdur
p3347
asS'Solomon Haas'
p3348
(lp3349
VMr. Haas
p3350
asS'David Flacks'
p3351
(lp3352
VDorothy K. Funn
p3353
asS'Patricia Moore'
p3354
(lp3355
VPauline S. Townsend
p3356
asS'Connie L Bennett'
p3357
(lp3358
VDavid A. Lang
p3359
asS'Harry Rich'
p3360
(lp3361
VNicholas Campas
p3362
aVJack Davis
p3363
asS'Estelle Foreman'
p3364
(lp3365
VDavid A. Lang
p3366
aVBabbette Lang
p3367
asS'Sophia Salit'
p3368
(lp3369
VEdith Macia
p3370
asS'Allen Boretz'
p3371
(lp3372
VDavid A. Lang
p3373
asS'Henry Shire'
p3374
(lp3375
VAnne Kinney
p3376
asS'Clarence Davis'
p3377
(lp3378
VCharles D. Blodgett
p3379
asS'Jane Wallace'
p3380
(lp3381
VJane Wilson
p3382
aVJane Wilson
p3383
asS'Harold Buchman'
p3384
(lp3385
VRobert Rossen
p3386
aVDavid A. Lang
p3387
aVPauline S. Townsend
p3388
aVRoland W. Kibbee
p3389
a(lp3390
VPauline S. Townsend
p3391
aasS'Harrison George'
p3392
(lp3393
VAnne Kinney
p3394
a(lp3395
VJoe Koide
p3396
aasS'Pauline Laserfin'
p3397
(lp3398
VDavid A. Lang
p3399
asS'Peter Lyon'
p3400
(lp3401
VPauline S. Townsend
p3402
aVLee J. Cobb
p3403
asS'Matthew Crawford'
p3404
(lp3405
VLou Rosser
p3406
asS'Robert Cohen'
p3407
(lp3408
VDorothy K. Funn
p3409
a(lp3410
VRobert Gladnick
p3411
aVServicio Informacion Militar
p3412
aasS'Sam Moore'
p3413
(lp3414
VSilvia Richards
p3415
aVDwight Hauser
p3416
aVRoy Erwin
p3417
asS'Bob Roberts'
p3418
(lp3419
VDavid A. Lang
p3420
asS'John Bright'
p3421
(lp3422
VRobert Rossen
p3423
aVMr. Rossen
p3424
aVHarold Hecht
p3425
aVJohn Bright
p3426
aVDavid A. Lang
p3427
aVRoland W. Kibbee
p3428
asS'Maurice Rapf'
p3429
(lp3430
VDavid A. Lang
p3431
aVPauline S. Townsend
p3432
aVRoland W. Kibbee
p3433
aVRobert Rossen
p3434
a(lp3435
VPauline S. Townsend
p3436
aasS'Howland Chamberlin'
p3437
(lp3438
VAnne Kinney
p3439
asS'Anna Taft'
p3440
(lp3441
VRobert Gladnick
p3442
asS'Clara Rairland'
p3443
(lp3444
VMary E. P. Bradsher
p3445
asS'Charles Stone'
p3446
(lp3447
VCharles Edith Macia
p3448
asS'Max Silver'
p3449
(lp3450
VMr. Silver
p3451
asS'Cleophas Brown'
p3452
(lp3453
VWilliam D. Ames
p3454
aVCharles D. Blodgett
p3455
asS'Sam Kubin'
p3456
(lp3457
VEdith Macia
p3458
aVSara Edith Macia
p3459
asS'Don Cameron'
p3460
(lp3461
VErnest L. Seymour
p3462
asS'Sidney Freeman'
p3463
(lp3464
VLeRoy Herndon
p3465
asS'Nina Handman'
p3466
(lp3467
VEdith Macia
p3468
asS'Xaorai White'
p3469
(lp3470
VMary E. P. Bradsher
p3471
asS'Morton Nadler'
p3472
(lp3473
VAnne Kinney
p3474
asS'Morris Zuckman'
p3475
(lp3476
VJohn Mills Davis
p3477
aVSamuel Evens
p3478
asS'Eunice Mindlin'
p3479
(lp3480
VDavid A. Lang
p3481
asS'Elaine Black'
p3482
(lp3483
VLou Rosser
p3484
asS'Stanley Roberts'
p3485
(lp3486
VRobert Rossen
p3487
aVEdna Rosen
p3488
aVSarah Oilman
p3489
asS'Harriet Belinky'
p3490
(lp3491
VJohn Mills Davis
p3492
aVSamuel Evens
p3493
asS'Cecil Beard'
p3494
(lp3495
VDarling Adams
p3496
asS'Morris Carnovsky'
p3497
(lp3498
VLarry Parks
p3499
aVLee J. Col
p3500
a(lp3501
VAnne Kinney
p3502
aasS'Anita Whitney'
p3503
(lp3504
VLou Rosser
p3505
asS'Elias Schwarzbart'
p3506
(lp3507
VJohn Mills Davis
p3508
aVSamuel Evens
p3509
asS'Miriam Cliassen'
p3510
(lp3511
VEdith Macia
p3512
asS'Henry Meyers'
p3513
(lp3514
VDavid A. Lang
p3515
aVRobert Rossen
p3516
asS'Cyril Endfield'
p3517
(lp3518
VDavid A. Lang
p3519
asS'William S. Johnson'
p3520
(lp3521
VDorothy K. Funn
p3522
asS'Robert Treuhaft'
p3523
(lp3524
VCharles D. Blodgett
p3525
asS'William E. Oliver'
p3526
(lp3527
VAlice Bennett
p3528
aVUrcel Daniel
p3529
asS'Ole Fagerhaugh'
p3530
(lp3531
VCharles D. Blodgett
p3532
asS'Carl Swanson'
p3533
(lp3534
VAnne Kinney
p3535
asS'Jean Hedley'
p3536
(lp3537
VDickson P. Hill
p3538
asS'Oleta O Yates'
p3539
(lp3540
VOleta O'Connor
p3541
a(lp3542
VLou Rosser
p3543
aVOleta O'Connor
p3544
aasS'Loretta Starr'
p3545
(lp3546
VHarry J. Marks
p3547
asS'Robert Sloan'
p3548
(lp3549
VHarold Hecht
p3550
asS'Ruth Jennings'
p3551
(lp3552
VNicholas Campas
p3553
aVRuth Jennings
p3554
asS'Maurice Murphy'
p3555
(lp3556
VRoland W. Kibbee
p3557
a(lp3558
VLou Rosser
p3559
aVMr. Maurice Murphy
p3560
aasS'Alexander Riskin'
p3561
(lp3562
VAnne Kinney
p3563
asS'Frank Beye'
p3564
(lp3565
VAnne Kinney
p3566
asS'Frances Gordon'
p3567
(lp3568
VMrs. Harry John Mills Davis
p3569
aVMrs. Harry
p3570
aVSamuel Evens
p3571
asS'Douglas W Ward'
p3572
(lp3573
VCharles D. Blodgett
p3574
asS'Paul Chown'
p3575
(lp3576
VDickson P. Hill
p3577
aVCharles D. Blodgett
p3578
asS'Harry Judis'
p3579
(lp3580
VEdith Macia
p3581
aVMrs. Harry Judis
p3582
aVEdith Macia
p3583
asS'David Jenkins'
p3584
(lp3585
VErnest L. Seymour
p3586
aVJames Kendall
p3587
asS'Carmen Melia'
p3588
(lp3589
VCharles D. Blodgett
p3590
asS'Marjorie Eisler'
p3591
(lp3592
VCharles D. Blodgett
p3593
aVBertha Grover
p3594
asS'Evelyn Weinstein'
p3595
(lp3596
VJohn Mills Davis
p3597
aVEvelyn Weinstein
p3598
asS'Opal Terry'
p3599
(lp3600
VCharles D. Blodgett
p3601
asS'Marjorie Canrlght'
p3602
(lp3603
VMrs. Norman Can
p3604
aVCharles D. Blodgett
p3605
asS'Al Yates'
p3606
(lp3607
VLou Rosser
p3608
asS'Ralph Cohen'
p3609
(lp3610
VJohn Mills Davis
p3611
aVSamuel Evens
p3612
asS'William J. Bailey'
p3613
(lp3614
VJames Kendall
p3615
asS'Charles Blacklock'
p3616
(lp3617
VCharles D. Blodgett
p3618
asS'Git Perlman'
p3619
(lp3620
VMrs. Maurice Edith Macia
p3621
asS'Mary Sherwood'
p3622
(lp3623
VDickson P. Hill
p3624
asS'Irving Myer'
p3625
(lp3626
VEdith Macia
p3627
asS'Joe Carr'
p3628
(lp3629
VEdith Macia
p3630
asS'Horace Pratt'
p3631
(lp3632
VEdith Macia
p3633
asS'Clarice Chapman'
p3634
(lp3635
VLeopold Atlas
p3636
asS'Arcus Reddock'
p3637
(lp3638
VAnne Kinney
p3639
asS'Charlotte Kyer'
p3640
(lp3641
VDickson P. Hill
p3642
asS'Mary E Bradsher'
p3643
(lp3644
VMary Bradsher
p3645
asS'Lou Baron'
p3646
(lp3647
VAnne Kinney
p3648
a(lp3649
VLou Rosser
p3650
aasS'Barbara Bick'
p3651
(lp3652
VCharles D. Blodgett
p3653
asS'Margaret E. Forsyth'
p3654
(lp3655
VManning Johnson
p3656
asS'Michael Frank'
p3657
(lp3658
VEdith Macia
p3659
asS'Frank Tarloff'
p3660
(lp3661
VDavid A. Lang
p3662
aVPauline S. Townsend
p3663
asS'Pauline. Lauber'
p3664
(lp3665
VPauline Lauber Finn
p3666
asS'Mike Obermier'
p3667
(lp3668
VNicholas Campas
p3669
aVJack Davis
p3670
aVPaul Jack Davis
p3671
asS'Edith Sharpe'
p3672
(lp3673
VBertha Grover
p3674
aVCharles D. Blodgett
p3675
aVWilliam D. Ames
p3676
asS'Maurice Clark'
p3677
(lp3678
VRobert Rossen
p3679
aVBart Lytton
p3680
aVDavid A. Lang
p3681
aVSol Shor
p3682
asS'Louis Geller'
p3683
(lp3684
VJohn Mills Davis
p3685
aVSamuel Evens
p3686
aVNicholas Campas
p3687
aVMr. Geller
p3688
asS'Sam Goodwin'
p3689
(lp3690
VLou Rosser
p3691
asS'Lee Coe'
p3692
(lp3693
VCharles D. Blodgett
p3694
aVWilliam D. Ames
p3695
asS'Mary C Grier'
p3696
(lp3697
VGeological Grier
p3698
asS'Bill Williams'
p3699
(lp3700
VWilliam D. Ames
p3701
asS'Charles Gladstone'
p3702
(lp3703
VJoe Edith Macia
p3704
asS'Shelly Davis'
p3705
(lp3706
VCharles D. Blodgett
p3707
asS'Walter Laniliert'
p3708
(lp3709
VAnne Kiimey
p3710
aVMillard David A. Lang
p3711
aVSilvia Richards
p3712
asS'Max Bogner'
p3713
(lp3714
VAnne Kinney
p3715
asS'Ozzo Marrow'
p3716
(lp3717
VBertha Grover
p3718
asS'Celeste Strack'
p3719
(lp3720
VLou Rosser
p3721
asS'Jack Rackliffe'
p3722
(lp3723
VRobert Gorham Davis
p3724
aVGranville Hicks
p3725
aVDaniel J. Boorstln
p3726
aVNorman Levinsou
p3727
aVGeorge Mayberry
p3728
asS'William Bender'
p3729
(lp3730
VJohn Mills Davis
p3731
asS'Rose Bush'
p3732
(lp3733
VAnne Kinney
p3734
asS'Jack Gonzales'
p3735
(lp3736
VMary E. P. Bradsher
p3737
asS'Dirk J. Struik'
p3738
(lp3739
VWilliam T. Martin
p3740
aVIsadore Amdur
p3741
asS'Louis Ornitz'
p3742
(lp3743
VRobert Gladnick
p3744
aVN. Y.
p3745
asS'Rose Posell'
p3746
(lp3747
VLeRoy Herndon
p3748
aVAnne Kinney
p3749
asS'Holly Perlman'
p3750
(lp3751
VEdith Macia
p3752
asS'Rosalie Crockett'
p3753
(lp3754
VWilliam D. Ames
p3755
asS'John H Lawson'
p3756
(lp3757
VHarold Hecht
p3758
aVDavid A. LauL
p3759
aVMax Benoff
p3760
aVLeopold Atlas
p3761
aVPauline S. Townsend
p3762
aVRoland W. Kibbee
p3763
aVLee J. Cobb
p3764
aVBart Lytton
p3765
asS'Gertrude Fuller'
p3766
(lp3767
VLeopold Atlas
p3768
asS'Jane D Kelly'
p3769
(lp3770
VEdith Macia
p3771
asS'Donald Henderson'
p3772
(lp3773
VManning Johnson
p3774
asS'Elizabeth Moos'
p3775
(lp3776
VHerbert A. Philbrick
p3777
asS'Marguerite Roberts'
p3778
(lp3779
VMrs. John San
p3780
aVLeRoy Herndon
p3781
aVDavid A. Lang
p3782
aVLeopold Atlas
p3783
aVPauline S. Townsend
p3784
aVRobert Rossen
p3785
asS'Miss J Gilbert'
p3786
(lp3787
VCharles D. Blodgett
p3788
asS'Thomas Deaoon'
p3789
(lp3790
VMr. Deacon
p3791
aVSulzberger Junior High
p3792
asS'Margaret Cowl'
p3793
(lp3794
VMargaret Und
p3795
asS'Gertrude Purcell'
p3796
(lp3797
VKapf Maurice
p3798
asS'Jack Burris'
p3799
(lp3800
VLou Rosser
p3801
asS'Edward Strong'
p3802
(lp3803
VDorothy K. Funn
p3804
asS'Adrian Scott'
p3805
(lp3806
VDavid A. Lang
p3807
aVRobert Rossen
p3808
asS'Joe McClosky'
p3809
(lp3810
VEdith Macia
p3811
asS'Donald N Wheeler'
p3812
(lp3813
VElizabeth Bentley
p3814
aVMr. Wheeler
p3815
aVU. S.
p3816
asS'Ruth H. Wellnian'
p3817
(lp3818
VEdith Macia
p3819
asS'Lou Rosser'
p3820
(lp3821
VMr. Rosser
p3822
asS'Richard Frank'
p3823
(lp3824
VBella V. Dodd
p3825
asS'Lillian Gerber'
p3826
(lp3827
VEdith Macia
p3828
asS'Robert Wachsman'
p3829
(lp3830
VCharles Daggett
p3831
asS'Roy Hudson'
p3832
(lp3833
VLou Rosser
p3834
asS'Louis Green'
p3835
(lp3836
VCharles D. Blodgett
p3837
asS'Joe Young'
p3838
(lp3839
VCharles Gladstone
p3840
aVCharles Gladstone
p3841
asS'Sarah Simonsgard'
p3842
(lp3843
VAnne Kinney
p3844
asS'Reva Handle'
p3845
(lp3846
VAnne Kinney
p3847
asS'Gerry Schlein'
p3848
(lp3849
VLee J. Cobb
p3850
asS'Nathan W Margolis'
p3851
(lp3852
VMr. Margolis
p3853
asS'Bernard Vorhaus'
p3854
(lp3855
VRobert Rossen
p3856
asS'Allan Bomser'
p3857
(lp3858
VEdith Macia
p3859
asS'Matilda Lewis'
p3860
(lp3861
VAnne Kinney
p3862
aVLeRoy Herndon
p3863
aVByrd Lewis
p3864
asS'Rosalind Freud'
p3865
(lp3866
VEdith Macia
p3867
asS'Frank Moskin'
p3868
(lp3869
VEdith Macia
p3870
asS'Charles Karson'
p3871
(lp3872
VEdith Macia
p3873
asS'Ohio. As Cokimbus'
p3874
(lp3875
VByron Thornwell Darling
p3876
aVByron ThorwellDarling
p3877
aVDr. Bella V. Dodd
p3878
aVDr. Dodd
p3879
asS'Alan Philbrick'
p3880
(lp3881
VHarry J. Marks
p3882
asS'Victor Killian'
p3883
(lp3884
VLarry Parks
p3885
aVLee J. Cobb
p3886
asS'Ballis Blaisdell'
p3887
(lp3888
VMr. Blaisdell
p3889
asS'Amalia. Pesko'
p3890
(lp3891
VAmalia Pesko Crago
p3892
asS'Cookie Wexley'
p3893
(lp3894
VPauline S. Townsend
p3895
asS'Libby Hilherman'
p3896
(lp3897
VMrs. Dave Hilber
p3898
asS'Howard Fast'
p3899
(lp3900
VPauline S. Townsend
p3901
asS'Stanley Praeger'
p3902
(lp3903
VPauline S. Townsend
p3904
aVBart Lytton
p3905
asS'Hilda Woods'
p3906
(lp3907
VDickson P. Hill
p3908
asS'Sadie Doran'
p3909
(lp3910
VJack Davis
p3911
asS'Gertrude Warwick'
p3912
(lp3913
VCharles D. Blodgett
p3914
aVBertha Grover
p3915
aVWilliam D. Ames
p3916
asS'Rev. Jack McMichael'
p3917
(lp3918
VR. Benjamin Gitlow
p3919
aVLeonard Patterson
p3920
aVManning Johnson
p3921
asS'Frank Parsons'
p3922
(lp3923
VDickson P. Hill
p3924
aVMary E. P. Bradsher
p3925
aVBertha Grover
p3926
asS'Anne Witkowski'
p3927
(lp3928
VEdith Macia
p3929
asS'Sam Gelfand'
p3930
(lp3931
VAnne Kinney
p3932
asS'Revels. Cayton'
p3933
(lp3934
VDorothy K. Funn
p3935
asS'Juanita Wheeler'
p3936
(lp3937
VCharles D. Blodgett
p3938
asS'Hugh Bryson'
p3939
(lp3940
VLou Rosser
p3941
aVJim James Kendall
p3942
asS'Libby Corngold'
p3943
(lp3944
VLou Rosser
p3945
asS'George McLean'
p3946
(lp3947
VAnne Kinney
p3948
asS'Dorothy Pezman'
p3949
(lp3950
VAnne Kinney
p3951
asS'Dave Hedley'
p3952
(lp3953
VLou Rosser
p3954
asS'George Edwards'
p3955
(lp3956
VDickson P. Hill
p3957
aVCharles D. Blodgett
p3958
aVWilliam D. Ames
p3959
asS'Joe Lynch'
p3960
(lp3961
VErnest L. Seymour
p3962
asS'David Perloff'
p3963
(lp3964
VMr. Perloff
p3965
aVAbraham Lincoln
p3966
asS'Florence McDonald'
p3967
(lp3968
VEdith Macia
p3969
asS'Samuel Sillen'
p3970
(lp3971
VRobert Gorham Davis
p3972
as.