(lp0
S'abraham lincoln polonsky'
p1
aS'abram s. burrows'
p2
aS'albert glasser'
p3
aS'alfred (abraham) hale caplan'
p4
aS'alfred levitt'
p5
aS'alvin hammer'
p6
aS'anne kinney'
p7
aS'anne revere'
p8
aS'arthur globe'
p9
aS'arthur strawn'
p10
aS'bart lytton'
p11
aS'bea winters'
p12
aS'bernard c. schoenfeld'
p13
aS'bernyce polifka fleury'
p14
aS'bess taffel'
p15
aS'budd wilson schulberg'
p16
aS'carl foreman'
p17
aS'carter darnell'
p18
aS'charles daggett'
p19
aS'charles h. garrigues'
p20
aS'charlotte darling adams'
p21
aS'clifford odets'
p22
aS'cyril towbin'
p23
aS'daniel lewis james'
p24
aS'danny dare'
p25
aS'dart lytton'
p26
aS'david a. lang'
p27
aS'david raksin'
p28
aS'don christlieb'
p29
aS'donald gordon'
p30
aS'leo bigelman'
p31
aS'murray abowitz'
p32
aS'edgar lustgarten'
p33
aS'edith rapport'
p34
aS'edward dmytryk'
p35
aS'edward huebsch'
p36
aS'elia kazan'
p37
aS'elizabeth wilson'
p38
aS'ellenore abowitz'
p39
aS'eugene fleury'
p40
aS'francis edward faragoh'
p41
aS'frank wright tuttle'
p42
aS'george bassman'
p43
aS'george beck'
p44
aS'george kast'
p45
aS'george willner'
p46
aS'hannah schwartz donath'
p47
aS'harold adolph hecht'
p48
aS'harold buchman'
p49
aS'harold j. ashe'
p50
aS'harry hay'
p51
aS'helen slote levitt'
p52
aS'helen teverniti'
p53
aS'henry blankfort'
p54
aS'henry roth'
p55
aS'herbert arthur klein'
p56
aS'herbert lessner'
p57
aS'herbert offner'
p58
aS'herta uerkvitz'
p59
aS'howard da silva'
p60
aS'howland chamberlin'
p61
aS'hyman "hy" solomon kraft'
p62
aS'isobel lennart'
p63
aS'jack (l.) pepper'
p64
aS'james burford'
p65
aS'jean c. musick'
p66
aS'jeff corey'
p67
aS'jerome robinson'
p68
aS'jerry fielding'
p69
aS'jessica wildman'
p70
aS'jody gilbert'
p71
aS'joe pass'
p72
aS'john jules garfield'
p73
aS'john sanford'
p74
aS'john w. porter'
p75
aS'john waters houston'
p76
aS'jose ferrer'
p77
aS'josef mischel'
p78
aS'joseph ayeroff'
p79
aS'joseph difiore'
p80
aS'joseph eger'
p81
aS'joseph springer'
p82
aS'judith poska'
p83
aS'julian gordon'
p84
aS'kalman bloch'
p85
aS'karl tunberg'
p86
aS'larry parks'
p87
aS'le roy travers nerndon'
p88
aS'leo townsend'
p89
aS'leonard h. dahlsten'
p90
aS'leonardo bercovici'
p91
aS'leopold lawrence atlas 2 '
p92
aS'leroy travers herndon'
p93
aS'lester koenig'
p94
aS'lewis 3. elias '
p95
aS'lewis elias resumed'
p96
aS'lloyd gough'
p97
aS'louis r. sherman'
p98
aS'louis stark'
p99
aS'louise rousseau'
p100
aS'm. william pomerance'
p101
aS'manuel l. compinsky'
p102
aS'manuel newman'
p103
aS'marc lawrence'
p104
aS'marguerite roberts'
p105
aS'martin berkeley'
p106
aS'mary virginia farmer'
p107
aS'matilda lewis'
p108
aS'matthew samuel vidaver'
p109
aS'max appelman'
p110
aS'max benjamin natapoff'
p111
aS'max howard schoen'
p112
aS'max n. deiioff'
p113
aS'max nathan benoff'
p114
aS'melvin levy'
p115
aS'mendell morton krieger '
p116
aS'meta reis rosenberg'
p117
aS'michael gordon'
p118
aS'michael seymour blankfort'
p119
aS'michael wilson'
p120
aS'mildred ashe '
p121
aS'milton kestenbaum'
p122
aS'morris boltuch'
p123
aS'morris carnovsky'
p124
aS'mrs. anne pollock'
p125
aS'mrs. eudice gottlieb'
p126
aS'mrs. lilith james'
p127
aS'mrs. margaret vaughn meyer'
p128
aS'mrs. martha hard wheeldin'
p129
aS'mrs. tashia freed'
p130
aS'paul jarrico'
p131
aS'percy solotoy'
p132
aS'philip dey eastman'
p133
aS'philip edward stevenson'
p134
aS'philip goldberg'
p135
aS'prokop jack prokop'
p136
aS'ramez idriss'
p137
aS'reuben ship'
p138
aS'richard byrd lewis'
p139
aS'richard j. collins '
p140
aS'robert l. richards'
p141
aS'robert lees'
p142
aS'robert rossen'
p143
aS'robert shayne (robert shaen dawe)'
p144
aS'roy frankson'
p145
aS'roy m. brewer'
p146
aS'rubin decker'
p147
aS'sam fordis'
p148
aS'sam moore'
p149
aS'samuel berland'
p150
aS'sidney greene'
p151
aS'sidney london'
p152
aS'simon m.lazarus'
p153
aS'sohn brown'
p154
aS'sol short'
p155
aS'stanley roberts'
p156
aS'stanley rubin2'
p157
aS'stephen a. were'
p158
aS'sterling hayden'
p159
aS'sylvia lardner darnell'
p160
aS'thad page'
p161
aS'thomas a. chapman'
p162
aS'thomas matthew mcgrath'
p163
aS'thomas walfrid nelson'
p164
aS'victor gottlieb'
p165
aS'victor jeremy jerome'
p166
aS'victor killian'
p167
aS'virginia viertel'
p168
aS'waldo salt'
p169
aS'will geer'
p170
aS'william a. wheeler'
p171
aS'william blowitz'
p172
aS'william don waddilove'
p173
aS'william elconin'
p174
aS'william l. alland'
p175
aS'william ward kimple resumed'
p176
aS'william ward kimple'
p177
aS'gale sondergaard'
p178
a.
