(dp0
S'fleury'
p1
(lp2
S'beruyce p fleury'
p3
aVmrs. fleury
p4
asS'shor'
p5
(lp6
Vsol shor
p7
asS'dmytryk'
p8
(lp9
Vedward dmytryk
p10
asS'vidaver'
p11
(lp12
S'matt vidaver'
p13
asS'carnovsky'
p14
(lp15
S'morris carnovsky'
p16
asS'strawn'
p17
(lp18
S'arthur strawn'
p19
asS'levitt'
p20
(lp21
S'alfred levitt'
p22
asS'benoff'
p23
(lp24
Vmildred benoff
p25
aVmax benoff
p26
asS'reynolds'
p27
(lp28
S'bella reynolds'
p29
aS'john h reynolds'
p30
asS'robinson'
p31
(lp32
S'marjorie robinson'
p33
aS'bob robinson'
p34
aS'mary robinson'
p35
aS'jack robinson'
p36
asS'jerome'
p37
(lp38
sS'nixon'
p39
(lp40
S'russell a nixon'
p41
asS'lytton'
p42
(lp43
Vbart lytton
p44
asS'wilson'
p45
(lp46
S'margaret wilson'
p47
aS'jane wilson'
p48
aS'alice wilson'
p49
aS'michael wilson'
p50
asS'kraft'
p51
(lp52
S'hyman s kraft'
p53
asS'jackson'
p54
(lp55
S'harry jackson'
p56
asS'lees'
p57
(lp58
S'jean lees'
p59
asS'maddow'
p60
(lp61
S'ben maddow'
p62
asS'offner'
p63
(lp64
S'mortimer offner'
p65
asS'pomerance'
p66
(lp67
S'william pomerance'
p68
aS'edwina pomerance'
p69
asS'hecht'
p70
(lp71
Vharold hecht
p72
asS'parks'
p73
(lp74
Vlarry parks
p75
asS'gough'
p76
(lp77
S'lloyd gough'
p78
asS'wood'
p79
(lp80
S'ida wood'
p81
asS'elias'
p82
(lp83
sS'cobb'
p84
(lp85
Vlee j. cobb
p86
asS'atlas'
p87
(lp88
Vleopold atlas
p89
asS'townsend'
p90
(lp91
Vpauline s. townsend
p92
asS'walter'
p93
(lp94
sS'kibbee'
p95
(lp96
Vroland w. kibbee
p97
asS'foreman'
p98
(lp99
S'estelle foreman'
p100
aS'carl foreman'
p101
asS'levy'
p102
(lp103
S'arthur l. levy'
p104
aVmr. levy
p105
asS'sherman'
p106
(lp107
S'roi sherman'
p108
asS'donath'
p109
(lp110
S'ludwig donath'
p111
asS'klein'
p112
(lp113
S'harold klein'
p114
aS'herbert klein'
p115
aVjoseph klein
p116
aS'minna klein'
p117
asS'lawrence'
p118
(lp119
S'bill lawrence'
p120
asS'wheeler'
p121
(lp122
S'donald n wheeler'
p123
aS'juanita wheeler'
p124
aS'helen wheeler'
p125
asS'garrigues'
p126
(lp127
Vcharles h. garrigues
p128
asS'beck'
p129
(lp130
S'elena beck'
p131
asS'lazarus'
p132
(lp133
Vmr. lazarus
p134
asS'rossen'
p135
(lp136
Vmr. rossen
p137
aVrobert rossen
p138
aS'sue rossen'
p139
asS'tuttle'
p140
(lp141
S'tanya tuttle'
p142
asS'berkeley'
p143
(lp144
S'martin berkeley'
p145
asS'richards'
p146
(lp147
S'ann r richards'
p148
aVsilvia richards
p149
aS'robert richards'
p150
asS'hubley'
p151
(lp152
S'john hubley'
p153
asS'buchman'
p154
(lp155
S'harold buchman'
p156
asS'lang'
p157
(lp158
Vbabbette lang
p159
aVdavid a. lang
p160
asS'faragoh'
p161
(lp162
S'francis e faragoh'
p163
aS'elizabeth faragoh'
p164
asS'solotoy'
p165
(lp166
S'sonya solotoy'
p167
asS'adams'
p168
(lp169
Vjoe charlotte darling adams
p170
aS'joe adams'
p171
aVdarling adams
p172
asS'morley'
p173
(lp174
S'hank morley'
p175
aS'karen morley'
p176
asS'james'
p177
(lp178
S'lilith james'
p179
aS'dan james'
p180
asS'stevenson'
p181
(lp182
S'philip stevenson'
p183
aS'janet stevenson'
p184
asS'burrows'
p185
(lp186
S'ruth burrows'
p187
asS'jarrico'
p188
(lp189
S'paul jarrico'
p190
asS'blankfort'
p191
(lp192
S'henry blankfort'
p193
aS'laurie blankfort'
p194
asS'roth'
p195
(lp196
Vann roth morgan
p197
asS'gordon'
p198
(lp199
S'harry gordon'
p200
aS'emily gordon'
p201
aVfrances gordon
p202
aS'julian gordon'
p203
aS'don gordon'
p204
asS'doyle'
p205
(lp206
S'bernadette doyle'
p207
asS'freed'
p208
(lp209
S'tassia freed'
p210
aS'emil freed'
p211
asS'salt'
p212
(lp213
S'waldo salt'
p214
asS'macia'
p215
(lp216
Vjack edith macia
p217
aVedith macia
p218
aVmrs. gus browne edith macia
p219
asS'daggett'
p220
(lp221
Vcharles daggett
p222
as.