(dp0
S'Contained in Willoughby'
p1
(lp2
VRichard Sorge
p3
asS'These files English'
p4
(lp5
VRichard Sorge
p6
aVRichard Sorge
p7
aVMitsusada Yoshikawa
p8
aVMr. Yoshi-kawa
p9
aVRichard Sorge
p10
aVRichard Sorge
p11
aVSorge
p12
asS'Gen Maj'
p13
(lp14
VA. Willoughby
p15
aVMitsusada Yoshikawa
p16
aVRichard Sorge
p17
asS'Gerhart Eisler Berger'
p18
(lp19
VJames H. Dolsen
p20
aVGerhart Eisler
p21
aVAgnes
p22
asS'Clubb to Mr'
p23
(lp24
VU. S. S. R.
p25
asS'To attract Peace'
p26
(lp27
VPhil Frankfeld
p28
aVRuth H. Bleier
p29
aVGunther Wertheimer
p30
aVLouis Shub
p31
asS'There were Party'
p32
(lp33
VEarl Browder
p34
asS'Like the II'
p35
(lp36
VHitler
p37
aVMr. Mary StalcupMarkward
p38
aVMrs. Markward
p39
aVMrs. Markward
p40
asS'Mr Pearson'
p41
(lp42
VLawrence Duggan
p43
aVFrank P. Lockhart
p44
aVMr. Clubb
p45
aVWhittaker Chambersidentified Mr. Duggan
p46
aVPearson
p47
aVMr. Duggan
p48
aVMr. Dugganto
p49
aVMr. Duggan
p50
aVHede Massingand Boris Bykov
p51
aVMr. Clubb
p52
aVHarold Isaacs.Committee
p53
aVSorge
p54
aVAgnes Smedley
p55
aVMr. Glass
p56
aVIsaacs
p57
aVMr. Clubb
p58
aVMr. Glass
p59
aVMr. Isaacs
p60
aVMr. Clubb
p61
aVSolomon Adler
p62
asS'Miyagi Yotoku Smedley'
p63
(lp64
VWillie Lehman
p65
aVAlbert Edward Stewart
p66
aVMargaret Undjus
p67
aVKatherine Harrison
p68
aVEarl Browder
p69
aVReh Bennett
p70
aVLeon Minster
p71
aVJuclea Codkincl
p72
aVLang-ston Hughes
p73
aVWalt Carmon
p74
aVFred Ellis
p75
asS'Clubb was Mr'
p76
(lp77
VFrederick Field
p78
aVClubb
p79
aVKarl August Wittfogel
p80
aVMr. Clubb
p81
aVMr. Field
p82
aVMr. Field
p83
aVMr. Clubb
p84
asS'Adler was Mr'
p85
(lp86
VElizabeth T. Bentley
p87
aVMr. Clubb
p88
aVMr. Jaffe
p89
aVMr. Clubb
p90
asS'Todd also Mr'
p91
(lp92
VMr. Clubb
p93
asS'In addition Moscow'
p94
(lp95
VWilloughby
p96
aVPaul
p97
aVJim
p98
aVAlex
p99
aVJohn
p100
asS'Chambers said Mr'
p101
(lp102
VMr. Chambers
p103
aVMr. Cannon
p104
aVMr. Chambers
p105
aVOliver Edmund Clubb
p106
aVMr. Clubb
p107
aVOliverEdmund Clubb
p108
aVMr. Clubb
p109
aVMr. Clubb
p110
asS'Mary Stalcup Mrs'
p111
(lp112
VMr. Herbert A. Philbrick
p113
aVRichard Sorge
p114
aVSorge
p115
aVA. Willoughby
p116
aVWilloughby
p117
aVSorge
p118
aVSorge
p119
aVJack Kawano
p120
as.