(dp0
S'john issacs'
p1
c__builtin__
set
p2
((lp3
Vwayne b. salisbury
p4
aVrichard f. o'hair
p5
atp6
Rp7
sS'mary m maraniss'
p8
g2
((lp9
Vmary morrison
p10
atp11
Rp12
sVmarjorie manoff
p13
g2
((lp14
Velizabeth wilson
p15
aS'marjorie. potts'
p16
aVmrs. arnold manoff
p17
aVleo townsend
p18
atp19
Rp20
sS'dorothy. connelly'
p21
g2
((lp22
Vdorothy healy
p23
atp24
Rp25
sS'loretta adam'
p26
g2
((lp27
Vharold ashe
p28
atp29
Rp30
sS'jack tenner'
p31
g2
((lp32
Vmarburg yerkes
p33
aVmilton s. tyre
p34
aVdavid aaron
p35
atp36
Rp37
sS'paul cline'
p38
g2
((lp39
Valice bennett
p40
ag28
aVurcel daniel
p41
aVmildred ashe
p42
aVcharles judson
p43
atp44
Rp45
sS'patricia lewis'
p46
g2
((lp47
Vroy thompson
p48
atp49
Rp50
sS'george pepper'
p51
g2
((lp52
Vedward dmytryk
p53
atp54
Rp55
sS'james walker'
p56
g2
((lp57
Vbereniece baldwin
p58
atp59
Rp60
sS'john leech'
p61
g2
((lp62
g28
ag42
atp63
Rp64
sS'lydia mates'
p65
g2
((lp66
Vmrs. dave mates
p67
ag58
atp68
Rp69
sS'larry blyth'
p70
g2
((lp71
g4
atp72
Rp73
sS'celeste strack'
p74
g2
((lp75
Vroy huggins
p76
atp77
Rp78
sS'miriam bonner'
p79
g2
((lp80
g28
atp81
Rp82
sS'meta r writer'
p83
g2
((lp84
Vstanley roberts
p85
ag15
aVisobel lennart
p86
ag18
aVbernard schoenfeld
p87
aVdavid raksin
p88
aVanne ray frank
p89
aVbudd schulberg
p90
aVfrank tuttle
p91
ag28
aVwilliam blowitz
p92
ag53
atp93
Rp94
sS'ben kocel'
p95
g2
((lp96
Vglos ludowy
p97
ag58
atp98
Rp99
sS'sidney davenport'
p100
g2
((lp101
g48
atp102
Rp103
sS'billie mogill'
p104
g2
((lp105
Vmrs. george mogill
p106
ag58
atp107
Rp108
sg15
g2
((lp109
Vmrs. richard criley
p110
atp111
Rp112
sS'charles katz'
p113
g2
((lp114
Valbert herzig
p115
ag34
ag35
aVwilliam g. israel
p116
atp117
Rp118
sS'bob klonsky'
p119
g2
((lp120
Vthomas delaney
p121
atp122
Rp123
sS'pete kowal'
p124
g2
((lp125
g58
atp126
Rp127
sS'thomas wood'
p128
g2
((lp129
g48
atp130
Rp131
sVmrs. harold franklin
p132
g2
((lp133
g58
atp134
Rp135
sS'al bigford'
p136
g2
((lp137
g4
atp138
Rp139
sS'charles killinger'
p140
g2
((lp141
Valcide t. kratz
p142
atp143
Rp144
sS'elmer hanoff'
p145
g2
((lp146
g28
ag42
atp147
Rp148
sS'jerry mchale'
p149
g2
((lp150
Vdonald o. spencer
p151
atp152
Rp153
sS'julius sorbonya'
p154
g2
((lp155
g58
atp156
Rp157
sS'agnes grigg'
p158
g2
((lp159
g58
atp160
Rp161
sS'art braunlich'
p162
g2
((lp163
g4
atp164
Rp165
sS'charles mcclaughlan'
p166
g2
((lp167
g115
atp168
Rp169
sS'andy lancey'
p170
g2
((lp171
Vwalter scott dunn
p172
atp173
Rp174
sS'hope smith'
p175
g2
((lp176
g58
atp177
Rp178
sS'boleslaw gebert'
p179
g2
((lp180
Vcasimir rataj
p181
atp182
Rp183
sS'pressley green'
p184
g2
((lp185
g4
atp186
Rp187
sS'fred fine'
p188
g2
((lp189
Virving krane
p190
ag15
ag18
aVdave averill
p191
ag91
aVlee lundgren
p192
ag4
ag58
atp193
Rp194
sS'verna mcallister'
p195
g2
((lp196
g58
atp197
Rp198
sS'ralph glick'
p199
g2
((lp200
Vsamuel dimaria
p201
ag121
atp202
Rp203
sS'bob washington'
p204
g2
((lp205
g4
atp206
Rp207
sS'anthony matusek'
p208
g2
((lp209
Vjohn edward cooke
p210
atp211
Rp212
sS'harold smith'
p213
g2
((lp214
g58
atp215
Rp216
sS'morris feder'
p217
g2
((lp218
Vsam reznick
p219
atp220
Rp221
sVwilliam l.patterson
p222
g2
((lp223
g210
ag48
ag192
atp224
Rp225
sS'simson marcus'
p226
g2
((lp227
g219
atp228
Rp229
sS'jack mondress'
p230
g2
((lp231
g201
atp232
Rp233
sS'mitchell lindeman'
p234
g2
((lp235
Vpaul marion
p236
aVowen vinson
p237
atp238
Rp239
sS'julius dassin'
p240
g2
((lp241
g91
ag53
atp242
Rp243
sS'nat praeger'
p244
g2
((lp245
g28
ag42
atp246
Rp247
sS'joseph schlicht'
p248
g2
((lp249
g58
atp250
Rp251
sS'melva cook'
p252
g2
((lp253
g5
aS'george cook'
p254
ag58
atp255
Rp256
sS'harmon alexander'
p257
g2
((lp258
g236
ag237
atp259
Rp260
sS'kurt davis'
p261
g2
((lp262
g58
atp263
Rp264
sS'daniel trees'
p265
g2
((lp266
g58
atp267
Rp268
sS'raynal lofgren'
p269
g2
((lp270
g190
ag192
atp271
Rp272
sS'bob morrell'
p273
g2
((lp274
g121
atp275
Rp276
sS'walter dorosh'
p277
g2
((lp278
Vshelton tappes
p279
ag58
atp280
Rp281
sS'blaehevherbert'
p282
g2
((lp283
Vrichard collins
p284
atp285
Rp286
sS'ida whipple'
p287
g2
((lp288
g4
atp289
Rp290
sg23
g2
((lp291
g151
ag40
ag115
ag41
ag43
atp292
Rp293
sS'paul endicott'
p294
g2
((lp295
g4
ag58
atp296
Rp297
sS'philip saba'
p298
g2
((lp299
g121
ag201
atp300
Rp301
sS'byron edwards'
p302
g2
((lp303
g279
ag4
atp304
Rp305
sS'malcolm wright'
p306
g2
((lp307
g58
atp308
Rp309
sS'florence covey'
p310
g2
((lp311
g40
atp312
Rp313
sS'selma bachelis'
p314
g2
((lp315
g115
ag34
ag35
ag116
atp316
Rp317
sS'mary robinson'
p318
g2
((lp319
g236
ag237
atp320
Rp321
sS'levi johnson'
p322
g2
((lp323
g48
atp324
Rp325
sS'herbert march'
p326
g2
((lp327
g48
ag192
atp328
Rp329
sS'henry meyers'
p330
g2
((lp331
Vcharles daggett
p332
ag18
atp333
Rp334
sS'mildred pollock'
p335
g2
((lp336
g58
atp337
Rp338
sS'beatrice huff'
p339
g2
((lp340
g210
atp341
Rp342
sS'ann v boatin'
p343
g2
((lp344
S'paul boatin'
p345
ag58
atp346
Rp347
sS'rose segure'
p348
g2
((lp349
g40
atp350
Rp351
sVmrs. joseph losey
p352
g2
((lp353
g18
atp354
Rp355
sS'karen morley'
p356
g2
((lp357
g236
ag332
ag85
ag18
aVmarc lawrence
p358
atp359
Rp360
sS'leonard lauderdale'
p361
g2
((lp362
g58
atp363
Rp364
sS'john sobczak'
p365
g2
((lp366
g58
atp367
Rp368
sS'miriam solomon'
p369
g2
((lp370
g40
atp371
Rp372
sS'nemmy sparks'
p373
g2
((lp374
g91
ag284
ag18
atp375
Rp376
sS'oscar barnes'
p377
g2
((lp378
g172
atp379
Rp380
sg219
g2
((lp381
g40
atp382
Rp383
sS'john saari'
p384
g2
((lp385
g191
atp386
Rp387
sS'floyd mcdonnell'
p388
g2
((lp389
g4
atp390
Rp391
sS'jacob druckman'
p392
g2
((lp393
g219
atp394
Rp395
sS'saul wellman'
p396
g2
((lp397
g58
atp398
Rp399
sS'dave moore'
p400
g2
((lp401
g58
atp402
Rp403
sS'richard l. rykoff'
p404
g2
((lp405
g35
atp406
Rp407
sS'victor shapiro'
p408
g2
((lp409
Vgeorge bassman
p410
atp411
Rp412
sS'florence criley'
p413
g2
((lp414
g110
aS'flo atkinson'
p415
atp416
Rp417
sS'merle work'
p418
g2
((lp419
g4
ag58
atp420
Rp421
sS'carneller foreman'
p422
g2
((lp423
g58
ag5
atp424
Rp425
sS'jess whipple'
p426
g2
((lp427
g4
atp428
Rp429
sS'frank martin'
p430
g2
((lp431
g58
atp432
Rp433
sS'john anderson'
p434
g2
((lp435
g4
ag5
atp436
Rp437
sS'eli jacobson'
p438
g2
((lp439
g410
atp440
Rp441
sS'joseph hittleman'
p442
g2
((lp443
g219
atp444
Rp445
sS'joseph pentacost'
p446
g2
((lp447
g210
atp448
Rp449
sS'katherine ripken'
p450
g2
((lp451
g172
atp452
Rp453
sS'arthur lishner'
p454
g2
((lp455
g454
atp456
Rp457
sS'nettie rubenstein'
p458
g2
((lp459
Vrobert louis stevenson school
p460
atp461
Rp462
sS'john mcternan'
p463
g2
((lp464
g34
ag35
ag116
atp465
Rp466
sS'casper kennedy'
p467
g2
((lp468
g4
atp469
Rp470
sS'james m. simmons'
p471
g2
((lp472
g279
ag5
atp473
Rp474
sS'stanley nowak'
p475
g2
((lp476
g181
atp477
Rp478
sS'pfc. searles'
p479
g2
((lp480
g4
atp481
Rp482
sS'nora hallgren'
p483
g2
((lp484
g91
aVmrs. george hall
p485
ag284
ag86
atp486
Rp487
sS'sam h allen'
p488
g2
((lp489
g35
ag116
atp490
Rp491
sS'gil green'
p492
g2
((lp493
g190
ag210
ag48
ag192
atp494
Rp495
sS'walter stempel'
p496
g2
((lp497
g192
atp498
Rp499
sS'gordon kahn'
p500
g2
((lp501
g86
ag332
ag90
ag89
ag85
ag358
ag284
aVreis rosenberg
p502
ag53
atp503
Rp504
sS'margaret gruen'
p505
g2
((lp506
g15
ag236
atp507
Rp508
sS'marjorie. macgregor'
p509
g2
((lp510
g13
atp511
Rp512
sS'leo t physician'
p513
g2
((lp514
g15
ag88
atp515
Rp516
sS'leroy tribbite'
p517
g2
((lp518
g142
atp519
Rp520
sS'goldie bromberg'
p521
g2
((lp522
g91
aVmrs. george martin
p523
atp524
Rp525
sS'ben terry'
p526
g2
((lp527
g48
atp528
Rp529
sS'elizabeth grant'
p530
g2
((lp531
g15
atp532
Rp533
sS'eric dearnley'
p534
g2
((lp535
g58
atp536
Rp537
sS'william mckie'
p538
g2
((lp539
g279
ag4
atp540
Rp541
sS'ernie sorenson'
p542
g2
((lp543
g5
ag58
atp544
Rp545
sS'nicholas bela'
p546
g2
((lp547
g18
atp548
Rp549
sS'clara ward'
p550
g2
((lp551
g28
ag42
atp552
Rp553
sS'betty gannett'
p554
g2
((lp555
g28
ag42
ag5
atp556
Rp557
sS'milton lester'
p558
g2
((lp559
Vdr. lester
p560
atp561
Rp562
sS'wilford sherrington'
p563
g2
((lp564
g121
atp565
Rp566
sS'howland chamberlin'
p567
g2
((lp568
Vmrs. charles glenn
p569
atp570
Rp571
sS'ann r morgan'
p572
g2
((lp573
Vann roth morgan richards
p574
atp575
Rp576
sS'gordon rosenblum'
p577
g2
((lp578
Vdr. mendell m. krieger
p579
atp580
Rp581
sVmrs. hugo beiswenger
p582
g2
((lp583
g172
ag4
ag5
atp584
Rp585
sS'ben bengal'
p586
g2
((lp587
g18
atp588
Rp589
sS'julia gudinas'
p590
g2
((lp591
g190
ag192
atp592
Rp593
sS'lottie glicker'
p594
g2
((lp595
g192
atp596
Rp597
sS'gale. biberman'
p598
g2
((lp599
S'gale sondergaard'
p600
atp601
Rp602
sS'ring lardner'
p603
g2
((lp604
g15
ag332
ag90
ag603
ag89
ag91
ag284
atp605
Rp606
sS'joseph mccann'
p607
g2
((lp608
g121
atp609
Rp610
sS'bruno bartnick'
p611
g2
((lp612
g210
atp613
Rp614
sS'jessie sehneiderinan'
p615
g2
((lp616
g201
atp617
Rp618
sS'elizabeth l glenn'
p619
g2
((lp620
Velizabeth leech
p621
ag569
atp622
Rp623
sS'bill daley'
p624
g2
((lp625
g4
atp626
Rp627
sVmrs. cliff bollin
p628
g2
((lp629
g58
atp630
Rp631
sS'donnie baron'
p632
g2
((lp633
g58
atp634
Rp635
sS'miss campbell'
p636
g2
((lp637
g4
atp638
Rp639
sS'martha schkurman'
p640
g2
((lp641
g58
atp642
Rp643
sS'louise todd'
p644
g2
((lp645
g28
ag42
atp646
Rp647
sS'grace zarniack'
p648
g2
((lp649
g142
atp650
Rp651
sS'mike gates'
p652
g2
((lp653
g201
atp654
Rp655
sS'donald tiegland'
p656
g2
((lp657
g151
atp658
Rp659
sS'russell coppock'
p660
g2
((lp661
g4
atp662
Rp663
sS'lee barrie'
p664
g2
((lp665
g237
atp666
Rp667
sS'minna klein'
p668
g2
((lp669
g41
ag332
ag43
ag40
ag28
ag42
atp670
Rp671
sS'gladys liefchild'
p672
g2
((lp673
g40
aVmrs. gerald lief
p674
atp675
Rp676
sS'bill lifsee'
p677
g2
((lp678
g5
atp679
Rp680
sS'robert lieberman'
p681
g2
((lp682
g91
ag18
ag191
atp683
Rp684
sVmr. cham
p685
g2
((lp686
Vben davis club
p687
ag4
atp688
Rp689
sS'dewey garrett'
p690
g2
((lp691
g5
atp692
Rp693
sS'joe. bentzenhoffer'
p694
g2
((lp695
S'joseph bezenhoffer'
p696
atp697
Rp698
sS'clem dalton'
p699
g2
((lp700
g58
atp701
Rp702
sS'leroy krawford'
p703
g2
((lp704
g279
ag5
atp705
Rp706
sS'matt pellman'
p707
g2
((lp708
Vmike martin
p709
aVmax appleinan
p710
aVmax silver
p711
atp712
Rp713
sS'aldo sandretto'
p714
g2
((lp715
g58
atp716
Rp717
sS'dr. perry'
p718
g2
((lp719
Vthomas l. louise light silver
p720
atp721
Rp722
sS'ann delancey'
p723
g2
((lp724
g5
atp725
Rp726
sS'fred davey'
p727
g2
((lp728
g4
atp729
Rp730
sS'bridget poison'
p731
g2
((lp732
g58
atp733
Rp734
sS'sidney benson'
p735
g2
((lp736
Velia kazan
p737
aVclifford odets
p738
ag18
atp739
Rp740
sS'vida drown'
p741
g2
((lp742
g4
atp743
Rp744
sVt. kratz
p745
g2
((lp746
g190
ag579
atp747
Rp748
sS'paul trivers'
p749
g2
((lp750
g91
ag87
ag85
ag53
atp751
Rp752
sg600
g2
((lp753
Vedith holm sond
p754
aVmrs. herbert biberman
p755
atp756
Rp757
sS'ellen davidson'
p758
g2
((lp759
g236
atp760
Rp761
sg10
g2
((lp762
S'elliot maraniss'
p763
ag58
atp764
Rp765
sS'gus gustofson'
p766
g2
((lp767
g151
atp768
Rp769
sVcatherine hall
p770
g2
((lp771
g151
atp772
Rp773
sS'anthony koss'
p774
g2
((lp775
g190
atp776
Rp777
sS'james jones'
p778
g2
((lp779
g279
atp780
Rp781
sS'tersil t. obriot'
p782
g2
((lp783
g279
ag58
atp784
Rp785
sS'kenneth roach'
p786
g2
((lp787
g58
atp788
Rp789
sS'rose banks'
p790
g2
((lp791
g4
atp792
Rp793
sS'paul brooks'
p794
g2
((lp795
g58
ag5
atp796
Rp797
sS'sam donchin'
p798
g2
((lp799
g201
atp800
Rp801
sS'mortimer offner'
p802
g2
((lp803
g15
ag709
aVmrs. bob roberts
p804
aVmelvin levy
p805
ag18
atp806
Rp807
sS'leo ploetchl'
p808
g2
((lp809
g58
atp810
Rp811
sS'eleanor price'
p812
g2
((lp813
g121
atp814
Rp815
sS'david engelstein'
p816
g2
((lp817
g192
atp818
Rp819
sS'rose elfman'
p820
g2
((lp821
g42
atp822
Rp823
sS'james keller'
p824
g2
((lp825
g4
ag5
atp826
Rp827
sS'andrew overgaard'
p828
g2
((lp829
g737
ag738
atp830
Rp831
sS'warren batterson'
p832
g2
((lp833
g151
atp834
Rp835
sS'randolph luke'
p836
g2
((lp837
g48
atp838
Rp839
sS'charles spencer'
p840
g2
((lp841
g201
atp842
Rp843
sS'allen matthews'
p844
g2
((lp845
g15
atp846
Rp847
sS'tom nabried'
p848
g2
((lp849
g121
ag201
atp850
Rp851
sS'stephanie allan'
p852
g2
((lp853
Vmrs. william
p854
ag58
atp855
Rp856
sS'jan jeffries'
p857
g2
((lp858
g737
aVn. y.
p859
ag90
ag738
ag91
ag28
ag284
aS'henry blankfort'
p860
atp861
Rp862
sS'albert maltz'
p863
g2
((lp864
g86
ag87
ag89
ag91
ag284
ag502
ag53
atp865
Rp866
sS'charles j newspaperman'
p867
g2
((lp868
g40
ag41
atp869
Rp870
sS'george sklar'
p871
g2
((lp872
g86
ag76
atp873
Rp874
sS'helen gardner'
p875
g2
((lp876
g41
ag43
atp877
Rp878
sS'barbara springer'
p879
g2
((lp880
g5
atp881
Rp882
sg621
g2
((lp883
g237
ag15
ag86
ag18
ag91
ag284
ag92
atp884
Rp885
sS'tania tuttle'
p886
g2
((lp887
g90
ag502
ag87
atp888
Rp889
sS'louis sciverras'
p890
g2
((lp891
g5
atp892
Rp893
sS'sam kushner'
p894
g2
((lp895
g190
ag192
atp896
Rp897
sS'samuel sillen'
p898
g2
((lp899
g236
atp900
Rp901
sS'mary bray'
p902
g2
((lp903
g172
ag58
atp904
Rp905
sS'alice ferris'
p906
g2
((lp907
g5
atp908
Rp909
sVmildred perl
p910
g2
((lp911
S'mildred. pierce'
p912
ag58
atp913
Rp914
sS'walter lowenfels'
p915
g2
((lp916
g201
atp917
Rp918
sVmrs. carl palmquist
p919
g2
((lp920
g58
atp921
Rp922
sS'jean pestana'
p923
g2
((lp924
g35
atp925
Rp926
sVmrs. irving riskin
p927
g2
((lp928
g172
ag927
ag5
atp929
Rp930
sS'jack nedelman'
p931
g2
((lp932
g40
aVdr. nedelman
p933
ag41
ag42
ag43
atp934
Rp935
sS'ina lamaux'
p936
g2
((lp937
g192
atp938
Rp939
sS'robert scott'
p940
g2
((lp941
g192
atp942
Rp943
sS'ralph smith'
p944
g2
((lp945
g28
atp946
Rp947
sS'oleta o yates'
p948
g2
((lp949
Voleta o'connor
p950
atp951
Rp952
sS'lewis leverett'
p953
g2
((lp954
g737
ag738
atp955
Rp956
sS'louise koczyalka'
p957
g2
((lp958
g957
ag121
atp959
Rp960
sS'ben polin'
p961
g2
((lp962
g236
atp963
Rp964
sS'fred steinmetz'
p965
g2
((lp966
g115
ag711
ag34
ag35
ag116
atp967
Rp968
sS'annie alexander'
p969
g2
((lp970
g48
atp971
Rp972
sS'lionel stander'
p973
g2
((lp974
g28
ag42
ag358
atp975
Rp976
sS'archie acciacca'
p977
g2
((lp978
g58
ag191
atp979
Rp980
sS'harry boskey'
p981
g2
((lp982
g4
ag58
atp983
Rp984
sS'jerry bond'
p985
g2
((lp986
g4
atp987
Rp988
sS'vera harris'
p989
g2
((lp990
g15
ag28
ag42
atp991
Rp992
sS'charlotte hull'
p993
g2
((lp994
g28
ag42
atp995
Rp996
sS'william sheehan'
p997
g2
((lp998
g192
atp999
Rp1000
sS'omar kidwell'
p1001
g2
((lp1002
g4
atp1003
Rp1004
sS'herman burt'
p1005
g2
((lp1006
g58
atp1007
Rp1008
sS'murray abowitz'
p1009
g2
((lp1010
g76
ag579
atp1011
Rp1012
sS'wilma persley'
p1013
g2
((lp1014
g142
atp1015
Rp1016
sS'nancy reeves'
p1017
g2
((lp1018
g35
atp1019
Rp1020
sS'tom chapman'
p1021
g2
((lp1022
g15
atp1023
Rp1024
sS'mr. black'
p1025
g2
((lp1026
g4
atp1027
Rp1028
sS'john wexley'
p1029
g2
((lp1030
g4
ag18
ag53
atp1031
Rp1032
sS'jessie burns'
p1033
g2
((lp1034
g15
ag86
atp1035
Rp1036
sS'sam a darcy'
p1037
g2
((lp1038
g28
ag42
ag121
atp1039
Rp1040
sS'mabel mitchell'
p1041
g2
((lp1042
g5
atp1043
Rp1044
sg755
g2
((lp1045
g15
ag86
ag90
ag87
ag88
ag85
ag91
ag502
ag53
atp1046
Rp1047
sS'edwin schoenfeld'
p1048
g2
((lp1049
g210
atp1050
Rp1051
sS'maurice murphy'
p1052
g2
((lp1053
g15
ag86
atp1054
Rp1055
sS'milt kashner'
p1056
g2
((lp1057
g40
atp1058
Rp1059
sS'william holther'
p1060
g2
((lp1061
g42
atp1062
Rp1063
sS'charles lindouf'
p1064
g2
((lp1065
g58
atp1066
Rp1067
sS'claude lightfoot'
p1068
g2
((lp1069
g192
atp1070
Rp1071
sS'norman smith'
p1072
g2
((lp1073
g121
atp1074
Rp1075
sS'j masee'
p1076
g2
((lp1077
g5
atp1078
Rp1079
sS'alfred levitt'
p1080
g2
((lp1081
g805
atp1082
Rp1083
sS'jane trivers'
p1084
g2
((lp1085
g85
ag87
atp1086
Rp1087
sS'george willner'
p1088
g2
((lp1089
g86
ag805
ag502
atp1090
Rp1091
sS'maurice cook'
p1092
g2
((lp1093
g172
ag4
ag58
ag5
atp1094
Rp1095
sS'barbara stern'
p1096
g2
((lp1097
g58
ag5
atp1098
Rp1099
sS'alexander riskin'
p1100
g2
((lp1101
g219
atp1102
Rp1103
sS'alan campbell'
p1104
g2
((lp1105
S'dorothy parker'
p1106
atp1107
Rp1108
sS'dan slinger'
p1109
g2
((lp1110
g201
atp1111
Rp1112
sS'ruth yanover'
p1113
g2
((lp1114
g5
atp1115
Rp1116
sVtim potter
p1117
g2
((lp1118
g28
atp1119
Rp1120
sS'joe balsis'
p1121
g2
((lp1122
g142
atp1123
Rp1124
sS'edward brown'
p1125
g2
((lp1126
g210
ag192
atp1127
Rp1128
sS'marie rinaldo'
p1129
g2
((lp1130
g859
ag18
atp1131
Rp1132
sS'annette harper'
p1133
g2
((lp1134
g236
ag142
ag237
atp1135
Rp1136
sg805
g2
((lp1137
g121
atp1138
Rp1139
sS'arthur hendle'
p1140
g2
((lp1141
g151
atp1142
Rp1143
sS'alice buchmah'
p1144
g2
((lp1145
Vmorris l. appelman
p1146
atp1147
Rp1148
sS'dave davis'
p1149
g2
((lp1150
g121
ag201
atp1151
Rp1152
sVsonja dahl
p1153
g2
((lp1154
g91
ag15
aVleona martin
p1155
aVf. martin
p1156
ag85
atp1157
Rp1158
sS'andy barrigan'
p1159
g2
((lp1160
g41
atp1161
Rp1162
sS'leo t. orsage'
p1163
g2
((lp1164
g279
ag58
atp1165
Rp1166
sS'bob cohn'
p1167
g2
((lp1168
g40
atp1169
Rp1170
sS'emily gordon'
p1171
g2
((lp1172
g1171
aVmrs. julian gordon
p1173
ag58
atp1174
Rp1175
sS'yal burton'
p1176
g2
((lp1177
g76
atp1178
Rp1179
sS'ginny lee'
p1180
g2
((lp1181
g4
atp1182
Rp1183
sS'these organizations communists'
p1184
g2
((lp1185
S'william r. hood'
p1186
ag859
atp1187
Rp1188
sS'allen l ryan'
p1189
g2
((lp1190
g711
atp1191
Rp1192
sS'murray borad'
p1193
g2
((lp1194
g58
atp1195
Rp1196
sS'dewey mcgee'
p1197
g2
((lp1198
g191
atp1199
Rp1200
sg16
g2
((lp1201
Vgregor manoff
p1202
atp1203
Rp1204
sS'betty arden'
p1205
g2
((lp1206
g42
atp1207
Rp1208
sg415
g2
((lp1209
g110
atp1210
Rp1211
sS'sondra gorney'
p1212
g2
((lp1213
g332
ag18
atp1214
Rp1215
sS'fred moore'
p1216
g2
((lp1217
g210
atp1218
Rp1219
sS'lauren taylor'
p1220
g2
((lp1221
g121
aVbaldwin locomotive
p1222
atp1223
Rp1224
sS'william connors'
p1225
g2
((lp1226
g5
atp1227
Rp1228
sS'isaac folkoff'
p1229
g2
((lp1230
Vsterling hayden
p1231
atp1232
Rp1233
sS'bob reed'
p1234
g2
((lp1235
g4
ag5
atp1236
Rp1237
sS'sidney druckman'
p1238
g2
((lp1239
S'dr. decker'
p1240
atp1241
Rp1242
sS'helen allison'
p1243
g2
((lp1244
g1243
atp1245
Rp1246
sS'bernard lucas'
p1247
g2
((lp1248
g192
atp1249
Rp1250
sS'alex greenherg'
p1251
g2
((lp1252
g85
atp1253
Rp1254
sS'jack j pompquist'
p1255
g2
((lp1256
g58
atp1257
Rp1258
sS'jim frazier'
p1259
g2
((lp1260
g4
atp1261
Rp1262
sS'willie newman'
p1263
g2
((lp1264
g5
atp1265
Rp1266
sVjanet stephenson
p1267
g2
((lp1268
Vjanet george glass
p1269
ag1267
ag76
aVmrs. philip steven
p1270
atp1271
Rp1272
sS'harold wells'
p1273
g2
((lp1274
g58
atp1275
Rp1276
sS'perry dunson'
p1277
g2
((lp1278
g48
atp1279
Rp1280
sS'robert travis'
p1281
g2
((lp1282
g151
atp1283
Rp1284
sS'hodges mason'
p1285
g2
((lp1286
g58
atp1287
Rp1288
sS'howard fast'
p1289
g2
((lp1290
g121
atp1291
Rp1292
sS'mary mclntyre'
p1293
g2
((lp1294
Vann arbor
p1295
ag132
ag58
atp1296
Rp1297
sS'eva pitcher'
p1298
g2
((lp1299
g4
atp1300
Rp1301
sS'alfred wagenknecht'
p1302
g2
((lp1303
g192
atp1304
Rp1305
sS'arthur mcphaul'
p1306
g2
((lp1307
g172
ag279
ag4
ag58
ag5
atp1308
Rp1309
sS'ben margolis'
p1310
g2
((lp1311
Vmrs. milton freeman
p1312
atp1313
Rp1314
sS'louis l. kaplan'
p1315
g2
((lp1316
g121
atp1317
Rp1318
sS'max ireland'
p1319
g2
((lp1320
g172
atp1321
Rp1322
sS'mischa altman'
p1323
g2
((lp1324
g88
atp1325
Rp1326
sS'abner berry'
p1327
g2
((lp1328
g4
ag5
atp1329
Rp1330
sS'betty ireland'
p1331
g2
((lp1332
g172
ag5
atp1333
Rp1334
sS'james widmark'
p1335
g2
((lp1336
g4
atp1337
Rp1338
sS'elizabeth clark'
p1339
g2
((lp1340
g5
atp1341
Rp1342
sS'alexander trachtenberg'
p1343
g2
((lp1344
Vlouis f. budenz
p1345
atp1346
Rp1347
sS'clarence hathaway'
p1348
g2
((lp1349
g43
atp1350
Rp1351
sS'louis perry'
p1352
g2
((lp1353
g5
atp1354
Rp1355
sS'james dawkins'
p1356
g2
((lp1357
g190
ag192
atp1358
Rp1359
sS'ruth levitova'
p1360
g2
((lp1361
g192
atp1362
Rp1363
sS'dick jones'
p1364
g2
((lp1365
g4
atp1366
Rp1367
sS'jessie obitz'
p1368
g2
((lp1369
g48
atp1370
Rp1371
sS'sven falk'
p1372
g2
((lp1373
g4
ag58
atp1374
Rp1375
sS'otis revis'
p1376
g2
((lp1377
g58
atp1378
Rp1379
sS'joe dougher'
p1380
g2
((lp1381
g201
atp1382
Rp1383
sS'radio electrical'
p1384
g2
((lp1385
g210
ag190
ag151
ag192
ag48
ag142
atp1386
Rp1387
sS'edward goodlaw'
p1388
g2
((lp1389
Vdr. goodlaw optometrist
p1390
atp1391
Rp1392
sS'jane grodzins'
p1393
g2
((lp1394
g35
atp1395
Rp1396
sS'lester cole'
p1397
g2
((lp1398
g15
ag86
ag90
ag92
ag805
ag91
ag358
ag284
ag502
ag53
atp1399
Rp1400
sS'pauline epstein'
p1401
g2
((lp1402
g33
ag35
ag116
atp1403
Rp1404
sS'robert rossen'
p1405
g2
((lp1406
g89
ag284
ag18
ag502
atp1407
Rp1408
sS'herbert klein'
p1409
g2
((lp1410
g28
atp1411
Rp1412
sS'oscar elkins'
p1413
g2
((lp1414
g219
atp1415
Rp1416
sS'carl dorfman'
p1417
g2
((lp1418
g805
ag85
aVwilliam z. foster
p1419
atp1420
Rp1421
sS'ruth webb'
p1422
g2
((lp1423
g181
ag5
atp1424
Rp1425
sS'george corey'
p1426
g2
((lp1427
g58
ag53
atp1428
Rp1429
sS'louis seofield'
p1430
g2
((lp1431
Vmr. vinson
p1432
aVmr. seofield
p1433
ag237
atp1434
Rp1435
sS'joe brandt'
p1436
g2
((lp1437
g4
ag58
atp1438
Rp1439
sS'mollie penkovosky'
p1440
g2
((lp1441
g48
atp1442
Rp1443
sg17
g2
((lp1444
g15
ag42
ag18
ag53
atp1445
Rp1446
sS'herta uerkvitz'
p1447
g2
((lp1448
g15
atp1449
Rp1450
sS'john berry'
p1451
g2
((lp1452
g91
ag18
ag85
ag87
atp1453
Rp1454
sS'aubrey finn'
p1455
g2
((lp1456
g34
ag35
atp1457
Rp1458
sS'frank sykes'
p1459
g2
((lp1460
g4
ag58
atp1461
Rp1462
sg912
g2
((lp1463
g335
atp1464
Rp1465
sS'edwin davis'
p1466
g2
((lp1467
Vhoward dr. mendell krieger
p1468
ag76
atp1469
Rp1470
sS'george siskin'
p1471
g2
((lp1472
g121
ag4
atp1473
Rp1474
sS'carleton moss'
p1475
g2
((lp1476
g502
atp1477
Rp1478
sS'mortimer w pomerance'
p1479
g2
((lp1480
Veugene fleury
p1481
atp1482
Rp1483
sS'robert brown'
p1484
g2
((lp1485
g58
atp1486
Rp1487
sS'cea geiselman'
p1488
g2
((lp1489
g201
aVmrs. joe kres
p1490
atp1491
Rp1492
sS'hank ripken'
p1493
g2
((lp1494
g58
atp1495
Rp1496
sS'jane. wallace'
p1497
g2
((lp1498
g28
atp1499
Rp1500
sS'emil freed'
p1501
g2
((lp1502
g28
ag410
atp1503
Rp1504
sS'ken pettus'
p1505
g2
((lp1506
g237
atp1507
Rp1508
sS'irving herman'
p1509
g2
((lp1510
g192
atp1511
Rp1512
sS'norma barzman'
p1513
g2
((lp1514
g76
ag18
atp1515
Rp1516
sS'janette scofield'
p1517
g2
((lp1518
g237
atp1519
Rp1520
sS'leo cottrell'
p1521
g2
((lp1522
g58
atp1523
Rp1524
sg860
g2
((lp1525
g53
atp1526
Rp1527
sVmrs. abraham polonsky
p1528
g2
((lp1529
g85
ag332
ag284
ag18
ag502
atp1530
Rp1531
sS'abe feinglass'
p1532
g2
((lp1533
g192
atp1534
Rp1535
sS'alvin frisbie'
p1536
g2
((lp1537
g210
atp1538
Rp1539
sS'russell kitto'
p1540
g2
((lp1541
g58
atp1542
Rp1543
sS'emma williams'
p1544
g2
((lp1545
g58
atp1546
Rp1547
sS'ceorge shanta'
p1548
g2
((lp1549
g142
atp1550
Rp1551
sS'elliott grennard'
p1552
g2
((lp1553
g76
atp1554
Rp1555
sS'abe sokolov'
p1556
g2
((lp1557
g201
atp1558
Rp1559
sS'pat killoran'
p1560
g2
((lp1561
g40
ag41
ag43
atp1562
Rp1563
sS'leon turrett'
p1564
g2
((lp1565
g33
ag35
atp1566
Rp1567
sS'sue showerman'
p1568
g2
((lp1569
g58
atp1570
Rp1571
sS'georgia backus'
p1572
g2
((lp1573
g236
ag237
atp1574
Rp1575
sS'michael uris'
p1576
g2
((lp1577
g91
ag502
ag53
atp1578
Rp1579
sS'lee pressman'
p1580
g2
((lp1581
g1345
atp1582
Rp1583
sS'edward turner'
p1584
g2
((lp1585
g172
ag859
ag58
ag5
atp1586
Rp1587
sS'kathleen goldman'
p1588
g2
((lp1589
Vmrs. harold gold
p1590
atp1591
Rp1592
sS'sam moore'
p1593
g2
((lp1594
g237
atp1595
Rp1596
sS'sonora babb'
p1597
g2
((lp1598
g410
atp1599
Rp1600
sS'henderson gates'
p1601
g2
((lp1602
g5
atp1603
Rp1604
sS'frank pestana'
p1605
g2
((lp1606
g34
ag35
ag116
atp1607
Rp1608
sS'mary page'
p1609
g2
((lp1610
Vmary reed
p1611
ag58
ag5
aVfred elesio
p1612
atp1613
Rp1614
sS'nelson davis'
p1615
g2
((lp1616
g172
ag279
ag4
ag58
atp1617
Rp1618
sg569
g2
((lp1619
g91
ag236
ag284
ag18
atp1620
Rp1621
sS'dick fiske'
p1622
g2
((lp1623
g15
atp1624
Rp1625
sS'lilith james'
p1626
g2
((lp1627
g76
atp1628
Rp1629
sS'peggy wellman'
p1630
g2
((lp1631
g58
atp1632
Rp1633
sS'ann beiswenger'
p1634
g2
((lp1635
g582
ag172
ag4
ag5
ag191
atp1636
Rp1637
sS'dorothy uris'
p1638
g2
((lp1639
g91
ag58
ag85
ag502
ag87
atp1640
Rp1641
sS'clarence sanders'
p1642
g2
((lp1643
g58
atp1644
Rp1645
sS'harold buchman'
p1646
g2
((lp1647
g15
ag89
ag18
atp1648
Rp1649
sg67
g2
((lp1650
g58
atp1651
Rp1652
sS'lillian jones'
p1653
g2
((lp1654
g28
atp1655
Rp1656
sS'rude lambert'
p1657
g2
((lp1658
g42
atp1659
Rp1660
sS'dolph winebrenner'
p1661
g2
((lp1662
g40
ag332
ag41
ag43
atp1663
Rp1664
sg106
g2
((lp1665
g58
atp1666
Rp1667
sS'bess taffel'
p1668
g2
((lp1669
g18
atp1670
Rp1671
sS'helen sanberg'
p1672
g2
((lp1673
S'jack sanberg'
p1674
ag5
atp1675
Rp1676
sS'miss s wells'
p1677
g2
((lp1678
Vmrs. arnaud d'us
p1679
atp1680
Rp1681
sS'paul jarrico'
p1682
g2
((lp1683
g15
ag86
ag332
ag90
ag88
ag89
ag1682
ag236
ag284
ag502
atp1684
Rp1685
sS'morris carnovsky'
p1686
g2
((lp1687
g737
ag332
ag18
ag358
atp1688
Rp1689
sS'royce kennedy'
p1690
g2
((lp1691
g58
atp1692
Rp1693
sS'capt. ward tompkins'
p1694
g2
((lp1695
Vmr. townsend
p1696
ag18
atp1697
Rp1698
sS'pat callahan'
p1699
g2
((lp1700
g28
atp1701
Rp1702
sS'bella l reynolds'
p1703
g2
((lp1704
Vmrs. roy thompson
p1705
atp1706
Rp1707
sS'katie lee'
p1708
g2
((lp1709
g58
ag5
atp1710
Rp1711
sS'virginia kibre'
p1712
g2
((lp1713
g28
ag42
atp1714
Rp1715
sS'daniel zahari'
p1716
g2
((lp1717
g58
ag191
atp1718
Rp1719
sS'jack robinson'
p1720
g2
((lp1721
g236
atp1722
Rp1723
sS'fred gebelle'
p1724
g2
((lp1725
g58
atp1726
Rp1727
sS'lawrence ross'
p1728
g2
((lp1729
g28
ag42
atp1730
Rp1731
sS'felix miller'
p1732
g2
((lp1733
g172
ag5
atp1734
Rp1735
sS'sarah levine'
p1736
g2
((lp1737
g151
atp1738
Rp1739
sS'max weiss'
p1740
g2
((lp1741
g192
atp1742
Rp1743
sS'nina klowden'
p1744
g2
((lp1745
g236
ag237
atp1746
Rp1747
sS'jesse parrish'
p1748
g2
((lp1749
g4
ag5
atp1750
Rp1751
sS'samuel m kaplan'
p1752
g2
((lp1753
g121
atp1754
Rp1755
sS'leonard cohen'
p1756
g2
((lp1757
g58
atp1758
Rp1759
sS'william chandler'
p1760
g2
((lp1761
g58
atp1762
Rp1763
sS'henry winston'
p1764
g2
((lp1765
g4
atp1766
Rp1767
sS'charles walters'
p1768
g2
((lp1769
g58
atp1770
Rp1771
sS'sylvia. marrow'
p1772
g2
((lp1773
g1528
atp1774
Rp1775
sS'elinor maki'
p1776
g2
((lp1777
g854
ag58
atp1778
Rp1779
sS'john nowak'
p1780
g2
((lp1781
g58
atp1782
Rp1783
sS'walter kempler'
p1784
g2
((lp1785
g1784
atp1786
Rp1787
sS'ambur salt'
p1788
g2
((lp1789
g284
atp1790
Rp1791
sS'seymour mandell'
p1792
g2
((lp1793
g34
ag35
ag116
atp1794
Rp1795
sS'harold koppelman'
p1796
g2
((lp1797
g1796
atp1798
Rp1799
sS'phil raymond'
p1800
g2
((lp1801
g4
ag58
atp1802
Rp1803
sS'norris wood'
p1804
g2
((lp1805
g121
atp1806
Rp1807
sS'yield kramer'
p1808
g2
((lp1809
g210
atp1810
Rp1811
sS'harry glassgold'
p1812
g2
((lp1813
g5
atp1814
Rp1815
sS'jimmy allen'
p1816
g2
((lp1817
g28
ag42
atp1818
Rp1819
sS'ruth beeman'
p1820
g2
((lp1821
g28
ag42
atp1822
Rp1823
sS'alvin hammer'
p1824
g2
((lp1825
g236
atp1826
Rp1827
sS'roy hudson'
p1828
g2
((lp1829
g4
atp1830
Rp1831
sS'leola cones'
p1832
g2
((lp1833
g4
atp1834
Rp1835
sS'timothy shay'
p1836
g2
((lp1837
g172
ag1117
ag5
atp1838
Rp1839
sS'saul grossman'
p1840
g2
((lp1841
g58
atp1842
Rp1843
sS'hilliard chamblis'
p1844
g2
((lp1845
g58
atp1846
Rp1847
sS'leo gallagher'
p1848
g2
((lp1849
g35
atp1850
Rp1851
sg34
g2
((lp1852
g115
ag35
ag116
atp1853
Rp1854
sS'joe bernstein'
p1855
g2
((lp1856
g172
ag151
ag58
ag5
atp1857
Rp1858
sS'joseph aidlin'
p1859
g2
((lp1860
g28
ag332
atp1861
Rp1862
sS'terry clark'
p1863
g2
((lp1864
g5
atp1865
Rp1866
sS'julian shapiro'
p1867
g2
((lp1868
g35
aS'john sanford'
p1869
atp1870
Rp1871
sS'samuel ornitz'
p1872
g2
((lp1873
g15
ag284
ag502
atp1874
Rp1875
sS'florence hall'
p1876
g2
((lp1877
g190
ag192
atp1878
Rp1879
sS'maureen ryan'
p1880
g2
((lp1881
g40
atp1882
Rp1883
sS'marguerite. sanford'
p1884
g2
((lp1885
Vmarguerite roberts
p1886
atp1887
Rp1888
sS'gay bailey'
p1889
g2
((lp1890
g5
atp1891
Rp1892
sS'tiba willner'
p1893
g2
((lp1894
g86
atp1895
Rp1896
sS'leonardo bercovici'
p1897
g2
((lp1898
g284
ag53
atp1899
Rp1900
sS'ernest scott'
p1901
g2
((lp1902
g121
atp1903
Rp1904
sS'marta bogner'
p1905
g2
((lp1906
g40
atp1907
Rp1908
sS'guy endore'
p1909
g2
((lp1910
g76
atp1911
Rp1912
sS'shirley bollin'
p1913
g2
((lp1914
g628
ag58
atp1915
Rp1916
sS'booker white'
p1917
g2
((lp1918
g210
atp1919
Rp1920
sVmrs. ronald mcintosh
p1921
g2
((lp1922
g4
atp1923
Rp1924
sS'dorothy pezinan'
p1925
g2
((lp1926
g40
atp1927
Rp1928
sS'george kristalsky'
p1929
g2
((lp1930
g181
ag4
atp1931
Rp1932
sS'jane wilson'
p1933
g2
((lp1934
g28
atp1935
Rp1936
sS'sylvia jarrico'
p1937
g2
((lp1938
g15
ag1937
ag18
atp1939
Rp1940
sVpauline lauber finn
p1941
g2
((lp1942
g1455
atp1943
Rp1944
sS'henry jansen'
p1945
g2
((lp1946
g58
atp1947
Rp1948
sS'frank stepanchenko'
p1949
g2
((lp1950
g191
atp1951
Rp1952
sS'james anderson'
p1953
g2
((lp1954
g172
ag5
atp1955
Rp1956
sS'frederick reynolds'
p1957
g2
((lp1958
g219
atp1959
Rp1960
sS'larry davis'
p1961
g2
((lp1962
g58
atp1963
Rp1964
sS'mabel wilson'
p1965
g2
((lp1966
g151
ag87
atp1967
Rp1968
sg28
g2
((lp1969
g151
ag121
ag58
atp1970
Rp1971
sS'helen tenney'
p1972
g2
((lp1973
g1345
atp1974
Rp1975
sS'bernyce p fleury'
p1976
g2
((lp1977
Vmrs. eugene
p1978
atp1979
Rp1980
sS'lucy stander'
p1981
g2
((lp1982
g28
ag332
ag42
atp1983
Rp1984
sS'leo bigelman'
p1985
g2
((lp1986
g219
atp1987
Rp1988
sS'herbert blache'
p1989
g2
((lp1990
g284
atp1991
Rp1992
sS'ann r richards'
p1993
g2
((lp1994
g76
atp1995
Rp1996
sS'elinor l cook'
p1997
g2
((lp1998
g172
ag1776
ag5
atp1999
Rp2000
sS'mr. dillard'
p2001
g2
((lp2002
g5
atp2003
Rp2004
sg1106
g2
((lp2005
g1104
atp2006
Rp2007
sg1186
g2
((lp2008
g279
atp2009
Rp2010
sS'norman ross'
p2011
g2
((lp2012
g4
atp2013
Rp2014
sS'philip frankfeld'
p2015
g2
((lp2016
g121
atp2017
Rp2018
sS'gerald liefchild'
p2019
g2
((lp2020
g40
atp2021
Rp2022
sS'tom defazio'
p2023
g2
((lp2024
g121
ag201
atp2025
Rp2026
sS'charles lassiter'
p2027
g2
((lp2028
g210
atp2029
Rp2030
sS'waldo salt'
p2031
g2
((lp2032
g284
ag18
ag88
ag90
ag859
ag502
atp2033
Rp2034
sS'madelaine ruthven'
p2035
g2
((lp2036
Velizaltetb wilson
p2037
ag86
ag88
ag91
ag284
ag502
atp2038
Rp2039
sS'tommy dennis'
p2040
g2
((lp2041
g4
atp2042
Rp2043
sS'lem harris'
p2044
g2
((lp2045
g15
ag28
ag42
ag192
atp2046
Rp2047
sS'jean johnson'
p2048
g2
((lp2049
g5
atp2050
Rp2051
sS'matt savola'
p2052
g2
((lp2053
g4
ag58
ag5
atp2054
Rp2055
sS'max helfand'
p2056
g2
((lp2057
g121
atp2058
Rp2059
sS'rose rosenberg'
p2060
g2
((lp2061
g40
ag34
atp2062
Rp2063
sg763
g2
((lp2064
g58
atp2065
Rp2066
sS'jean erickson'
p2067
g2
((lp2068
g142
atp2069
Rp2070
sS'george hallgren'
p2071
g2
((lp2072
g86
atp2073
Rp2074
sS'jesse perez'
p2075
g2
((lp2076
g48
atp2077
Rp2078
sS'virginia schulberg'
p2079
g2
((lp2080
g15
aVmrs. peter martin
p2081
atp2082
Rp2083
sS'john little'
p2084
g2
((lp2085
g4
atp2086
Rp2087
sS'michael gordon'
p2088
g2
((lp2089
g91
atp2090
Rp2091
sS'matt snyder'
p2092
g2
((lp2093
g121
atp2094
Rp2095
sS'leo simon'
p2096
g2
((lp2097
g40
ag332
ag41
atp2098
Rp2099
sS'beatrice buchman'
p2100
g2
((lp2101
Vmrs. sidney buch
p2102
atp2103
Rp2104
sS'chris alston'
p2105
g2
((lp2106
g58
ag5
atp2107
Rp2108
sS'nick baltic'
p2109
g2
((lp2110
g58
atp2111
Rp2112
sS'ray blossom'
p2113
g2
((lp2114
g4
ag58
atp2115
Rp2116
sS'helen winter'
p2117
g2
((lp2118
g172
ag4
ag58
ag5
atp2119
Rp2120
sS'frank allen'
p2121
g2
((lp2122
g48
ag192
atp2123
Rp2124
sS'phil schatz'
p2125
g2
((lp2126
g4
ag58
atp2127
Rp2128
sS'harry fainaru'
p2129
g2
((lp2130
g4
atp2131
Rp2132
sS'ethel spiller'
p2133
g2
((lp2134
g121
atp2135
Rp2136
sS'pat amato'
p2137
g2
((lp2138
g190
ag192
atp2139
Rp2140
sS'john lymber'
p2141
g2
((lp2142
g5
atp2143
Rp2144
sS'ned gorgolinski'
p2145
g2
((lp2146
g190
ag192
atp2147
Rp2148
sS'sidney buchman'
p2149
g2
((lp2150
g2149
atp2151
Rp2152
sS'katherine lynch'
p2153
g2
((lp2154
g5
atp2155
Rp2156
sS'john k ellis'
p2157
g2
((lp2158
Vjohn joseph ellis
p2159
atp2160
Rp2161
sS'jonathan eddy'
p2162
g2
((lp2163
g332
atp2164
Rp2165
sS'steve simmons'
p2166
g2
((lp2167
g58
atp2168
Rp2169
sS'david hilberman'
p2170
g2
((lp2171
g1481
aVmrs. david hilber
p2172
atp2173
Rp2174
sS'mary casaro'
p2175
g2
((lp2176
g151
atp2177
Rp2178
sS'thomas anderson'
p2179
g2
((lp2180
g172
ag5
atp2181
Rp2182
sS'symanthia washington'
p2183
g2
((lp2184
g48
atp2185
Rp2186
sS'stanley adamski'
p2187
g2
((lp2188
g4
ag58
atp2189
Rp2190
sS'james cutno'
p2191
g2
((lp2192
g48
atp2193
Rp2194
sS'harry freed'
p2195
g2
((lp2196
g192
atp2197
Rp2198
sS'nina parris'
p2199
g2
((lp2200
g121
atp2201
Rp2202
sS'ike greenberg'
p2203
g2
((lp2204
g4
atp2205
Rp2206
sS'sam hammersmark'
p2207
g2
((lp2208
g192
atp2209
Rp2210
sS'joe dennis'
p2211
g2
((lp2212
g48
atp2213
Rp2214
sS'russell a nixon'
p2215
g2
((lp2216
g201
atp2217
Rp2218
sS'paul henley'
p2219
g2
((lp2220
g4
ag58
ag5
atp2221
Rp2222
sS'hazel gray'
p2223
g2
((lp2224
g210
atp2225
Rp2226
sS'bob cummins'
p2227
g2
((lp2228
g58
atp2229
Rp2230
sS'irwin lieberman'
p2231
g2
((lp2232
g85
atp2233
Rp2234
sS'sidney barclay'
p2235
g2
((lp2236
g58
atp2237
Rp2238
sS'fred graff'
p2239
g2
((lp2240
Vmr. graff
p2241
atp2242
Rp2243
sS'john watkins'
p2244
g2
((lp2245
g151
atp2246
Rp2247
sS'spencer austrian'
p2248
g2
((lp2249
g28
ag42
atp2250
Rp2251
sg1312
g2
((lp2252
g5
atp2253
Rp2254
sS'helen palmquist'
p2255
g2
((lp2256
g919
ag58
atp2257
Rp2258
sS'leo turner'
p2259
g2
((lp2260
g192
atp2261
Rp2262
sS'mike karpa'
p2263
g2
((lp2264
g192
atp2265
Rp2266
sS'james ford'
p2267
g2
((lp2268
g4
atp2269
Rp2270
sS'john gustafson'
p2271
g2
((lp2272
g58
atp2273
Rp2274
sg110
g2
((lp2275
g192
atp2276
Rp2277
sS'william m. samuels'
p2278
g2
((lp2279
g35
atp2280
Rp2281
sS'matilda mcintosh'
p2282
g2
((lp2283
g1921
ag4
atp2284
Rp2285
sS'william a. rodgers'
p2286
g2
((lp2287
g5
atp2288
Rp2289
sS'helen demarco'
p2290
g2
((lp2291
g1149
ag121
ag201
atp2292
Rp2293
sS'walter christie'
p2294
g2
((lp2295
g58
atp2296
Rp2297
sS'grant oakes'
p2298
g2
((lp2299
g151
atp2300
Rp2301
sS'betty selden'
p2302
g2
((lp2303
g40
atp2304
Rp2305
sS'john cherveny'
p2306
g2
((lp2307
g40
ag41
ag43
ag58
atp2308
Rp2309
sS'fred m. snider'
p2310
g2
((lp2311
g35
atp2312
Rp2313
sS'jeff kibre'
p2314
g2
((lp2315
g28
ag42
atp2316
Rp2317
sS'herman waldman'
p2318
g2
((lp2319
g236
ag237
atp2320
Rp2321
sS'raphael haskell'
p2322
g2
((lp2323
g58
atp2324
Rp2325
sS'tony kraber'
p2326
g2
((lp2327
g737
ag738
atp2328
Rp2329
sg345
g2
((lp2330
g172
ag4
ag58
ag191
atp2331
Rp2332
sS'frank iglesias'
p2333
g2
((lp2334
g5
atp2335
Rp2336
sS'joseph kuzma'
p2337
g2
((lp2338
g121
ag201
atp2339
Rp2340
sS'eva shafran'
p2341
g2
((lp2342
g91
ag28
atp2343
Rp2344
sS'edwin m max'
p2345
g2
((lp2346
g236
ag237
atp2347
Rp2348
sS'jack white'
p2349
g2
((lp2350
g4
ag58
ag5
atp2351
Rp2352
sS'bernard vorhaus'
p2353
g2
((lp2354
g91
atp2355
Rp2356
sS'jules abercauph'
p2357
g2
((lp2358
g201
atp2359
Rp2360
sS'joy pepper'
p2361
g2
((lp2362
g18
atp2363
Rp2364
sS'lane thomas'
p2365
g2
((lp2366
g121
ag48
atp2367
Rp2368
sS'jack palmquist'
p2369
g2
((lp2370
g919
ag58
atp2371
Rp2372
sS'jack raskin'
p2373
g2
((lp2374
g4
ag58
atp2375
Rp2376
sS'dalton trumbo'
p2377
g2
((lp2378
g91
ag332
ag89
ag85
ag87
atp2379
Rp2380
sS'alice cohee'
p2381
g2
((lp2382
g40
ag41
ag43
atp2383
Rp2384
sS'james tracy'
p2385
g2
((lp2386
g28
atp2387
Rp2388
sS'fred dutner'
p2389
g2
((lp2390
g192
atp2391
Rp2392
sS'tom miller'
p2393
g2
((lp2394
g28
atp2395
Rp2396
sS'james avery'
p2397
g2
((lp2398
g48
atp2399
Rp2400
sS'peter hassen'
p2401
g2
((lp2402
g142
atp2403
Rp2404
sS'ed robbins'
p2405
g2
((lp2406
g40
ag332
ag41
ag43
atp2407
Rp2408
sS'glen showerman'
p2409
g2
((lp2410
g4
atp2411
Rp2412
sS'irving white'
p2413
g2
((lp2414
g236
atp2415
Rp2416
sS'lynn whitney'
p2417
g2
((lp2418
g236
atp2419
Rp2420
sS'william glenn'
p2421
g2
((lp2422
g4
atp2423
Rp2424
sS'maurice clark'
p2425
g2
((lp2426
g91
ag53
atp2427
Rp2428
sS'roy wilson'
p2429
g2
((lp2430
g279
ag172
atp2431
Rp2432
sS'stanley waxman'
p2433
g2
((lp2434
g236
ag237
atp2435
Rp2436
sS'ruth dombrowski'
p2437
g2
((lp2438
S'tom. dombrowski'
p2439
ag4
atp2440
Rp2441
sS'shirley ross'
p2442
g2
((lp2443
g4
atp2444
Rp2445
sS'sam sperling'
p2446
g2
((lp2447
g219
atp2448
Rp2449
sS'gerald j boyd'
p2450
g2
((lp2451
g4
ag5
atp2452
Rp2453
sS'ed strong'
p2454
g2
((lp2455
g121
atp2456
Rp2457
sS'walter rogalski'
p2458
g2
((lp2459
g190
ag192
atp2460
Rp2461
sS'louise losey'
p2462
g2
((lp2463
g352
ag18
atp2464
Rp2465
sg1869
g2
((lp2466
g15
atp2467
Rp2468
sS'pauline l finn'
p2469
g2
((lp2470
g1941
ag284
atp2471
Rp2472
sS'phoebe brand'
p2473
g2
((lp2474
g737
ag738
ag18
atp2475
Rp2476
sS'tillie lerner'
p2477
g2
((lp2478
g90
atp2479
Rp2480
sS'clyde champion'
p2481
g2
((lp2482
g28
atp2483
Rp2484
sS'freda marcus'
p2485
g2
((lp2486
g40
atp2487
Rp2488
sS'art rhodes'
p2489
g2
((lp2490
g58
ag192
atp2491
Rp2492
sS'louise seidel'
p2493
g2
((lp2494
g15
atp2495
Rp2496
sS'william ingham'
p2497
g2
((lp2498
g40
ag28
atp2499
Rp2500
sS'hilliard ellis'
p2501
g2
((lp2502
g192
atp2503
Rp2504
sS'noum light'
p2505
g2
((lp2506
g35
atp2507
Rp2508
sS'sam rizzo'
p2509
g2
((lp2510
g279
atp2511
Rp2512
sS'murray levine'
p2513
g2
((lp2514
g151
atp2515
Rp2516
sS'john mcgrew'
p2517
g2
((lp2518
g1481
atp2519
Rp2520
sS'harry carlisle'
p2521
g2
((lp2522
g90
atp2523
Rp2524
sS'gilbert green'
p2525
g2
((lp2526
g201
atp2527
Rp2528
sS'otty heller'
p2529
g2
((lp2530
g201
atp2531
Rp2532
sS'joseph reams'
p2533
g2
((lp2534
g121
ag4
atp2535
Rp2536
sS'max chait'
p2537
g2
((lp2538
g279
ag58
atp2539
Rp2540
sS'van brook'
p2541
g2
((lp2542
g58
atp2543
Rp2544
sS'jim keller'
p2545
g2
((lp2546
g48
atp2547
Rp2548
sS'eddie pietrowski'
p2549
g2
((lp2550
g58
atp2551
Rp2552
sS'mrs. strasberg'
p2553
g2
((lp2554
S'paula miller'
p2555
atp2556
Rp2557
sS'benjamin lieberman'
p2558
g2
((lp2559
g681
atp2560
Rp2561
sS'adeline cole'
p2562
g2
((lp2563
g4
atp2564
Rp2565
sS'john hell'
p2566
g2
((lp2567
g172
ag284
ag4
ag58
ag191
atp2568
Rp2569
sS'paul geiselman'
p2570
g2
((lp2571
g201
atp2572
Rp2573
sS'pauline hopkins'
p2574
g2
((lp2575
g236
atp2576
Rp2577
sS'melvyn letzman'
p2578
g2
((lp2579
g28
atp2580
Rp2581
sg696
g2
((lp2582
g48
atp2583
Rp2584
sS'mary v farmer'
p2585
g2
((lp2586
g42
atp2587
Rp2588
sS'leon katzen'
p2589
g2
((lp2590
g192
atp2591
Rp2592
sS'joe. marlovits'
p2593
g2
((lp2594
g696
atp2595
Rp2596
sS'darr smith'
p2597
g2
((lp2598
g737
ag738
ag41
ag192
ag40
ag43
atp2599
Rp2600
sS'pasco soso'
p2601
g2
((lp2602
g192
atp2603
Rp2604
sS'naomi. robeson'
p2605
g2
((lp2606
g237
atp2607
Rp2608
sS'jeff corey'
p2609
g2
((lp2610
g236
ag358
atp2611
Rp2612
sS'bay teeple'
p2613
g2
((lp2614
g151
atp2615
Rp2616
sS'milton schleicher'
p2617
g2
((lp2618
g58
atp2619
Rp2620
sS'mercier reese'
p2621
g2
((lp2622
g40
atp2623
Rp2624
sS'alice smith'
p2625
g2
((lp2626
g190
ag192
atp2627
Rp2628
sS'jack gore'
p2629
g2
((lp2630
g28
ag4
ag58
atp2631
Rp2632
sg1240
g2
((lp2633
g28
atp2634
Rp2635
sS'rachael carter'
p2636
g2
((lp2637
g210
ag142
atp2638
Rp2639
sS'hy fireman'
p2640
g2
((lp2641
g58
atp2642
Rp2643
sS'verne piazza'
p2644
g2
((lp2645
g58
atp2646
Rp2647
sS'mills sampy'
p2648
g2
((lp2649
g5
atp2650
Rp2651
sS'jeannie kudlik'
p2652
g2
((lp2653
g58
atp2654
Rp2655
sS'pat toohey'
p2656
g2
((lp2657
g172
ag4
ag5
atp2658
Rp2659
sS'fay g grossman'
p2660
g2
((lp2661
g58
atp2662
Rp2663
sS'harold robertson'
p2664
g2
((lp2665
g58
atp2666
Rp2667
sS'nick daniels'
p2668
g2
((lp2669
g58
atp2670
Rp2671
sS'jules yanover'
p2672
g2
((lp2673
Vrichard o'hair
p2674
atp2675
Rp2676
sS'mike fersick'
p2677
g2
((lp2678
g201
atp2679
Rp2680
sS'as a condon'
p2681
g2
((lp2682
Vdr. condon
p2683
atp2684
Rp2685
sS'ann ganley'
p2686
g2
((lp2687
g172
ag4
ag58
ag5
atp2688
Rp2689
sS'foss baker'
p2690
g2
((lp2691
g4
atp2692
Rp2693
sS'roy narancich'
p2694
g2
((lp2695
g58
ag191
atp2696
Rp2697
sS'jake jacobowitz'
p2698
g2
((lp2699
g58
atp2700
Rp2701
sS'charles young'
p2702
g2
((lp2703
g42
atp2704
Rp2705
sS'sue lawson'
p2706
g2
((lp2707
g210
ag15
ag92
ag142
ag1780
atp2708
Rp2709
sS'walter barry'
p2710
g2
((lp2711
g121
atp2712
Rp2713
sS'jean butler'
p2714
g2
((lp2715
g85
atp2716
Rp2717
sS'roland kibbee'
p2718
g2
((lp2719
g86
atp2720
Rp2721
sS'bernice eraser'
p2722
g2
((lp2723
g88
atp2724
Rp2725
sS'sidney burke'
p2726
g2
((lp2727
g28
atp2728
Rp2729
sS'esther shandler'
p2730
g2
((lp2731
g34
ag116
atp2732
Rp2733
sS'phil hommer'
p2734
g2
((lp2735
g58
atp2736
Rp2737
sS'felix maise'
p2738
g2
((lp2739
g58
atp2740
Rp2741
sS'rex wheelock'
p2742
g2
((lp2743
g151
atp2744
Rp2745
sS'raphael konigsburg'
p2746
g2
((lp2747
g40
atp2748
Rp2749
sS'florence kniep'
p2750
g2
((lp2751
g4
atp2752
Rp2753
sS'matilda maxwell'
p2754
g2
((lp2755
g1748
ag5
atp2756
Rp2757
sS'marvin gladstone'
p2758
g2
((lp2759
g1590
ag58
atp2760
Rp2761
sS'pettis perry'
p2762
g2
((lp2763
g40
ag42
ag43
atp2764
Rp2765
sS'sterling rochester'
p2766
g2
((lp2767
g201
atp2768
Rp2769
sS'fred williams'
p2770
g2
((lp2771
g4
ag58
atp2772
Rp2773
sS'percy solotoy'
p2774
g2
((lp2775
g28
ag332
ag42
atp2776
Rp2777
sS'gus jurist'
p2778
g2
((lp2779
g58
atp2780
Rp2781
sS'jim tourney'
p2782
g2
((lp2783
g28
ag42
atp2784
Rp2785
sS'zina b haskell'
p2786
g2
((lp2787
g58
atp2788
Rp2789
sS'simon moskalik'
p2790
g2
((lp2791
g191
atp2792
Rp2793
sS'phillis mcray'
p2794
g2
((lp2795
Vmrs. otis mcray
p2796
atp2797
Rp2798
sS'jerry fielde'
p2799
g2
((lp2800
g151
atp2801
Rp2802
sS'robert l. richards'
p2803
g2
((lp2804
g76
atp2805
Rp2806
sS'john milkovitch'
p2807
g2
((lp2808
g151
atp2809
Rp2810
sS'daniel l james'
p2811
g2
((lp2812
g18
atp2813
Rp2814
sS'sam mcghee'
p2815
g2
((lp2816
g5
atp2817
Rp2818
sS'clarence stoecker'
p2819
g2
((lp2820
g210
atp2821
Rp2822
sS'hetty vorhaus'
p2823
g2
((lp2824
g87
atp2825
Rp2826
sS'hannah s donath'
p2827
g2
((lp2828
Vmrs ludwig donath
p2829
aVmrs. donath
p2830
atp2831
Rp2832
sS'ida miller'
p2833
g2
((lp2834
g2566
atp2835
Rp2836
sS'hazel jones'
p2837
g2
((lp2838
g151
atp2839
Rp2840
sS'dr. reznick'
p2841
g2
((lp2842
g2841
atp2843
Rp2844
sS'reva redstone'
p2845
g2
((lp2846
g172
ag5
atp2847
Rp2848
sS'walter mcelroy'
p2849
g2
((lp2850
g42
atp2851
Rp2852
sS'irving goff'
p2853
g2
((lp2854
g121
atp2855
Rp2856
sS'gurley walker'
p2857
g2
((lp2858
g58
atp2859
Rp2860
sS'matt richman'
p2861
g2
((lp2862
g33
ag35
atp2863
Rp2864
sS'sally davis'
p2865
g2
((lp2866
g58
atp2867
Rp2868
sS'hugo butler'
p2869
g2
((lp2870
g91
ag85
ag87
atp2871
Rp2872
sS'ruth poison'
p2873
g2
((lp2874
g58
atp2875
Rp2876
sS'alvah bessie'
p2877
g2
((lp2878
g91
ag86
ag92
ag18
ag53
atp2879
Rp2880
sS'imogene brantley'
p2881
g2
((lp2882
g2881
atp2883
Rp2884
sVrobert decormier
p2885
g2
((lp2886
g2885
atp2887
Rp2888
sS'joe poskonka'
p2889
g2
((lp2890
g48
atp2891
Rp2892
sg1886
g2
((lp2893
g1869
atp2894
Rp2895
sS'cliff lechrome'
p2896
g2
((lp2897
g28
atp2898
Rp2899
sS'frank rogers'
p2900
g2
((lp2901
g142
atp2902
Rp2903
sS'albert hickox'
p2904
g2
((lp2905
g28
atp2906
Rp2907
sS'john gray'
p2908
g2
((lp2909
g192
atp2910
Rp2911
sS'pope huff'
p2912
g2
((lp2913
g210
atp2914
Rp2915
sS'theo kruse'
p2916
g2
((lp2917
g151
atp2918
Rp2919
sS'sadie ornitz'
p2920
g2
((lp2921
g15
aVmrs. sam ornitz
p2922
atp2923
Rp2924
sS'delaware jersey'
p2925
g2
((lp2926
g121
aVjoe kuzma
p2927
atp2928
Rp2929
sS'mr. mcallister'
p2930
g2
((lp2931
g4
atp2932
Rp2933
sS'hattie johnson'
p2934
g2
((lp2935
g5
atp2936
Rp2937
sS'izzy berenson'
p2938
g2
((lp2939
g172
ag5
atp2940
Rp2941
sS'bill oliver'
p2942
g2
((lp2943
g40
ag41
atp2944
Rp2945
sS'dave silverberg'
p2946
g2
((lp2947
g5
atp2948
Rp2949
sS'adrian scott'
p2950
g2
((lp2951
g53
atp2952
Rp2953
sS'edward huebseh'
p2954
g2
((lp2955
g91
ag85
ag805
ag18
atp2956
Rp2957
sS'fred franchi'
p2958
g2
((lp2959
g34
ag43
ag33
ag40
aVj. allen louise light silver
p2960
ag35
atp2961
Rp2962
sS'bettv verri'
p2963
g2
((lp2964
g192
atp2965
Rp2966
sS'reuben ship'
p2967
g2
((lp2968
g236
atp2969
Rp2970
sS'aaron bindman'
p2971
g2
((lp2972
g192
atp2973
Rp2974
sS'branislaus zukas'
p2975
g2
((lp2976
g40
atp2977
Rp2978
sS'olga zenchuck'
p2979
g2
((lp2980
g58
atp2981
Rp2982
sS'sam parks'
p2983
g2
((lp2984
g48
atp2985
Rp2986
sS'percy llewelyn'
p2987
g2
((lp2988
g172
ag58
atp2989
Rp2990
sg1674
g2
((lp2991
g5
atp2992
Rp2993
sS'john wilson'
p2994
g2
((lp2995
g151
atp2996
Rp2997
sS'francis faragoh'
p2998
g2
((lp2999
g502
ag53
atp3000
Rp3001
sS'marion e patrick'
p3002
g2
((lp3003
Vfred douglas club
p3004
ag58
atp3005
Rp3006
sS'will geer'
p3007
g2
((lp3008
g28
atp3009
Rp3010
sS'charley hayes'
p3011
g2
((lp3012
g48
atp3013
Rp3014
sS'joseph starobin'
p3015
g2
((lp3016
g192
atp3017
Rp3018
sS'elizabeth faragoh'
p3019
g2
((lp3020
g53
atp3021
Rp3022
sS'willie howell'
p3023
g2
((lp3024
g48
atp3025
Rp3026
sS'robert purdy'
p3027
g2
((lp3028
g58
atp3029
Rp3030
sS'william allan'
p3031
g2
((lp3032
g172
ag279
ag4
ag58
ag5
atp3033
Rp3034
sS'maurice rapf'
p3035
g2
((lp3036
g15
ag18
atp3037
Rp3038
sS'george altman'
p3039
g2
((lp3040
g35
ag116
atp3041
Rp3042
sS'sally pietrowski'
p3043
g2
((lp3044
g2549
ag4
atp3045
Rp3046
sS'mary morrell'
p3047
g2
((lp3048
g121
aVmrs. robert morrell
p3049
ag201
atp3050
Rp3051
sS'arthur storey'
p3052
g2
((lp3053
g121
ag5
atp3054
Rp3055
sS'victor kaplan'
p3056
g2
((lp3057
g115
ag34
ag35
ag116
atp3058
Rp3059
sS'lou amster'
p3060
g2
((lp3061
g41
atp3062
Rp3063
sS'glass glassgold'
p3064
g2
((lp3065
g5
atp3066
Rp3067
sS'rose bush'
p3068
g2
((lp3069
g42
atp3070
Rp3071
sS'henry meihs'
p3072
g2
((lp3073
g192
atp3074
Rp3075
sS'frances price'
p3076
g2
((lp3077
g58
atp3078
Rp3079
sS'richard mcmahon'
p3080
g2
((lp3081
g181
atp3082
Rp3083
sS'olaf leddel'
p3084
g2
((lp3085
g151
atp3086
Rp3087
sS'jesus gonzales'
p3088
g2
((lp3089
g58
atp3090
Rp3091
sS'esther shapiro'
p3092
g2
((lp3093
g28
ag236
ag58
atp3094
Rp3095
sS'esther siegel'
p3096
g2
((lp3097
g58
ag5
atp3098
Rp3099
sS'flo goodman'
p3100
g2
((lp3101
g5
atp3102
Rp3103
sS'john stapp'
p3104
g2
((lp3105
g237
ag15
ag86
ag18
ag91
ag236
ag502
ag92
atp3106
Rp3107
sS'william schneiderman'
p3108
g2
((lp3109
g284
atp3110
Rp3111
sS'edward biberman'
p3112
g2
((lp3113
g91
ag85
ag502
atp3114
Rp3115
sS'john schmies'
p3116
g2
((lp3117
g151
ag142
atp3118
Rp3119
sS'lloyd gough'
p3120
g2
((lp3121
g236
ag85
atp3122
Rp3123
sS'james jackson'
p3124
g2
((lp3125
g4
ag58
atp3126
Rp3127
sS'george manning'
p3128
g2
((lp3129
g48
atp3130
Rp3131
sS'sylvia m polonsky'
p3132
g2
((lp3133
g1528
ag18
atp3134
Rp3135
sS'leslie dolman'
p3136
g2
((lp3137
g4
atp3138
Rp3139
sS'calvin goodman'
p3140
g2
((lp3141
g5
atp3142
Rp3143
sS'hoke higdon'
p3144
g2
((lp3145
g4
atp3146
Rp3147
sS'carl winter'
p3148
g2
((lp3149
g4
ag58
ag5
atp3150
Rp3151
sg2555
g2
((lp3152
g737
ag42
ag2555
aVmr. kazan
p3153
aVsee lee
p3154
atp3155
Rp3156
sS'louis terkel'
p3157
g2
((lp3158
g237
atp3159
Rp3160
sS'ben barzman'
p3161
g2
((lp3162
g332
ag76
ag85
ag18
atp3163
Rp3164
sS'frank cestare'
p3165
g2
((lp3166
g121
ag201
atp3167
Rp3168
sS'mattie l woodson'
p3169
g2
((lp3170
g4
ag5
atp3171
Rp3172
sS'robert d katz'
p3173
g2
((lp3174
g34
ag35
ag116
atp3175
Rp3176
sS'melvin krantzler'
p3177
g2
((lp3178
g192
atp3179
Rp3180
sS'john porter'
p3181
g2
((lp3182
g115
ag34
ag35
ag116
atp3183
Rp3184
sS'philip e stevenson'
p3185
g2
((lp3186
g76
atp3187
Rp3188
sS'jack stachel'
p3189
g2
((lp3190
g121
ag4
atp3191
Rp3192
sS'ellenore abowitz'
p3193
g2
((lp3194
g76
aVmrs. murray abo
p3195
ag579
atp3196
Rp3197
sS'prokop j prokop'
p3198
g2
((lp3199
Vmr. prokop
p3200
atp3201
Rp3202
sS'carl rogers'
p3203
g2
((lp3204
g172
atp3205
Rp3206
sS'george newsorne'
p3207
g2
((lp3208
Vmr. novak
p3209
aVfrank novak
p3210
ag4
ag5
atp3211
Rp3212
sS'william wolff'
p3213
g2
((lp3214
g236
ag237
atp3215
Rp3216
sS'john bright'
p3217
g2
((lp3218
g91
ag15
ag284
ag90
atp3219
Rp3220
sS'celia edwards'
p3221
g2
((lp3222
g58
atp3223
Rp3224
sS'morton grant'
p3225
g2
((lp3226
g15
ag92
atp3227
Rp3228
sS'midge asslin'
p3229
g2
((lp3230
g172
ag5
atp3231
Rp3232
sS'katherine foreman'
p3233
g2
((lp3234
g40
atp3235
Rp3236
sg2439
g2
((lp3237
g172
ag4
ag5
atp3238
Rp3239
sS'wilma shore'
p3240
g2
((lp3241
g76
atp3242
Rp3243
sS'leslie edgley'
p3244
g2
((lp3245
g76
atp3246
Rp3247
sS'leo cefkin'
p3248
g2
((lp3249
g579
atp3250
Rp3251
sS'roy cones'
p3252
g2
((lp3253
g4
atp3254
Rp3255
sS'sam witczak'
p3256
g2
((lp3257
g579
atp3258
Rp3259
sS'tom cullen'
p3260
g2
((lp3261
g40
ag41
atp3262
Rp3263
sS'kay bassman'
p3264
g2
((lp3265
g1156
ag410
atp3266
Rp3267
sS'abe burrows'
p3268
g2
((lp3269
g237
atp3270
Rp3271
sS'luther talley'
p3272
g2
((lp3273
g192
atp3274
Rp3275
sS'dave ellis'
p3276
g2
((lp3277
g237
atp3278
Rp3279
sS'jack birch'
p3280
g2
((lp3281
g192
atp3282
Rp3283
sS'mort furay'
p3284
g2
((lp3285
g58
atp3286
Rp3287
sS'gail knappen'
p3288
g2
((lp3289
g40
atp3290
Rp3291
sS'william esterman'
p3292
g2
((lp3293
g34
ag35
ag116
atp3294
Rp3295
sS'davida franchi'
p3296
g2
((lp3297
g40
ag43
atp3298
Rp3299
sS'henrietta pally'
p3300
g2
((lp3301
g40
atp3302
Rp3303
sS'faye mcdonnell'
p3304
g2
((lp3305
g388
ag4
atp3306
Rp3307
sS'ann kelly'
p3308
g2
((lp3309
g172
ag4
ag5
atp3310
Rp3311
sS'bill gardner'
p3312
g2
((lp3313
g151
ag28
ag42
atp3314
Rp3315
sS'philip connelly'
p3316
g2
((lp3317
g40
ag28
ag41
ag43
atp3318
Rp3319
sS'sis cunningham'
p3320
g2
((lp3321
g1312
aS'hy gordon'
p3322
ag5
atp3323
Rp3324
sS'willie gale'
p3325
g2
((lp3326
g5
atp3327
Rp3328
sg1173
g2
((lp3329
g58
atp3330
Rp3331
sg859
g2
((lp3332
g574
ag192
ag237
ag1708
ag28
ag236
ag222
ag58
atp3333
Rp3334
s.