(dp0
Vbart lytton
p1
(lp2
S'elizabeth leech'
p3
aS'john wexley'
p4
aS'sondra gorney'
p5
aS'lilith james'
p6
aS'john h lawson'
p7
aS'ann r richards'
p8
aS'stanley praeger'
p9
aS'dan james'
p10
aS'maurice clark'
p11
asVsulzberger junior high
p12
(lp13
S'thomas deaoon'
p14
asS'elizabeth. mayhew'
p15
(lp16
Velizabeth mc
p17
asVmrs. robert treu
p18
(lp19
S'esther soler'
p20
aS'decca treuhaft'
p21
asS'pauline hopkins'
p22
(lp23
S'pauline vinson'
p24
asS'ann rotti'
p25
(lp26
S'ann r morgan'
p27
asVelizabeth bentley
p28
(lp29
S'donald n wheeler'
p30
asVmrs. harry
p31
(lp32
S'martha fletcher'
p33
asVdaniel j. boorstin
p34
(lp35
Vjack 01
p36
aS'kicliard goodwin'
p37
aS'israel halperin'
p38
asS'herman waldreen'
p39
(lp40
Vdavid wolfe
p41
asVbabbette lang
p42
(lp43
S'jessie carufo'
p44
aS'charles leonard'
p45
aS'helen leonard'
p46
aS'sadie ornitz'
p47
aS'estelle foreman'
p48
aS'albert maltz'
p49
aS'russell w bnrnstein'
p50
aS'tiba willner'
p51
aS'george willner'
p52
aS'viola b shore'
p53
aS'esther j wagner'
p54
aS'michael wilson'
p55
aS'clare burnstein'
p56
aS'catherine larkin'
p57
aS'sam horn'
p58
aS'guy endore'
p59
ag8
aS'ruth s ryan'
p60
aS'joe saul'
p61
aS'margaret maltz'
p62
aS'harry tanner'
p63
aS'jean lees'
p64
aS'carl foreman'
p65
aS'catherine vandercar'
p66
asVdildar sandow
p67
(lp68
g67
asVmrs. fleury
p69
(lp70
S'beruyce p fleury'
p71
asVmr. lusher
p72
(lp73
S'lou. schneiderman'
p74
asVleonard patterson
p75
(lp76
S'also he fascism'
p77
aS'joe lash'
p78
aS'john jeffrey'
p79
aS'al white'
p80
aS'rev. jack mcmichael'
p81
aS'harry f. ward'
p82
asVcarin kinzel
p83
(lp84
S'leon meadows'
p85
ag45
aS'mitchell lindeman'
p86
aS'angela clarke'
p87
aS'elaine gonda'
p88
aS'annette harper'
p89
aS'hallie jonas'
p90
aS'ann white'
p91
aS'henry blankfort'
p92
aS'georgia backus'
p93
aS'nina klowden'
p94
ag22
aS'paul mcvey'
p95
aS'reuben ship'
p96
aS'herschel alexander'
p97
aS'pauline l finn'
p98
aS'william wolff'
p99
aVn. y.
p100
asVjim thorne
p101
(lp102
S'james tourney'
p103
asVmr. wright
p104
(lp105
S'arthur o wright'
p106
ag104
asVabraham lin
p107
(lp108
S'david perloff'
p109
asS'ruth jennings'
p110
(lp111
g110
asVbella lewitzky
p112
(lp113
S'bella reynolds'
p114
asVroy hudson
p115
(lp116
S'in 1944 party'
p117
asVdorothy k. funn
p118
(lp119
S'julius jacobs'
p120
aS'stanley chapman'
p121
aS'florence jacobs'
p122
aS'irvin richter'
p123
aS'mildred flacks'
p124
aS'clara riebej'
p125
aS'revels. cayton'
p126
aS'ben olson'
p127
aS'charlotte wacker'
p128
aS'martha lepowsky'
p129
aS'hyman koppelman'
p130
aS'ferdinand c smith'
p131
aS'seth levine'
p132
aS'bjorne halliug'
p133
aS'casey gurewitz'
p134
aS'shirley taylor'
p135
aS'virgil akeson'
p136
aS'james branca'
p137
aS'calvin cousins'
p138
aS'marcella avnet'
p139
aS'ruth finkelstein'
p140
aS'david flacks'
p141
aS'rose clinton'
p142
aS'lem belton'
p143
aS'jeannette finkelstein'
p144
aS'albert blumberg'
p145
aS'harriet bouslog'
p146
aS'russell a nixon'
p147
aS'maurice braverman'
p148
aS'martin chancey'
p149
aS'william taylor'
p150
aS'thelma dale'
p151
aS'william s. johnson'
p152
aS'len decaux'
p153
aS'ann nechemias'
p154
aS'henry beitscher'
p155
aS'herman clott'
p156
aS'gertrude evans'
p157
aS'sarah oilman'
p158
aS'alberto moreau'
p159
aS'henry shire'
p160
aS'robert cohen'
p161
aS'robert campbell'
p162
aS'dorothy blumberg'
p163
aS'hoyt haddock'
p164
aS'al lannon'
p165
aS'jack s. zucker'
p166
aS'arthur newman'
p167
aS'sylvia elfenbein'
p168
aS'edna r coleman'
p169
aS'edward strong'
p170
aS'ann r rieliards'
p171
aS'dodd bella v'
p172
aS'mildred grossman'
p173
asVmrs. dave hilber
p174
(lp175
S'libby hilherman'
p176
asVjerome robbins
p177
(lp178
S'edward chodorov'
p179
aS'lionel berman'
p180
aS'edna ocko'
p181
ag177
aVherbert robbins
p182
aS'lettie stever'
p183
aS'jerome chodorov'
p184
aS'lloyd gough'
p185
aS'madeline lee'
p186
aS'elliott sullivan'
p187
asVsamuel evens
p188
(lp189
S'hilda geller'
p190
aS'lee gold'
p191
aS'harry gordon'
p192
aS'louis geller'
p193
aS'ivirs. sarah kaufman'
p194
aS'flo cohen'
p195
aS'william winston'
p196
aS'hannah shapiro'
p197
aS'morris zuckman'
p198
aS'harold klein'
p199
aS'anna brickman'
p200
aS'kelly douglas'
p201
aS'joe crago'
p202
aS'nathan goldstein'
p203
aS'jeauette dworkin'
p204
aS'sidney belinky'
p205
aS'william bottcher'
p206
aS'michael dworkin'
p207
aVfrances gordon
p208
aS'betty laros'
p209
aS'clara davis'
p210
aS'leon shapiro'
p211
aS'alexander kolker'
p212
ag104
aVv. j.
p213
aS'janet scott'
p214
aS'harriet belinky'
p215
aS'john poziomek'
p216
aS'irving gold'
p217
aS'amalia p crago'
p218
aS'elias schwarzbart'
p219
aS'ralph cohen'
p220
aS'david rappaport'
p221
aS'john bright'
p222
aS'rena dodd'
p223
asVmrs. ball
p224
(lp225
S'lillian lowenfels'
p226
aS'desired ball'
p227
aS'flora webster'
p228
ag163
asVleopold atlas
p229
(lp230
S'herbert biberman'
p231
aS'victor shapiro'
p232
aS'arnold manoff'
p233
aS'philip stevenson'
p234
aS'elizabeth grant'
p235
aS'naomi robeson'
p236
aS'gertrude fuller'
p237
ag49
ag107
aS'tom chapman'
p238
aS'alfred levitt'
p239
ag52
aS'gordon kahn'
p240
aS'arthur strawn'
p241
aS'lester cole'
p242
aS'bess taffel'
p243
ag7
aS'nemmy sparks'
p244
ag59
ag8
aS'anne green'
p245
aS'johnny cole'
p246
aS'anne froelich'
p247
ag212
aS'inirs. alvah bessie'
p248
aS'ruth weber'
p249
aS'lester fuller'
p250
aS'clarice chapman'
p251
aS'dalton trmiibo'
p252
aVmarguerite roberts
p253
aS'john rapf'
p254
aS'morton grant'
p255
asVmrs. harry john mills davis
p256
(lp257
g208
asS'david herman'
p258
(lp259
g258
asS'ida wood'
p260
(lp261
S'josephine. woods'
p262
asVharold t. woerner, jr.
p263
(lp264
g100
asVlarry parks
p265
(lp266
Vmr. rossen
p267
aS'karen morley'
p268
aS'dorothy tree'
p269
aS'gale sondergaard'
p270
aS'morris carnovsky'
p271
aS'ann revere'
p272
ag185
aS'victor killian'
p273
asS'shirley fields'
p274
(lp275
g274
asVbyron thorwell darling
p276
(lp277
S'ohio. as cokimbus'
p278
ag100
asVmorris appelman
p279
(lp280
S'charles a page'
p281
asVpauline s. townsend
p282
(lp283
S'ruth burrows'
p284
aS'louise janis'
p285
ag30
aS'richard o. boyer'
p286
aS'barbara wooley'
p287
aS'henriette martin'
p288
aS'harry carlyle'
p289
ag234
ag46
aS'nicholas bela'
p290
aS'catherine becker'
p291
aS'edith landall'
p292
aS'william pomerance'
p293
aS'sidney benson'
p294
aS'julian zimet'
p295
ag3
ag4
ag5
aS'howard fast'
p296
aS'goldie bromberg'
p297
aS'ben bengal'
p298
aS'edwina pomerance'
p299
aS'elena beck'
p300
aS'sam moore'
p301
ag6
aS'harold buchman'
p302
aS'leo bigelman'
p303
aS'peter lyon'
p304
ag7
ag244
aS'fred rinaldo'
p305
aS'beatrice l cole'
p306
aS'sue rossen'
p307
aS'john stanford'
p308
aS'lou solomon'
p309
ag8
aS'norma barzman'
p310
aS'shirley kanter'
p311
aS'everett weil'
p312
aS'ian hunter'
p313
aS'elizabeth faragoh'
p314
aS'carl winter'
p315
aS'andreas dinam'
p316
aS'leslie edgley'
p317
ag212
aS'robert bush'
p318
aS'tanya tuttle'
p319
aS'arthur birnkarnt'
p320
aS'marjorie macgregor'
p321
aS'madelaine ruthven'
p322
aVlouise losey
p323
aS'marie. rinaldo'
p324
ag9
aS'angus wooley'
p325
aS'paul rosenfeld'
p326
aS'janet stevenson'
p327
ag10
ag253
aS'ben maddow'
p328
ag96
ag254
aS'maurice rapf'
p329
aS'frank tarloff'
p330
aS'ben barzman'
p331
ag98
aS'lucy warren'
p332
aVmary charles d. blodgett
p333
aS'cookie wexley'
p334
aS'clara walden'
p335
aS'robert richards'
p336
asVdr. gainor
p337
(lp338
S'charles gainor'
p339
asg325
(lp340
g287
asS'george markham'
p341
(lp342
g117
asVpaul benedict mar. 12
p343
(lp344
Vgertrude purcell
p345
asVmrs. owen vinson
p346
(lp347
g24
asVedna rosen
p348
(lp349
S'stanley roberts'
p350
ag169
asg192
(lp351
S'harry g itskowitz'
p352
asVmiss monjar
p353
(lp354
S'elsie monjar'
p355
asVmr. tobey
p356
(lp357
S'florence tobey'
p358
asVmrs. perloff
p359
(lp360
S'caroline perloff'
p361
asVpeter bent
p362
(lp363
Vpaul zilseh daniel fine
p364
asS'evelyn weinstein'
p365
(lp366
g365
asVpauline lauber finn
p367
(lp368
g367
asVbertha grover
p369
(lp370
S'katrina manley'
p371
aS'charlie busk'
p372
aS'frauces capelle'
p373
aS'marjorie eisler'
p374
aS'herb kalman'
p375
aS'jessie pedrick'
p376
aS'ann yanish'
p377
aS'wilhelmina laughery'
p378
aS'calvin batiste'
p379
aS'ted kalman'
p380
aS'teresa kalman'
p381
aS'gertrude warwick'
p382
aS'roger capelle'
p383
aS'andrew mays'
p384
aS'warner calloway'
p385
aS'frank parsons'
p386
aS'eleanor smith'
p387
ag369
aS'louise thompson'
p388
aS'leila thompson'
p389
aS'elizabetb barlow'
p390
aS'ozzo marrow'
p391
aS'edith sharpe'
p392
aS'freddie walker'
p393
aS'ray halpern'
p394
aS'fred williams'
p395
aS'edward barlow'
p396
aS'gladys black'
p397
aS'robert black'
p398
aS'carl hanson'
p399
aS'marie calloway'
p400
ag100
asS'harry jackson'
p401
(lp402
g117
asS'irene short'
p403
(lp404
g403
asVmrs. edward bar
p405
(lp406
g390
asVsteve miller
p407
(lp408
S'bill norman'
p409
asVedith macia
p410
(lp411
Vjoe charlotte darling adams
p412
aS'rose malloy'
p413
aS'joe rohr'
p414
aS'tillie olelvsiuk'
p415
aS'joe mcclosky'
p416
aS'marjorie robinson'
p417
aS'fran salit'
p418
aS'cliff stice'
p419
aS'june kelleher'
p420
aS'nina oster'
p421
aS'mary bindley'
p422
aS'tommy downs'
p423
ag115
aS'vern anthony'
p424
aS'joe koide'
p425
aS'ruth h. wellnian'
p426
ag292
aS'rose kliue'
p427
ag80
aVmr. goldstein
p428
aS'ethel karson'
p429
aS'charles reichman'
p430
aS'harry campbell'
p431
aS'sam kubin'
p432
aS'charles klare'
p433
aS'miriam cliassen'
p434
aS'luke hinman'
p435
aS'harry norman'
p436
aS'irving myer'
p437
aVzachary schwartz
p438
aS'frank beye'
p439
aS'horace pratt'
p440
aS'nina handman'
p441
aS'git perlman'
p442
aS'joe adams'
p443
aVmrs. dave sharf
p444
aS'rose dreyfus'
p445
aS'charles gladstone'
p446
aS'holly perlman'
p447
aS'lawn brooks'
p448
aS'fanny emer'
p449
aS'serrill gerber'
p450
aS'doreen holtz'
p451
aS'edith hershey'
p452
aS'a englehart'
p453
aS'harold dimsdale'
p454
aS'lillian heron'
p455
aS'mrs. fisher'
p456
aS'norman perlman'
p457
ag58
aS'bernie nidiss'
p458
aS'john doberty'
p459
aS'ida pratt'
p460
aS'edith johnson'
p461
aS'john dicho'
p462
aS'hymie aliiert'
p463
aS'florence mcdonald'
p464
aS'freda spivak'
p465
aS'bobbie karson'
p466
aS'sophia salit'
p467
aS'arthur anhattzer'
p468
aS'burton freund'
p469
aS'charles stone'
p470
aS'sandra young'
p471
aVmrs. gus browne edith macia
p472
aS'helen pate'
p473
aS'jack lazar'
p474
aS'jacob geyer'
p475
aS'maurice perlman'
p476
aS'bob raven'
p477
aS'louise moss'
p478
aS'shirley stone'
p479
aS'dorothy olson'
p480
aS'frieda trachgin'
p481
aS'herman mazer'
p482
aS'helen samuels'
p483
aS'harry judis'
p484
aS'iva anthony'
p485
aS'hilton wolf'
p486
aS'michael frank'
p487
aS'edith bomser'
p488
ag409
aS'dora garber'
p489
aS'sophia malloy'
p490
aS'anne witkowski'
p491
aS'dorothy anhattzer'
p492
aS'lena wiena'
p493
aS'allan bomser'
p494
aS'steve oleksink'
p495
aS'fred putnam'
p496
aS'rose bush'
p497
aS'anita boyagian'
p498
aS'al brown'
p499
aS'jane d kelly'
p500
aS'sara kusiiitz'
p501
aS'jane callender'
p502
aS'bert witkowski'
p503
aS'sadie dawson'
p504
aS'sara geyer'
p505
ag332
aS'lillian gerber'
p506
aS'rosalind freud'
p507
aS'frank moskin'
p508
aS'jack chassen'
p509
aS'morris karson'
p510
aS'sanford bernstein'
p511
aS'harry gilder'
p512
aS'bob robinson'
p513
asVedward gewirts
p514
(lp515
S'byron t darling'
p516
asS'jean rand'
p517
(lp518
g517
asVmrs. lowenfeb
p519
(lp520
g226
asVherbert goldfrank
p521
(lp522
S'herbert davis'
p523
asVurcel daniel
p524
(lp525
S'william e. oliver'
p526
asVgeological grier
p527
(lp528
S'mary c grier'
p529
asVoleta o'connor
p530
(lp531
S'oleta o yates'
p532
asS'harrison george'
p533
(lp534
g117
asVherbert a. philbrick
p535
(lp536
S'elizabeth moos'
p537
ag33
aS'margaret gilbert'
p538
aS'elizabeth guarnaccia'
p539
asg339
(lp540
g516
asg202
(lp541
Vamalia pesko crago
p542
asg438
(lp543
S'mary nolan'
p544
aS'edward biberman'
p545
asVk. frmn
p546
(lp547
S'morris salz'
p548
aS'arthur osman'
p549
asVgeorge mayberry
p550
(lp551
g36
ag38
asVleroy herndon
p552
(lp553
S'sidney freeman'
p554
aS'honor carey'
p555
aS'rose most'
p556
aS'sidney weinbaum'
p557
aS'sam kalish'
p558
aS'norman byrne'
p559
aS'barta numovna'
p560
aS'jane wilson'
p561
aS'harry shepro'
p562
aS'anna shepro'
p563
ag321
aS'abraham mlnkus'
p564
ag253
aS'matilda lewis'
p565
asVmax appleman
p566
(lp567
g376
asS'helen wheeler'
p568
(lp569
g568
asVreis rosenberg
p570
(lp571
S'francis e faragoh'
p572
asVherman waldman
p573
(lp574
g39
asVmr. gerber
p575
(lp576
g270
asg561
(lp577
S'jane wallace'
p578
asg95
(lp579
g95
asS'kathleen griffitli'
p580
(lp581
g580
asVroy erwin
p582
(lp583
g268
ag289
aS'bert cooper'
p584
aS'ben pollin'
p585
ag91
ag93
ag301
aS'mary robinson'
p586
ag94
ag22
ag95
ag254
aS'jack robinson'
p587
asVthomas delaney
p588
(lp589
Vmr. kaplan
p590
asg484
(lp591
g484
asS'arthur l. levy'
p592
(lp593
g592
ag100
asVcharles h. garrigues
p594
(lp595
S'paul cline'
p596
aS'morrie smolan'
p597
aS'stanley hancock'
p598
aS'sarah bognoff'
p599
asg564
(lp600
S'samuel stember'
p601
asg523
(lp602
g521
asS'pauline. lauber'
p603
(lp604
g98
asS'sarah. hartman'
p605
(lp606
g605
asVelizabeth mcmuuen
p607
(lp608
S'elizabeth. augustine'
p609
asVnorman levinson
p610
(lp611
S'abe gelbart'
p612
aS'lawrence arguimbau'
p613
ag36
aS'john h reynolds'
p614
asVlewis miller
p615
(lp616
S'louis goldblatt'
p617
asVmrs. funn
p618
(lp619
S'goldie gregurek'
p620
ag314
asVmax klansky
p621
(lp622
S'the committee springer'
p623
asVdwight hauser
p624
(lp625
S'murry wagner'
p626
ag236
ag89
ag92
ag93
ag301
ag94
ag95
ag97
asg165
(lp627
S'harry rich'
p628
asVlou rosser
p629
(lp630
S'dave hedley'
p631
aS'joy williams'
p632
aS'paul heide'
p633
ag126
aS'hugh bryson'
p634
ag629
ag115
aS'margaret wilson'
p635
aS'max posey'
p636
ag80
aS'ben dobbs'
p637
aS'roi sherman'
p638
aS'joe young'
p639
aS'jules keivetz'
p640
ag376
aS'loretta starvus'
p641
aS'aubrey grossman'
p642
aS'sam goodwin'
p643
aS'donald baker'
p644
aS'violet orr'
p645
ag590
aS'ida rothstein'
p646
aS'charles a duarte'
p647
aS'lloyd seeliger'
p648
aS'george siskin'
p649
ag358
aS'bert corona'
p650
aS'preston hill'
p651
ag36
ag450
aS'celeste strack'
p652
aS'andy charles'
p653
aS'william schneiderman'
p654
aS'sam darcy'
p655
aS'esther goodman'
p656
aS'tom brown'
p657
aS'elaine black'
p658
ag568
aS'matthew crawford'
p659
ag388
aS'dave himinelstein'
p660
aS'charles pfeiffer'
p661
aS'lloyd lehman'
p662
ag532
aS'martha stone'
p663
ag355
ag617
aS'richard lynden'
p664
aS'jack burris'
p665
aS'mort newman'
p666
aS'carl brandt'
p667
ag628
aS'dick criley'
p668
aS'dean hood'
p669
aS'libby corngold'
p670
aS'george morris'
p671
ag401
ag517
aS'walter stack'
p672
ag216
aS'harry haywood'
p673
aS'jack fox'
p674
aS'archie brown'
p675
aS'jacob mindel'
p676
ag97
aS'bob chasson'
p677
aS'nell higman'
p678
aS'joe ayeroff'
p679
ag100
asVsilvia richards
p680
(lp681
g191
ag45
ag233
aS'tamara hovey'
p682
ag127
aS'bill young'
p683
aS'celia wilhy'
p684
aS'millard lanipell'
p685
ag41
ag51
ag52
ag93
ag301
aS'matt vidaver'
p686
ag521
aS'howard dimsdale'
p687
ag212
aS'walter laniliert'
p688
ag22
ag480
aS'molly young'
p689
ag97
asVben davis club
p690
(lp691
S'anna mcintosh'
p692
asg444
(lp693
g497
asg590
(lp694
S'daniel mccombe'
p695
ag590
ag227
aS'sol kaplan'
p696
asVdavid a. lang
p697
(lp698
g232
ag45
ag233
aS'adrian scott'
p699
aS'dorothy comingore'
p700
ag288
aS'laurie blankfort'
p701
ag46
ag48
ag290
ag292
ag295
aS'marvin bargeman'
p702
aS'mortimer offner'
p703
aS'bertha bargeman'
p704
aS'paul curtis'
p705
aS'george sklar'
p706
ag4
ag239
ag436
ag240
ag242
aS'allen boretz'
p707
ag92
aS'elliott grennard'
p708
aS'michael uris'
p709
ag55
aS'connie l bennett'
p710
ag302
ag243
ag654
ag58
ag7
aS'henry peterson'
p711
aS'howard koch'
p712
aS'edward huebsch'
p713
ag59
ag386
ag308
ag309
ag8
aS'bob roberts'
p714
aS'ella winter'
p715
aS'waldo salt'
p716
aS'val burton'
p717
ag687
ag317
ag248
ag320
ag688
ag322
ag478
aS'seymour bennett'
p718
aS'eunice mindlin'
p719
aS'paul trabusis'
p720
ag252
ag10
aS'hugo butler'
p721
ag253
aS'pauline laserfin'
p722
ag329
ag330
ag545
aVk. funn
p723
aS'cyril endfield'
p724
ag255
aS'wilma shore'
p725
ag65
ag222
ag11
asVbenjamin gitlow
p726
(lp727
S'albert r williams'
p728
aS'james lerner'
p729
ag544
ag81
aS'anna l strong'
p730
aS'adam lapin'
p731
aS'martin hall'
p732
aVmargaret und
p733
asVkapf maurice
p734
(lp735
g345
asVmrs. lou lou rosser
p736
(lp737
g212
asg446
(lp738
g639
asVmiss ell
p739
(lp740
S'sophia elfont'
p741
asVmrs. nathan mar
p742
(lp743
S'adele margolis'
p744
asVmildred benoff
p745
(lp746
g300
ag324
asVernest l. seymour
p747
(lp748
S'al saxton'
p749
aS'joe lynch'
p750
ag638
ag375
ag133
aS'neil crowe'
p751
ag358
aS'don cameron'
p752
aS'carl williams'
p753
aS'nathan jacobson'
p754
ag747
ag675
aS'david jenkins'
p755
asVoifioe workei
p756
(lp757
g549
asVmax benoff
p758
(lp759
g49
ag240
aS'paul jarrico'
p760
ag7
ag252
asVrobert rossen
p761
(lp762
g232
ag699
aS'lou harris'
p763
ag292
ag293
aS'bernard vorhaus'
p764
ag4
aS'hyman s kraft'
p765
ag242
ag92
ag93
ag709
ag6
ag302
ag303
ag760
ag711
ag59
ag305
ag309
ag8
ag313
ag350
ag248
ag250
ag322
aS'glenda sullivan'
p766
aS'josef michel'
p767
ag252
ag721
ag253
ag329
ag331
ag98
ag255
ag222
ag11
asVshirley ellis
p768
(lp769
g479
asg364
(lp770
g100
asVrobert gladnick
p771
(lp772
g39
ag192
aS'sam ornitz'
p773
aS'naomi workman'
p774
aS'john little'
p775
aS'bill ellis'
p776
aS'bill gandall'
p777
aS'sid hoff'
p778
aS'irving velson'
p779
aS'dave drummond'
p780
aS'bill lawrence'
p781
aS'anna taft'
p782
aS'rather party'
p783
aS'walter kolowski'
p784
aS'alice wilson'
p785
aS'george chakin'
p786
ag477
ag409
aS'gene morse'
p787
ag675
aS'george gorchoff'
p788
aVjoseph springer
p789
aS'phil bard'
p790
aVdavid amarigio
p791
aS'tony s lucia'
p792
ag601
asg61
(lp793
g789
asVisadore amdur
p794
(lp795
g612
ag613
aS'carl grossenbacher'
p796
ag213
aS'marcus singer'
p797
aS'nathan rosen'
p798
aS'kenneth arnold'
p799
ag100
asVdarling adams
p800
(lp801
S'hank morley'
p802
aS'selma bachelis'
p803
aS'kate lawson'
p804
aS'cecil beard'
p805
ag293
aS'sam cloner'
p806
ag544
aS'nerval crutcher'
p807
ag299
aVjoseph klein
p808
aS'david hillierman'
p809
ag711
ag712
aS'maurice howard'
p810
aS'hjalmar peterson'
p811
aS'jeff kibre'
p812
aS'john hubley'
p813
aS'paul perlin'
p814
aS'don gordon'
p815
ag545
asVlee j. cobb
p816
(lp817
g233
ag269
ag270
ag304
ag7
aS'shimen raskin'
p818
aS'phoebe brand'
p819
aS'rose hobart'
p820
aS'ludwig donath'
p821
ag271
aS'george tyne'
p822
ag272
aS'gerry schlein'
p823
ag273
ag187
asVjames kendall
p824
(lp825
S'david saunders'
p826
aS'sam telford'
p827
ag634
ag131
aS'duncan keir'
p828
aVjack edith macia
p829
aS'blackie meyers'
p830
ag751
aS'eugene a toopeekoff'
p831
aVbarbara roberts
p832
aS'james dow'
p833
aS'ernest boykin'
p834
aS'leo rossman'
p835
aS'harry bridges'
p836
ag696
ag672
aS'william j. bailey'
p837
aS'dave teitelbaum'
p838
aS'harold oakerly'
p839
ag755
asVbart mar.
p840
(lp841
S'richard b lewis'
p842
asVmrs. john edith
p843
(lp844
g129
asVedward dmytryk
p845
(lp846
g572
asg41
(lp847
g39
asVcharles daggett
p848
(lp849
S'robert wachsman'
p850
asVanne kinney
p851
(lp852
g596
aS'john leech'
p853
ag555
aS'benny goodman'
p854
aS'zara becker'
p855
aS'neil hignian'
p856
aS'bill ingham'
p857
aS'lawrence west'
p858
aS'gertrude selig'
p859
aS'anya lieberson'
p860
aS'rose segure'
p861
aS'albert lockett'
p862
aS'harry c. steinmetz'
p863
aS'wilhelmina maise'
p864
aS'euenore abowitz'
p865
aS'jules carson'
p866
aS'tassia freed'
p867
ag556
aS'betty gannett'
p868
aS'howland chamberlin'
p869
aS'jack wetherwax'
p870
ag635
aS'milton casluier'
p871
ag79
aS'rude lauibtmt'
p872
aS'joan place'
p873
aS'lou baron'
p874
ag558
aS'eddie fisher'
p875
aS'libby jacobson'
p876
aS'helen gardner'
p877
ag3
ag226
aS'leona mcginty'
p878
aS'maureen ryan'
p879
aS'jack ginsberg'
p880
aS'marian shire'
p881
aS'allen l ryan'
p882
aS'george sandy'
p883
aS'sanders shelf'
p884
aS'alexander riskin'
p885
aS'henrietta palley'
p886
ag597
aS'reva handle'
p887
aS'emily gordon'
p888
ag439
aS'betty arden'
p889
aS'john spears'
p890
aS'holland roberts'
p891
aS'sam gelfand'
p892
aS'jens simousgard'
p893
aS'leo baroway'
p894
aS'arcus reddock'
p895
aS'herbert klein'
p896
aS'lucy arnold'
p897
aS'angelina riskin'
p898
aS'betty seklen'
p899
aS'emil freed'
p900
aS'miriam brooks'
p901
aS'jay moss'
p902
aS'leo selfrid'
p903
ag36
aS'dorothy zadow'
p904
aS'max bogner'
p905
aS'oscar fuss'
p906
ag303
aS'myrtle wixman'
p907
aS'minna klein'
p908
aS'sam wixman'
p909
aS'jean richardson'
p910
aS'larne mccormiek'
p911
ag654
aS'beulah wales'
p912
ag177
aS'harry tarnoff'
p913
ag560
aS'fanya friedman'
p914
aS'libby minkus'
p915
aS'joseph zadow'
p916
aS'evelyn fargo'
p917
aS'zema matlin'
p918
ag657
ag386
aS'ethel holmstock'
p919
ag561
aS'bert stone'
p920
aS'george shaffer'
p921
aS'morton nadler'
p922
ag103
aS'sarah simonsgard'
p923
ag60
ag562
ag315
aS'evelyn keller'
p924
aS'sue cohen'
p925
aS'donald murray'
p926
aS'helen mallof'
p927
aS'dorothy pezman'
p928
ag688
aS'frank oppenheimer'
p929
aS'jean mayer'
p930
aS'betty. martin'
p931
ag667
ag564
aS'abraham maymadus'
p932
ag112
aS'sonya solotoy'
p933
aS'bea baron'
p934
aS'george mclean'
p935
ag815
ag213
aS'bea burke'
p936
aVrichard byrd lewis
p937
ag214
aS'pettis perry'
p938
ag160
aS'miriam holtz'
p939
ag533
aS'lillian jones'
p940
aS'al heltness'
p941
aS'jane march'
p942
ag674
ag496
aS'margaret ginsberg'
p943
aS'albert byler'
p944
ag497
aS'dolph winebrenner'
p945
ag501
aS'nina ingham'
p946
ag677
ag399
aS'john matsuto'
p947
ag565
aS'john bevins'
p948
aS'milton henry'
p949
aS'louise. todd'
p950
ag100
asg425
(lp951
g655
aS'rudy baker'
p952
asg937
(lp953
g555
ag855
ag558
ag560
ag562
ag563
ag564
ag937
ag565
asVjay rubin
p954
(lp955
S'jay riibiu'
p956
ag478
asVwilliam b. mann school
p957
(lp958
g20
asg499
(lp959
g117
asValice bennett
p960
(lp961
g526
asVsol shor
p962
(lp963
g703
aS'sylvia siegel'
p964
ag242
ag721
ag65
ag11
asVroland w. kibbee
p965
(lp966
g231
ag763
ag292
ag435
ag833
ag302
ag58
ag7
ag716
aVmr. maurice murphy
p967
ag812
ag329
ag723
ag222
asVbella v. dodd
p968
(lp969
g278
ag409
aS'richard frank'
p970
aS'moe finklestein'
p971
asVdorrhy k. fttttj
p972
(lp973
S'art shields'
p974
asg221
(lp975
g221
asVmrs. george van fred
p976
(lp977
S'jean frederick'
p978
asg318
(lp979
g318
ag516
asVharry j. marks
p980
(lp981
S'saul friedburg'
p982
aVmr. levy
p983
ag641
aS'alan philbrick'
p984
aS'daniel b schirmer'
p985
aS'mack libby'
p986
aS'dave grant'
p987
ag244
aS'sidney bloomfield'
p988
aS'johnny weber'
p989
asVcharles d. blodgett
p990
(lp991
S'john morgan'
p992
aS'douglas w ward'
p993
aS'aram attarian'
p994
ag633
aS'carmen melia'
p995
aS'mason roberson'
p996
aS'will campbell'
p997
aS'joseph melia'
p998
aS'clarence davis'
p999
aS'richard younce'
p1000
aS'mrs. pieper'
p1001
aS'martin mackie'
p1002
aS'john smith'
p1003
aS'john bittman'
p1004
aS'ruth hultgren'
p1005
aS'bertram edises'
p1006
ag374
aS'kenneth roberts'
p1007
aS'joe terry'
p1008
aS'inez hearn'
p1009
aS'juanita wheeler'
p1010
ag377
aS'gus browne'
p1011
aS'bill danzig'
p1012
aS'lynn hames'
p1013
aS'ned young'
p1014
aS'miss j gilbert'
p1015
aS'paul schlipf'
p1016
aS'cleveland hearn'
p1017
aS'pele edises'
p1018
aVmr. green
p1019
ag745
aS'barbara bick'
p1020
aS'goodman brudney'
p1021
ag382
aS'lee coe'
p1022
aS'kathleen hee'
p1023
ag651
aS'john delgado'
p1024
aS'ole fagerhaugh'
p1025
ag832
ag36
aS'sally attarian'
p1026
aS'art wolstenholme'
p1027
aS'harry kramer'
p1028
ag654
aS'shelly davis'
p1029
aS'walter kirkon'
p1030
ag387
ag731
aS'robert treuhaft'
p1031
aS'william michelson'
p1032
ag834
ag389
aS'ora kelly'
p1033
ag927
aS'meridel leseuer'
p1034
ag392
aS'george edwards'
p1035
aS'louis green'
p1036
aS'paul chown'
p1037
aS'fanny lehman'
p1038
aS'eva lapin'
p1039
aS'allen johnson'
p1040
aS'evelyn hanson'
p1041
aS'ruby heide'
p1042
aS'ethel claibourne'
p1043
aS'marjorie canrlght'
p1044
aS'sidney claibourne'
p1045
aS'ruth standish'
p1046
aS'charles blacklock'
p1047
aS'luther morris'
p1048
ag397
ag398
aS'sandra martin'
p1049
aS'robert dwinnell'
p1050
ag546
aS'steve murdock'
p1051
aS'earl phillips'
p1052
ag675
aS'beckie wolstenholme'
p1053
ag692
aS'wesley bodkin'
p1054
aS'cleophas brown'
p1055
ag220
ag97
aS'harold schachter'
p1056
ag399
aS'sid partridge'
p1057
aS'ralph izzard'
p1058
aS'opal terry'
p1059
ag565
aS'albert legard'
p1060
aS'eugene parker'
p1061
aS'norman canright'
p1062
aS'gordon williams'
p1063
ag950
ag100
asg208
(lp1064
S'frances itskowitz'
p1065
asVdickson p. hill
p1066
(lp1067
g67
aS'bill rutter'
p1068
aS'jean hedley'
p1069
aS'dorothy woods'
p1070
aS'charles oberkirch'
p1071
ag371
ag633
aS'william creque'
p1072
aS'billie wachter'
p1073
ag998
aS'clarence tobet'
p1074
aS'marie phillips'
p1075
aS'pete matanami'
p1076
aS'sig hesse'
p1077
ag373
ag773
aS'jack manley'
p1078
aS'miriam chown'
p1079
aS'david kinkead'
p1080
ag375
aS'frances tandy'
p1081
ag376
ag377
ag378
ag641
aS'eugene eagle'
p1082
ag642
ag380
aS'gene lien'
p1083
aS'wayne hultgren'
p1084
ag1019
ag383
ag358
ag1022
aS'calif hayward'
p1085
aS'mary sherwood'
p1086
ag833
aS'louis mcmullen'
p1087
ag453
aS'godine eagle'
p1088
aS'rude lambert'
p1089
aS'bernadette doyle'
p1090
ag781
aS'emmett teague'
p1091
aS'doris roberson'
p1092
aS'martha mcmullen'
p1093
aS'george v frederick'
p1094
ag657
ag386
aS'robert neville'
p1095
ag607
ag388
ag389
aS'emma stanley'
p1096
ag390
aS'george bratoff'
p1097
ag662
ag21
ag1035
aS'rosalind lindesmith'
p1098
ag1037
aS'charlotte kyer'
p1099
ag1042
aS'bill clifford'
p1100
aS'janet mcharg'
p1101
ag396
aS'florence hutchinson'
p1102
aS'nori lafferty'
p1103
aS'doris fogarty'
p1104
aS'leo m. hurvich'
p1105
aS'peter chaunt'
p1106
ag1052
ag167
ag1054
aS'alex treskiu'
p1107
aS'josephine w eidenoff'
p1108
ag260
aS'morris keller'
p1109
aVwilliam t. martin
p1110
ag64
ag1063
ag950
ag100
aS'carroll barnes'
p1111
asS'martha campion'
p1112
(lp1113
g1112
asVmrs. newell rey
p1114
(lp1115
g112
asVstetson junior
p1116
(lp1117
g741
asVmrs. fred franchi
p1118
(lp1119
g674
asg789
(lp1120
S'what is smith'
p1121
ag61
asVjohn edmiston
p1122
(lp1123
g77
asVmrs. arthur mayhew
p1124
(lp1125
g607
asVmary bradsher
p1126
(lp1127
g1126
asg1110
(lp1128
g612
aS'wendell h. furry'
p1129
ag613
ag614
ag38
ag796
ag213
asVgranville hicks
p1130
(lp1131
g1129
ag36
ag38
aS'bernhard stern'
p1132
asg808
(lp1133
S'dorothy loeb'
p1134
aVu. s.
p1135
asg832
(lp1136
g287
asg785
(lp1137
Valice wil
p1138
asVgilman rosenblatt
p1139
(lp1140
g158
asVmrs. norman can
p1141
(lp1142
g1044
asVwilliam ted isiartin
p1143
(lp1144
g100
asg1087
(lp1145
g1093
asg791
(lp1146
S'david leeds'
p1147
asVcarlton col
p1148
(lp1149
g1056
asVmrs. irving
p1150
(lp1151
g191
asVjohn mills davis
p1152
(lp1153
g190
ag191
ag192
aS'kostas dakchoylous'
p1154
ag193
ag194
aS'george blake'
p1155
aS'helen jacobson'
p1156
ag195
aS'robert arnold'
p1157
ag197
ag198
ag199
ag200
aS'william bender'
p1158
ag202
aS'charles dorenz'
p1159
ag203
ag204
ag205
aS'mary kotick'
p1160
aS'carl brodsky'
p1161
ag365
ag206
ag207
ag208
ag1032
ag209
ag211
ag212
aS'donald hatcliigan'
p1162
ag213
ag214
ag215
ag216
ag217
ag218
ag219
ag220
ag221
aS'george stathis'
p1163
ag222
ag223
asVmiss thomas
p1164
(lp1165
S'estelle n thomas'
p1166
asVmrs. willard parker bereniece baldwin
p1167
(lp1168
g715
asVharold hecht
p1169
(lp1170
g231
aS'georgia burns'
p1171
ag79
ag49
ag964
ag240
aS'trudy peck'
p1172
ag7
aS'rose pearson'
p1173
ag322
ag545
aS'robert sloan'
p1174
ag222
asg323
(lp1175
g323
asg158
(lp1176
g350
asVdorothy k. fram
p1177
(lp1178
g548
asVjack davis
p1179
(lp1180
g1071
ag258
aS'salvatore gentilli'
p1181
ag47
aS'ishmael flory'
p1182
ag1159
aS'joe carr'
p1183
aS'william albertson'
p1184
ag209
aS'herbert feay'
p1185
aS'willie schulz'
p1186
ag956
ag1162
ag628
aS'julian gordon'
p1187
aS'frieda schweukmyer'
p1188
ag218
aS'carl hacker'
p1189
ag674
ag824
ag221
aS'gertrude lane'
p1190
aS'george lafortune'
p1191
aS'ohio. cincinnati'
p1192
aS'mike obermier'
p1193
ag222
ag223
asVmrs. howland cham
p1194
(lp1195
g878
ag8
asVann roth morgan
p1196
(lp1197
g1196
asVmrs. art wol
p1198
(lp1199
g1053
asVmrs. sidney clai
p1200
(lp1201
g1043
asVharvey narcisenfeld
p1202
(lp1203
S'jody gilbert'
p1204
asVmary e. p. bradsher
p1205
(lp1206
S'bill redner'
p1207
ag80
ag378
aS'bob rasland'
p1208
ag1083
aS'ella gonzales'
p1209
aS'june naboisek'
p1210
ag36
ag760
aS'gene hammond'
p1211
ag1094
ag657
ag386
ag1095
aS'herbert naboisek'
p1212
ag388
aS'bruce anderson'
p1213
ag978
aS'charlie white'
p1214
aS'clara rairland'
p1215
aS'marian redner'
p1216
ag64
asVmanning johnson
p1217
(lp1218
g77
aS'alfred wagenknecht'
p1219
ag115
aS'clariua michelson'
p1220
aS'clarence hathaway'
p1221
aS'langston hughes'
p1222
aS'rob hall'
p1223
ag81
aS'fred biedenkapp'
p1224
ag715
ag388
ag549
ag82
ag409
ag1106
ag1112
aS'donald henderson'
p1225
aS'margaret e. forsyth'
p1226
asVmrs. wepman
p1227
(lp1228
S'sarah wepman'
p1229
asg1147
(lp1230
g791
asS'mike gold'
p1231
(lp1232
g1065
asVrobert gorham davis
p1233
(lp1234
S'dorothy w. douglas'
p1235
ag192
aS'samuel sillen'
p1236
ag1129
ag36
aS'charles hendley'
p1237
ag37
aS'william t. parry'
p1238
ag614
ag38
ag988
aS'hulda j flynn'
p1239
asVnicholas campas
p1240
(lp1241
S'leo gerstinheim'
p1242
ag110
aS'mike yarman'
p1243
ag258
ag193
aS'sam edelsteiu'
p1244
ag1182
ag403
aS'si fialkoff'
p1245
ag199
ag1134
aS'sam kramberg'
p1246
ag1159
ag808
ag1183
aS'herbert parker'
p1247
ag781
aS'arnold dorenz'
p1248
aS'selma lahne'
p1249
ag1184
ag1185
ag474
ag1186
ag956
ag1162
ag628
ag1187
ag274
ag1188
ag218
ag1189
ag824
aS'arthur barry'
p1250
ag221
ag1191
ag1163
ag1192
ag1193
ag222
asVmrs. nathan gold
p1251
(lp1252
g191
asS'theodore s. polumbaum'
p1253
(lp1254
g100
asg345
(lp1255
g231
asg222
(lp1256
g222
asVmrs. philip steven
p1257
(lp1258
g327
asVwilliam d. ames
p1259
(lp1260
S'jake price'
p1261
ag1073
ag998
ag1074
aS'bill williams'
p1262
aS'james gilliam'
p1263
ag373
ag1005
aS'rosalie crockett'
p1264
ag377
ag378
ag641
aS'bill crockett'
p1265
aS'louise gilliam'
p1266
ag380
aS'saul wachter'
p1267
ag1084
ag1019
ag382
ag358
ag1022
ag833
ag781
ag1095
ag388
ag389
ag390
aS'marge price'
p1268
ag392
ag1035
ag1098
ag1038
ag1100
ag1048
aS'molly thorner'
p1269
ag397
ag398
ag1055
ag97
ag399
aS'kathleen dickerson'
p1270
ag100
asVmr. robbins
p1271
(lp1272
g38
asVherbert philbrick
p1273
(lp1274
g428
aS'otis a hood'
p1275
aS'max weitzman'
p1276
asS'margaret undjus'
p1277
(lp1278
S'margaret cowl'
p1279
as.
