(lp0
(dp1
S'named'
p2
c__builtin__
set
p3
((lp4
Vsam reznick
p5
atp6
Rp7
sS'name'
p8
S'leo bigelman'
p9
sa(dp10
g2
g3
((lp11
Vmrs. richard criley
p12
atp13
Rp14
sg8
S'elizabeth wilson'
p15
sa(dp16
g2
(lp17
S'jessie pedrick'
p18
asg8
S'max appelman'
p19
sa(dp20
g2
g3
((lp21
Vrichard collins
p22
aVbudd schulberg
p23
aVdavid raksin
p24
aVleo townsend
p25
aVn. y.
p26
aVreis rosenberg
p27
atp28
Rp29
sg8
S'waldo salt'
p30
sa(dp31
g2
(lp32
S'lillian lowenfels'
p33
aS'betty. martin'
p34
aS'jean richardson'
p35
aS'paul cline'
p36
aS'carl brandt'
p37
aS'leona mcginty'
p38
aVv. j.
p39
aS'john leech'
p40
aS'larne mccormiek'
p41
aS'jack ginsberg'
p42
aS'beulah wales'
p43
aVbella lewitzky
p44
aS'sonya solotoy'
p45
aS'marian shire'
p46
aS'bea baron'
p47
aS'barta numovna'
p48
aS'fanya friedman'
p49
aS'benny goodman'
p50
aS'allen l ryan'
p51
aS'maureen ryan'
p52
aS'bea burke'
p53
aS'zara becker'
p54
aS'george sandy'
p55
aS'libby minkus'
p56
aS'sanders shelf'
p57
aS'george mclean'
p58
aS'al heltness'
p59
aS'joseph zadow'
p60
aS'evelyn fargo'
p61
aS'zema matlin'
p62
aS'neil hignian'
p63
aS'tom brown'
p64
aS'janet scott'
p65
aS'frank parsons'
p66
aS'reva handle'
p67
aS'bill ingham'
p68
aS'ethel holmstock'
p69
aS'pettis perry'
p70
aS'betty seklen'
p71
aS'dorothy zadow'
p72
aS'john bevins'
p73
aS'henry shire'
p74
aS'emily gordon'
p75
aS'gertrude selig'
p76
aS'leo bigelman'
p77
aS'miriam holtz'
p78
aS'louise. todd'
p79
aS'anya lieberson'
p80
aS'alexander riskin'
p81
aS'lillian jones'
p82
aS'rose segure'
p83
aS'frank beye'
p84
aS'betty arden'
p85
aS'jane wilson'
p86
aS'bert stone'
p87
aS'george shaffer'
p88
aS'morton nadler'
p89
aS'james tourney'
p90
aS'john spears'
p91
aS'ruth s ryan'
p92
aS'albert lockett'
p93
aS'holland roberts'
p94
aS'morrie smolan'
p95
aS'jack fox'
p96
aS'sam gelfand'
p97
aS'dorothy pezman'
p98
aS'jane march'
p99
aS'sam kalish'
p100
aS'jens simousgard'
p101
aS'abraham mlnkus'
p102
aS'harry shepro'
p103
aS'harry c. steinmetz'
p104
aS'wilhelmina maise'
p105
aS'euenore abowitz'
p106
aS'henrietta palley'
p107
aS'don gordon'
p108
aS'arcus reddock'
p109
aS'harry tarnoff'
p110
aS'jules carson'
p111
aS'tassia freed'
p112
aS'herbert klein'
p113
aS'evelyn keller'
p114
aS'rose most'
p115
aS'betty gannett'
p116
aS'lucy arnold'
p117
aS'howland chamberlin'
p118
aS'fred putnam'
p119
aS'margaret ginsberg'
p120
aS'sue cohen'
p121
aS'angelina riskin'
p122
aS'rose bush'
p123
aS'donald murray'
p124
aS'john matsuto'
p125
aS'jack wetherwax'
p126
aS'dolph winebrenner'
p127
aS'helen mallof'
p128
aS'margaret wilson'
p129
aS'honor carey'
p130
aS'william schneiderman'
p131
aS'milton casluier'
p132
aS'emil freed'
p133
aS'john jeffrey'
p134
aS'sara kusiiitz'
p135
aVjerome robbins
p136
aS'miriam brooks'
p137
aS'jay moss'
p138
aS'sarah simonsgard'
p139
aS'rude lauibtmt'
p140
aS'carl winter'
p141
aS'joan place'
p142
aS'carl hanson'
p143
aS'lou baron'
p144
aS'albert byler'
p145
aS'milton henry'
p146
aS'leo selfrid'
p147
aVjack 01
p148
aS'eddie fisher'
p149
aS'lawrence west'
p150
aS'matilda lewis'
p151
aS'walter laniliert'
p152
aS'max bogner'
p153
aS'abraham maymadus'
p154
aVrichard byrd lewis
p155
aS'libby jacobson'
p156
aS'oscar fuss'
p157
aS'myrtle wixman'
p158
aS'frank oppenheimer'
p159
aS'bob chasson'
p160
aS'minna klein'
p161
aS'nina ingham'
p162
aS'jean mayer'
p163
aS'helen gardner'
p164
aS'elizabeth leech'
p165
aS'leo baroway'
p166
aS'sam wixman'
p167
aVn. y.
p168
aS'harrison george'
p169
asg8
S'anne kinney'
p170
sa(dp171
g2
g3
((lp172
Vmrs. charles glenn
p173
atp174
Rp175
sg8
S'howland chamberlin'
p176
sa(dp177
g2
(lp178
S'francis e faragoh'
p179
asg8
S'edward dmytryk'
p180
sa(dp181
g2
g3
((lp182
S'john sanford'
p183
atp184
Rp185
sg8
S'marguerite roberts'
p186
sa(dp187
g2
g3
((lp188
Vedith holm sond
p189
aVmrs. herbert biberman
p190
atp191
Rp192
sg8
S'gale sondergaard'
p193
sa(dp194
g2
g3
((lp195
Vroy huggins
p196
aVdr. mendell m. krieger
p197
atp198
Rp199
sg8
S'murray abowitz'
p200
sa(dp201
g2
(lp202
S'gordon kahn'
p203
aS'arnold manoff'
p204
aS'val burton'
p205
aS'elliott grennard'
p206
aS'pauline laserfin'
p207
aS'dalton trmiibo'
p208
aS'seymour bennett'
p209
aS'charles leonard'
p210
aS'michael uris'
p211
aS'maurice clark'
p212
aS'julian zimet'
p213
aS'inirs. alvah bessie'
p214
aS'lester cole'
p215
aS'morton grant'
p216
aS'cyril endfield'
p217
aS'arthur birnkarnt'
p218
aS'helen leonard'
p219
aS'marvin bargeman'
p220
aS'victor shapiro'
p221
aS'ann r richards'
p222
aS'bob roberts'
p223
aS'adrian scott'
p224
aS'nicholas bela'
p225
aS'sam horn'
p226
aS'harold buchman'
p227
aS'john stanford'
p228
aS'john h lawson'
p229
aS'maurice rapf'
p230
aS'connie l bennett'
p231
aS'leslie edgley'
p232
ag152
aS'paul trabusis'
p233
aS'wilma shore'
p234
aS'waldo salt'
p235
aS'howard dimsdale'
p236
aS'henry peterson'
p237
aS'john wexley'
p238
aS'ella winter'
p239
aS'howard koch'
p240
aS'dan james'
p241
aS'lou solomon'
p242
aS'mortimer offner'
p243
aS'estelle foreman'
p244
aS'hugo butler'
p245
aS'edward huebsch'
p246
aS'bess taffel'
p247
ag66
aS'carl foreman'
p248
aS'dorothy comingore'
p249
aS'louise moss'
p250
aS'bertha bargeman'
p251
aS'madelaine ruthven'
p252
ag131
aS'edith landall'
p253
aVmarguerite roberts
p254
aS'frank tarloff'
p255
aS'allen boretz'
p256
aS'edward biberman'
p257
aS'laurie blankfort'
p258
aS'alfred levitt'
p259
aS'george sklar'
p260
aS'henriette martin'
p261
aS'john bright'
p262
aS'michael wilson'
p263
aS'guy endore'
p264
aS'harry norman'
p265
aVk. funn
p266
aS'paul curtis'
p267
aS'henry blankfort'
p268
aS'eunice mindlin'
p269
asg8
S'david a. lang'
p270
sa(dp271
g2
g3
((lp272
Vthomas delaney
p273
atp274
Rp275
sg8
S'melvin levy'
p276
sa(dp277
g2
g3
((lp278
Velizabeth wilson
p279
atp280
Rp281
sg8
S'john sanford'
p282
sa(dp283
g2
g3
((lp284
Vstanley roberts
p285
aVmelvin levy
p286
aVwilliam z. foster
p287
atp288
Rp289
sg8
S'carl foreman'
p290
sa(dp291
g2
(lp292
S'ian hunter'
p293
ag208
aS'ben barzman'
p294
aS'georgia backus'
p295
ag211
ag25
ag214
ag215
aS'hyman s kraft'
p296
aS'pauline l finn'
p297
ag242
ag77
ag221
ag222
ag224
ag212
ag227
aS'lilith james'
p298
ag254
aS'lou harris'
p299
ag27
ag230
aS'bernard vorhaus'
p300
ag237
ag238
ag252
ag245
aS'lester fuller'
p301
aVanne ray frank
p302
aS'paul jarrico'
p303
ag253
aS'william pomerance'
p304
aS'glenda sullivan'
p305
ag22
aS'josef michel'
p306
aS'stanley roberts'
p307
ag262
ag216
ag264
aS'fred rinaldo'
p308
ag268
asg8
S'robert rossen'
p309
sa(dp310
g2
g3
((lp311
g279
atp312
Rp313
sg8
S'herta uerkvitz'
p314
sa(dp315
g2
g3
((lp316
Vedward dmytryk
p317
atp318
Rp319
sg8
S'henry blankfort'
p320
sa(dp321
g2
g3
((lp322
Vowen vinson
p323
atp324
Rp325
sg8
S'sam moore'
p326
sa(dp327
g2
g3
((lp328
g196
atp329
Rp330
sg8
S'lilith james'
p331
sa(dp332
g2
g3
((lp333
g279
ag302
ag25
atp334
Rp335
sg8
S'harold buchman'
p336
sa(dp337
g2
g3
((lp338
g25
atp339
Rp340
sg8
S'bess taffel'
p341
sa(dp342
g2
g3
((lp343
g279
aVisobel lennart
p344
aVcharles daggett
p345
ag23
ag24
ag302
aS'paul jarrico'
p346
aVpaul marion
p347
ag22
ag27
atp348
Rp349
sg8
S'paul jarrico'
p350
sa(dp351
g2
g3
((lp352
Velia kazan
p353
ag345
ag25
aVmarc lawrence
p354
atp355
Rp356
sg8
S'morris carnovsky'
p357
sa(dp358
g2
g3
((lp359
g347
atp360
Rp361
sg8
S'alvin hammer'
p362
sa(dp363
g2
(lp364
S'edward chodorov'
p365
aS'lionel berman'
p366
aS'jerome chodorov'
p367
aVherbert robbins
p368
aS'lloyd gough'
p369
aS'madeline lee'
p370
aS'lettie stever'
p371
aS'edna ocko'
p372
aS'elliott sullivan'
p373
ag136
asg8
S'jerome robinson'
p374
sa(dp375
g2
g3
((lp376
g22
ag317
atp377
Rp378
sg8
S'leonardo bercovici'
p379
sa(dp380
g2
g3
((lp381
Vdonald o. spencer
p382
ag273
aVbereniece baldwin
p383
atp384
Rp385
sg8
S'harold ashe'
p386
sa(dp387
g2
g3
((lp388
Vmrs. eugene
p389
atp390
Rp391
sg8
S'bernyce polifka fleury'
p392
sa(dp393
g2
(lp394
g179
asg8
S'meta reis rosenberg'
p395
sa(dp396
g2
(lp397
S'stanley hancock'
p398
aS'sarah bognoff'
p399
ag95
ag36
asg8
S'charles garrigues'
p400
sa(dp401
g2
g3
((lp402
Vfrank tuttle
p403
atp404
Rp405
sg8
S'michael gordon'
p406
sa(dp407
g2
(lp408
g212
ag245
aS'sylvia siegel'
p409
ag248
ag243
ag215
asg8
S'sol short'
p410
sa(dp411
g2
g3
((lp412
g382
aVbernard schoenfeld
p413
atp414
Rp415
sg8
S'michael wilson'
p416
sa(dp417
g2
(lp418
g222
ag238
ag241
ag212
ag165
ag298
aS'sondra gorney'
p419
ag229
aS'stanley praeger'
p420
asg8
S'bart lytton'
p421
sa(dp422
g2
g3
((lp423
g347
ag354
atp424
Rp425
sg8
S'jeff corey'
p426
sa(dp427
g2
(lp428
S'gale sondergaard'
p429
aVmr. rossen
p430
aS'ann revere'
p431
aS'victor killian'
p432
ag369
aS'karen morley'
p433
aS'morris carnovsky'
p434
aS'dorothy tree'
p435
asg8
S'larry parks'
p436
sa(dp437
g2
g3
((lp438
Vrichard f. o'hair
p439
ag383
atp440
Rp441
sg8
g290
sa(dp442
g2
g3
((lp443
g286
atp444
Rp445
sg8
S'alfred levitt'
p446
sa(dp447
g2
g3
((lp448
Vharold ashe
p449
ag345
aVmildred ashe
p450
atp451
Rp452
sg8
S'percy solotoy'
p453
sa(dp454
g2
g3
((lp455
g344
ag27
ag286
atp456
Rp457
sg8
S'george willner'
p458
sa(dp459
g2
g3
((lp460
g382
atp461
Rp462
sg8
S'jerry fielding'
p463
sa(dp464
g2
g3
((lp465
g196
atp466
Rp467
sg8
S'robert l. richards'
p468
sa(dp469
g2
g3
((lp470
g25
atp471
Rp472
sg8
S'daniel lewis james'
p473
sa(dp474
g2
g3
((lp475
Vmrs ludwig donath
p476
aVmrs. donath
p477
atp478
Rp479
sg8
S'hannah donath'
p480
sa(dp481
g2
g3
((lp482
g347
atp483
Rp484
sg8
S'reuben ship'
p485
sa(dp486
g2
g3
((lp487
g27
ag317
atp488
Rp489
sg8
S'francis edward faragoh'
p490
sa(dp491
g2
g3
((lp492
g449
atp493
Rp494
sg8
S'will geer'
p495
sa(dp496
g2
g3
((lp497
Vwalter scott dunn
p498
aVshelton tappes
p499
aVwayne b. salisbury
p500
ag439
ag383
atp501
Rp502
sg8
S'william l. alland'
p503
sa(dp504
g2
g3
((lp505
Vdavid aaron
p506
aVwilliam g. israel
p507
atp508
Rp509
sg8
S'george bassman'
p510
sa(dp511
g2
g3
((lp512
Valbert herzig
p513
aVmilton s. tyre
p514
ag506
ag507
atp515
Rp516
sg8
S'victor killian'
p517
sa(dp518
g2
(lp519
g103
ag130
ag151
ag155
aS'anna shepro'
p520
ag100
ag48
ag102
ag54
asg8
S'richard byrd lewis'
p521
sa(dp522
g2
g3
((lp523
g347
ag285
atp524
Rp525
sg8
S'lloyd gough'
p526
sa(dp527
g2
(lp528
S'joe saul'
p529
aS'what is smith'
p530
asg8
S'joseph springer'
p531
sa(dp532
g2
(lp533
S'robert wachsman'
p534
asg8
S'charles daggett'
p535
sa(dp536
g2
g3
((lp537
g513
ag514
ag506
ag507
atp538
Rp539
sg8
S'john w. porter'
p540
sa(dp541
g2
g3
((lp542
g196
atp543
Rp544
sg8
S'philip edward stevenson'
p545
sa(dp546
g2
g3
((lp547
g196
aVmrs. murray abo
p548
ag197
atp549
Rp550
sg8
S'ellenore abowitz'
p551
sa(dp552
g2
g3
((lp553
g500
atp554
Rp555
sg8
S'james burford'
p556
sa(dp557
g2
g3
((lp558
g403
ag25
ag286
ag285
atp559
Rp560
sg8
S'edward huebsch'
p561
sa(dp562
g2
g3
((lp563
g383
atp564
Rp565
sg8
S'julian gordon'
p566
sa.