(dp0
S'john issacs'
p1
(lp2
Vwayne b. salisbury
p3
aVrichard f. o'hair
p4
asS'william e. oliver'
p5
(lp6
Valice bennett
p7
aVurcel daniel
p8
asS'john morgan'
p9
(lp10
Vcharles d. blodgett
p11
asS'lydia mates'
p12
(lp13
Vmrs. dave mates
p14
aVbereniece baldwin
p15
asS'mary page'
p16
(lp17
Vmary reed
p18
ag15
ag4
aVfred elesio
p19
asS'miriam bonner'
p20
(lp21
Vharold ashe
p22
asS'meta r writer'
p23
(lp24
Velizabeth wilson
p25
aVisobel lennart
p26
aVleo townsend
p27
aVbernard schoenfeld
p28
aVdavid raksin
p29
aVanne ray frank
p30
aVstanley roberts
p31
aVfrank tuttle
p32
aVbudd schulberg
p33
ag22
aVwilliam blowitz
p34
aVedward dmytryk
p35
asS'ben kocel'
p36
(lp37
Vglos ludowy
p38
ag15
asS'frances itskowitz'
p39
(lp40
S'mike gold'
p41
aVfrances gordon
p42
asVmrs. harold franklin
p43
(lp44
g15
asS'anna taft'
p45
(lp46
Vrobert gladnick
p47
asS'jerry mchale'
p48
(lp49
Vdonald o. spencer
p50
asS'mike yarman'
p51
(lp52
Vnicholas campas
p53
asS'rev. jack mcmichael'
p54
(lp55
Vmanning johnson
p56
aVbenjamin gitlow
p57
aVleonard patterson
p58
asS'zara becker'
p59
(lp60
Vanne kinney
p61
aVrichard byrd lewis
p62
asS'helen wheeler'
p63
(lp64
Vlou rosser
p65
ag63
asS'claude lightfoot'
p66
(lp67
Vlee lundgren
p68
asS'ralph smith'
p69
(lp70
g22
asS'aram attarian'
p71
(lp72
g11
asS'neil hignian'
p73
(lp74
g61
asS'melva cook'
p75
(lp76
g4
aS'george cook'
p77
ag15
asS'harmon alexander'
p78
(lp79
Vpaul marion
p80
aVowen vinson
p81
asS'mildred flacks'
p82
(lp83
Vdorothy k. funn
p84
asS'joe mcclosky'
p85
(lp86
Vedith macia
p87
asS'donald n wheeler'
p88
(lp89
Vpauline s. townsend
p90
aVelizabeth bentley
p91
asS'philip saba'
p92
(lp93
Vthomas delaney
p94
aVsamuel dimaria
p95
asS'byron edwards'
p96
(lp97
Vshelton tappes
p98
ag3
asS'florence covey'
p99
(lp100
Valice bennett
p101
asS'levi johnson'
p102
(lp103
Vroy thompson
p104
asS'mildred pollock'
p105
(lp106
g15
asS'murry wagner'
p107
(lp108
Vdwight hauser
p109
asS'sam telford'
p110
(lp111
Vjames kendall
p112
asS'mason roberson'
p113
(lp114
g11
asS'leonard lauderdale'
p115
(lp116
g15
asS'leonardo bercovici'
p117
(lp118
Vrichard collins
p119
ag35
asVmr. lusher
p120
(lp121
sS'floyd mcdonnell'
p122
(lp123
g3
asS'tom defazio'
p124
(lp125
g94
ag95
asS'willie newman'
p126
(lp127
g4
asS'charlie busk'
p128
(lp129
Vbertha grover
p130
asS'ned gorgolinski'
p131
(lp132
Virving krane
p133
ag68
asS'harriet bouslog'
p134
(lp135
g84
asS'joseph melia'
p136
(lp137
Vdickson p. hill
p138
ag11
aVwilliam d. ames
p139
asS'clarence davis'
p140
(lp141
g11
asS'barbara wooley'
p142
(lp143
S'angus wooley'
p144
ag90
aVbarbara roberts
p145
asS'eli jacobson'
p146
(lp147
Vgeorge bassman
p148
asS'katherine ripken'
p149
(lp150
Vwalter scott dunn
p151
asS'robert rutman'
p152
(lp153
sS'nina oster'
p154
(lp155
g87
asS'joe lash'
p156
(lp157
g58
asS'euenore abowitz'
p158
(lp159
g61
asS'walter stempel'
p160
(lp161
g68
asS'george blake'
p162
(lp163
Vjohn mills davis
p164
asS'kathleen dickerson'
p165
(lp166
g139
asS'lou harris'
p167
(lp168
Vrobert rossen
p169
aVroland w. kibbee
p170
asS'leroy tribbite'
p171
(lp172
Valcide t. kratz
p173
asS'ben terry'
p174
(lp175
g104
asS'elizabeth grant'
p176
(lp177
g25
aVleopold atlas
p178
asS'eric dearnley'
p179
(lp180
g15
asS'milton lester'
p181
(lp182
Vdr. lester
p183
asS'martha lepowsky'
p184
(lp185
Vmrs. john edith
p186
ag84
asS'wilford sherrington'
p187
(lp188
g94
asS'joe lynch'
p189
(lp190
Vernest l. seymour
p191
asVmrs. hugo beiswenger
p192
(lp193
g151
ag3
ag4
asS'ben bengal'
p194
(lp195
g90
ag27
asS'julia gudinas'
p196
(lp197
g133
ag68
asS'gale. biberman'
p198
(lp199
S'gale sondergaard'
p200
asS'katherine foreman'
p201
(lp202
g101
asS'ruth h. wellnian'
p203
(lp204
g87
asS'helen jacobson'
p205
(lp206
g164
asS'margaret wilson'
p207
(lp208
g65
ag61
asS'donnie baron'
p209
(lp210
g15
asS'milton casluier'
p211
(lp212
g61
asS'lee barrie'
p213
(lp214
g81
asS'gladys liefchild'
p215
(lp216
g101
aVmrs. gerald lief
p217
asS'aldo sandretto'
p218
(lp219
g15
asS'dr. perry'
p220
(lp221
Vthomas l. louise light silver
p222
asS'ann delancey'
p223
(lp224
g4
asS'celia wilhy'
p225
(lp226
Vsilvia richards
p227
asS'marvin bargeman'
p228
(lp229
Vdavid a. lang
p230
asVt. kratz
p231
(lp232
g133
aVdr. mendell m. krieger
p233
asg200
(lp234
Vmr. gerber
p235
aVlee j. cobb
p236
aVedith holm sond
p237
aVlarry parks
p238
aVmrs. herbert biberman
p239
asS'herb kalman'
p240
(lp241
g138
ag130
ag191
asS'gus gustofson'
p242
(lp243
g50
asS'eddie fisher'
p244
(lp245
g61
asVcatherine hall
p246
(lp247
g50
asS'sam donchin'
p248
(lp249
g95
asS'libby jacobson'
p250
(lp251
g61
asS'leo ploetchl'
p252
(lp253
g15
asS'bertha bargeman'
p254
(lp255
g230
asS'randolph luke'
p256
(lp257
g104
asS'tom nabried'
p258
(lp259
g94
ag95
asS'helen gardner'
p260
(lp261
g61
aVurcel daniel
p262
aVcharles judson
p263
asVgertrude purcell
p264
(lp265
Vkapf maurice
p266
aVpaul benedict mar. 12
p267
asS'sylvia siegel'
p268
(lp269
Vharold hecht
p270
aVsol shor
p271
asS'samuel sillen'
p272
(lp273
Vrobert gorham davis
p274
ag80
asS'lillian lowenfels'
p275
(lp276
Vmrs. ball
p277
aVmrs. lowenfeb
p278
ag61
asS'sam kubin'
p279
(lp280
g87
asS'walter lowenfels'
p281
(lp282
g95
asS'william g soler'
p283
(lp284
sVmrs. carl palmquist
p285
(lp286
g15
asS'irene short'
p287
(lp288
g287
ag53
asVmarjorie manoff
p289
(lp290
g25
aS'marjorie. potts'
p291
aVmrs. arnold manoff
p292
ag27
asS'estelle n thomas'
p293
(lp294
Vmiss thomas
p295
asS'lionel stander'
p296
(lp297
g22
aVmildred ashe
p298
aVmarc lawrence
p299
asS'marian shire'
p300
(lp301
g61
asS'wilma persley'
p302
(lp303
g173
asS'seth levine'
p304
(lp305
g84
asS'nancy reeves'
p306
(lp307
Vdavid aaron
p308
asS'eugene eagle'
p309
(lp310
g138
asS'ida rothstein'
p311
(lp312
g65
asS'calvin batiste'
p313
(lp314
g130
asS'pele edises'
p315
(lp316
g11
asS'j masee'
p317
(lp318
g4
asS'bill crockett'
p319
(lp320
g139
asS'george willner'
p321
(lp322
g178
ag26
ag227
aVmelvin levy
p323
aVbabbette lang
p324
aVreis rosenberg
p325
asS'robert l. richards'
p326
(lp327
Vroy huggins
p328
asS'sam goodwin'
p329
(lp330
g65
asS'morris zuckman'
p331
(lp332
g164
aVsamuel evens
p333
asS'joe balsis'
p334
(lp335
g173
asS'irving myer'
p336
(lp337
g87
asS'edward brown'
p338
(lp339
Vjohn edward cooke
p340
ag68
asS'anna brickman'
p341
(lp342
g164
ag333
asS'andy barrigan'
p343
(lp344
g262
asS'leo t. orsage'
p345
(lp346
g98
ag15
asS'john bevins'
p347
(lp348
g61
asS'harry tarnoff'
p349
(lp350
g61
asS'violet orr'
p351
(lp352
g65
asS'ginny lee'
p353
(lp354
g3
asS'murray borad'
p355
(lp356
g15
asS'pauline epstein'
p357
(lp358
Vmarburg yerkes
p359
ag308
aVwilliam g. israel
p360
asS'dave hedley'
p361
(lp362
g65
asS'harry fruit'
p363
(lp364
sS'betty arden'
p365
(lp366
g61
ag298
asS'flo atkinson'
p367
(lp368
Vmrs. richard criley
p369
asS'sondra gorney'
p370
(lp371
Vbart lytton
p372
aVcharles daggett
p373
ag90
ag27
asS'fred moore'
p374
(lp375
g340
asS'lauren taylor'
p376
(lp377
g94
aVbaldwin locomotive
p378
asS'viola b shore'
p379
(lp380
g324
asS'sidney druckman'
p381
(lp382
S'dr. decker'
p383
asS'kelly douglas'
p384
(lp385
g333
asS'hallie jonas'
p386
(lp387
Vcarin kinzel
p388
asVelizabeth mcmuuen
p389
(lp390
g138
aVmrs. arthur mayhew
p391
asS'eva pitcher'
p392
(lp393
g3
asS'ohio. as cokimbus'
p394
(lp395
Vbyron thorwell darling
p396
aVbella v. dodd
p397
asS'arthur mcphaul'
p398
(lp399
g151
ag98
ag3
ag15
ag4
asS'holland roberts'
p400
(lp401
g61
asS'sam kramberg'
p402
(lp403
g53
asS'mischa altman'
p404
(lp405
g29
asS'elizabeth clark'
p406
(lp407
g4
asS'wayne hultgren'
p408
(lp409
g138
ag139
asS'decca treuhaft'
p410
(lp411
g138
aVmrs. robert treu
p412
asS'james dawkins'
p413
(lp414
g133
ag68
asS'ruth levitova'
p415
(lp416
g68
asS'jessie obitz'
p417
(lp418
g104
asS'clara rairland'
p419
(lp420
Vmary e. p. bradsher
p421
asS'radio electrical'
p422
(lp423
g340
ag133
ag50
ag68
ag104
ag173
asS'esther soler'
p424
(lp425
g412
aVwilliam b. mann school
p426
asS'arnold manoff'
p427
(lp428
g230
ag178
ag236
ag227
asS'neil crowe'
p429
(lp430
g191
ag112
asS'charles a duarte'
p431
(lp432
g65
asS'sid hoff'
p433
(lp434
g47
asS'angelina riskin'
p435
(lp436
g61
asS'june naboisek'
p437
(lp438
g421
asS'goodman brudney'
p439
(lp440
g11
asS'joe crago'
p441
(lp442
g164
ag333
asS'george siskin'
p443
(lp444
g65
ag94
ag3
asS'carleton moss'
p445
(lp446
g325
asS'terry clark'
p447
(lp448
g4
asS'matthew crawford'
p449
(lp450
g65
asS'irving herman'
p451
(lp452
g68
asS'norma barzman'
p453
(lp454
g90
ag328
ag27
asS'leo cottrell'
p455
(lp456
g15
asS'bert corona'
p457
(lp458
g65
asS'fanny emer'
p459
(lp460
g87
asS'henry blankfort'
p461
(lp462
g230
ag169
ag109
ag388
ag35
asS'kathleen hee'
p463
(lp464
g11
asS'israel halperin'
p465
(lp466
g274
aVmr. robbins
p467
aVgranville hicks
p468
aVwilliam t. martin
p469
aVgeorge mayberry
p470
aVdaniel j. boorstin
p471
asS'alvin frisbie'
p472
(lp473
g340
asS'russell kitto'
p474
(lp475
g15
asS'harry freed'
p476
(lp477
g68
asS'elliott grennard'
p478
(lp479
g230
ag328
asS'michael uris'
p480
(lp481
g32
ag230
ag169
ag325
ag35
asS'sonora babb'
p482
(lp483
g148
asS'frank pestana'
p484
(lp485
Vmilton s. tyre
p486
ag308
ag360
asS'sidney belinky'
p487
(lp488
g164
ag333
asS'dick fiske'
p489
(lp490
g25
asS'dave drummond'
p491
(lp492
g47
asS'connie l bennett'
p493
(lp494
g230
asS'herbert parker'
p495
(lp496
g53
asg14
(lp497
g15
asS'helen sanberg'
p498
(lp499
S'jack sanberg'
p500
ag4
asS'myrtle wixman'
p501
(lp502
g61
asS'harry kramer'
p503
(lp504
g11
asS'bob chasson'
p505
(lp506
g65
ag61
asS'sterling rochester'
p507
(lp508
g95
asS'katie lee'
p509
(lp510
g15
ag4
asS'virginia kibre'
p511
(lp512
g22
ag298
asS'morton grant'
p513
(lp514
g25
ag230
ag178
ag169
ag34
asS'lawrence ross'
p515
(lp516
g22
ag298
asS'celeste strack'
p517
(lp518
g65
ag328
asS'william chandler'
p519
(lp520
g15
asS'charles leonard'
p521
(lp522
g230
ag324
ag227
ag388
asS'walter kempler'
p523
(lp524
g523
asS'miriam chown'
p525
(lp526
g138
asS'seymour mandell'
p527
(lp528
g486
ag308
ag360
asS'phil raymond'
p529
(lp530
g3
ag15
asS'olaf leddel'
p531
(lp532
g50
asS'yield kramer'
p533
(lp534
g340
asS'harry glassgold'
p535
(lp536
g4
asS'doris roberson'
p537
(lp538
g138
asS'ruth beeman'
p539
(lp540
g22
ag298
asS'jake price'
p541
(lp542
g139
asS'sam horn'
p543
(lp544
g230
ag87
ag324
ag170
asS'martha mcmullen'
p545
(lp546
g138
aS'louis mcmullen'
p547
asS'sam darcy'
p548
(lp549
g65
aS'joe koide'
p550
asS'saul grossman'
p551
(lp552
g15
asS'bernie nidiss'
p553
(lp554
g87
asS'leroy krawford'
p555
(lp556
g98
ag4
asS'george v frederick'
p557
(lp558
g138
ag421
asS'howard koch'
p559
(lp560
g230
aVdarling adams
p561
asS'john h reynolds'
p562
(lp563
g274
ag469
aVnorman levinson
p564
asS'holly perlman'
p565
(lp566
g87
asS'edward huebsch'
p567
(lp568
g230
asS'samuel ornitz'
p569
(lp570
g25
ag119
ag325
asS'florence hall'
p571
(lp572
g133
ag68
asS'libby minkus'
p573
(lp574
g61
asS'tiba willner'
p575
(lp576
g26
ag227
ag324
asS'george pepper'
p577
(lp578
g35
asS'john dicho'
p579
(lp580
g87
asS'charles killinger'
p581
(lp582
g173
asS'adam lapin'
p583
(lp584
g57
ag11
asVpauline lauber finn
p585
(lp586
S'aubrey finn'
p587
aVpauline lauber finn
p588
asS'beatrice l cole'
p589
(lp590
g90
asS'lee pressman'
p591
(lp592
Vlouis f. budenz
p593
asS'robert neville'
p594
(lp595
g138
ag421
ag139
asS'lou solomon'
p596
(lp597
g230
ag169
ag90
asS'herbert blache'
p598
(lp599
g119
asS'sarah levine'
p600
(lp601
g50
asS'adele margolis'
p602
(lp603
Vmrs. nathan mar
p604
asS'in 1944 party'
p605
(lp606
S'harry jackson'
p607
aS'harrison george'
p608
aS'al brown'
p609
aS'george markham'
p610
aVroy hudson
p611
asS'william r. hood'
p612
(lp613
g98
asS'dorothy loeb'
p614
(lp615
g53
aVjoseph klein
p616
asS'norman ross'
p617
(lp618
g3
asS'philip frankfeld'
p619
(lp620
g94
asS'bill lifsee'
p621
(lp622
g4
asS'shirley kanter'
p623
(lp624
g90
asS'william creque'
p625
(lp626
g138
asS'william albertson'
p627
(lp628
g53
aVjack davis
p629
asS'madelaine ruthven'
p630
(lp631
g270
ag169
aVelizaltetb wilson
p632
ag90
ag26
ag230
ag29
ag32
ag119
ag325
asS'james tourney'
p633
(lp634
Vjim thorne
p635
ag61
asS'tommy dennis'
p636
(lp637
g3
asS'louise thompson'
p638
(lp639
g56
ag138
ag130
ag65
ag139
ag421
asS'max helfand'
p640
(lp641
g94
asS'nelson davis'
p642
(lp643
g151
ag98
ag3
ag15
asS'jesse perez'
p644
(lp645
g104
asS'burton freund'
p646
(lp647
g87
asS'leo simon'
p648
(lp649
g101
ag373
ag262
asS'beatrice buchman'
p650
(lp651
Vmrs. sidney buch
p652
asS'harry fainaru'
p653
(lp654
g3
asS'john lymber'
p655
(lp656
g4
asS'herbert davis'
p657
(lp658
Vherbert goldfrank
p659
asS'emma stanley'
p660
(lp661
g138
asS'walter kolowski'
p662
(lp663
g47
asVmrs. gus browne edith macia
p664
(lp665
g87
asS'morris salz'
p666
(lp667
Vdorothy k. fram
p668
aVk. frmn
p669
asS'david hilberman'
p670
(lp671
Veugene fleury
p672
aVmrs. david hilber
p673
asS'joe saul'
p674
(lp675
g324
aVjoseph springer
p676
asS'evelyn keller'
p677
(lp678
g61
asS'ike greenberg'
p679
(lp680
g3
asS'marion e patrick'
p681
(lp682
Vfred douglas club
p683
ag15
asS'russell a nixon'
p684
(lp685
g95
ag84
asS'bob cummins'
p686
(lp687
g15
asS'jane d kelly'
p688
(lp689
g87
asVmrs. milton freeman
p690
(lp691
g4
asS'mike karpa'
p692
(lp693
g68
asS'hazel gray'
p694
(lp695
g340
asS'john gustafson'
p696
(lp697
g15
asS'helen mallof'
p698
(lp699
g11
ag61
asS'matilda mcintosh'
p700
(lp701
Vmrs. ronald mcintosh
p702
ag3
asS'honor carey'
p703
(lp704
Vleroy herndon
p705
ag61
ag62
asS'william a. rodgers'
p706
(lp707
g4
asS'lloyd lehman'
p708
(lp709
g65
ag138
asS'charlie white'
p710
(lp711
g421
asS'stanley nowak'
p712
(lp713
Vcasimir rataj
p714
asS'alice wilson'
p715
(lp716
g47
asS'martha stone'
p717
(lp718
g65
asS'john hubley'
p719
(lp720
g561
asS'tom miller'
p721
(lp722
g22
asS'james avery'
p723
(lp724
g104
asS'peter hassen'
p725
(lp726
g173
asS'irving white'
p727
(lp728
g80
asS'louis goldblatt'
p729
(lp730
g65
aVlewis miller
p731
asS'lester fuller'
p732
(lp733
g178
ag169
asS'shirley ross'
p734
(lp735
g3
asS'john sanford'
p736
(lp737
g25
asS'bernard lucas'
p738
(lp739
g68
asVherbert robbins
p740
(lp741
Vjerome robbins
p742
asS'art rhodes'
p743
(lp744
g15
ag68
asS'william ingham'
p745
(lp746
g101
ag22
asS'hilliard ellis'
p747
(lp748
g68
asS'pete matanami'
p749
(lp750
g138
asS'gilbert green'
p751
(lp752
g95
asS'otty heller'
p753
(lp754
g95
asS'joseph reams'
p755
(lp756
g94
ag3
asS'rosalind lindesmith'
p757
(lp758
g138
ag139
asg587
(lp759
g486
ag308
asS'betty. martin'
p760
(lp761
g61
asS'pauline hopkins'
p762
(lp763
Vroy erwin
p764
ag80
ag388
ag227
asVamalia pesko crago
p765
(lp766
g441
asS'stanley praeger'
p767
(lp768
g372
ag90
asS'allen johnson'
p769
(lp770
g11
asS'harry f. ward'
p771
(lp772
g56
ag58
asS'bay teeple'
p773
(lp774
g50
asg383
(lp775
g22
asS'bea baron'
p776
(lp777
g61
asg144
(lp778
g90
asS'george chakin'
p779
(lp780
g47
asS'jules yanover'
p781
(lp782
Vrichard o'hair
p783
asS'herman clott'
p784
(lp785
g84
asVv. j.
p786
(lp787
g469
aVisadore amdur
p788
ag164
ag333
ag61
asS'bea burke'
p789
(lp790
g61
asS'paul rosenfeld'
p791
(lp792
g90
asS'freddie walker'
p793
(lp794
g130
asS'jean butler'
p795
(lp796
g31
asS'imogene brantley'
p797
(lp798
g797
asS'nori lafferty'
p799
(lp800
g138
asS'sally pietrowski'
p801
(lp802
S'eddie pietrowski'
p803
ag3
asS'dalton trmiibo'
p804
(lp805
g230
aVmax benoff
p806
ag169
ag178
asS'iva anthony'
p807
(lp808
g87
asS'sarah bognoff'
p809
(lp810
Vcharles h. garrigues
p811
asS'gus jurist'
p812
(lp813
g15
asS'alberto moreau'
p814
(lp815
g84
asS'henry shire'
p816
(lp817
g61
ag84
asS'daniel l james'
p818
(lp819
g27
asg608
(lp820
g61
asS'hetty vorhaus'
p821
(lp822
g28
asS'robert cohen'
p823
(lp824
g84
asS'molly young'
p825
(lp826
g227
asS'bill norman'
p827
(lp828
g87
ag47
ag397
aVsteve miller
p829
ag56
asS'robert campbell'
p830
(lp831
g84
asS'luther morris'
p832
(lp833
g11
ag139
asS'molly thorner'
p834
(lp835
g139
asS'dorothy blumberg'
p836
(lp837
g277
ag84
asS'walter mcelroy'
p838
(lp839
g298
asS'florence hutchinson'
p840
(lp841
g138
asS'sandra martin'
p842
(lp843
g11
asS'flo cohen'
p844
(lp845
g164
ag333
asS'sadie ornitz'
p846
(lp847
g25
ag324
aVmrs. sam ornitz
p848
ag629
asS'delaware jersey'
p849
(lp850
g94
aVjoe kuzma
p851
asS'paul schlipf'
p852
(lp853
g11
asS'doris fogarty'
p854
(lp855
g138
asS'bill oliver'
p856
(lp857
g101
ag262
asS'allan bomser'
p858
(lp859
g87
asS'bettv verri'
p860
(lp861
g68
asS'branislaus zukas'
p862
(lp863
g101
asg191
(lp864
g191
asg500
(lp865
g4
asS'abner berry'
p866
(lp867
g3
ag4
asS'charley hayes'
p868
(lp869
g104
asS'beckie wolstenholme'
p870
(lp871
g11
aVmrs. art wol
p872
asS'william allan'
p873
(lp874
g151
ag98
ag3
ag15
ag4
asS'marcella avnet'
p875
(lp876
g84
asS'fred putnam'
p877
(lp878
g87
ag61
asS'richard schlatter'
p879
(lp880
sS'arthur storey'
p881
(lp882
g94
ag4
asS'victor kaplan'
p883
(lp884
Valbert herzig
p885
ag486
ag308
ag360
asS'rose bush'
p886
(lp887
g87
ag61
ag298
aVmrs. dave sharf
p888
asS'anita boyagian'
p889
(lp890
g87
asVelizabeth mc
p891
(lp892
S'elizabeth. mayhew'
p893
asS'jesus gonzales'
p894
(lp895
g15
asS'ben maddow'
p896
(lp897
g90
asS'josephine w eidenoff'
p898
(lp899
g138
asS'arthur barry'
p900
(lp901
g53
asS'ralph cohen'
p902
(lp903
g11
ag164
ag333
asS'ida wood'
p904
(lp905
g138
asS'john schmies'
p906
(lp907
g50
ag173
asS'bella l reynolds'
p908
(lp909
Vmrs. roy thompson
p910
asS'james jackson'
p911
(lp912
g3
ag15
asS'sylvia m polonsky'
p913
(lp914
Vmrs. abraham polonsky
p915
ag27
asS'dave teitelbaum'
p916
(lp917
g112
asS'herschel alexander'
p918
(lp919
g388
ag109
ag65
ag11
ag227
ag139
asS'arthur anhattzer'
p920
(lp921
g87
asS'leslie dolman'
p922
(lp923
g3
asS'william taylor'
p924
(lp925
g84
asS'the committee springer'
p926
(lp927
Vmax klansky
p928
asS'ann r rieliards'
p929
(lp930
g84
asS'melvin krantzler'
p931
(lp932
g68
asS'jack stachel'
p933
(lp934
g94
ag3
asS'ellenore abowitz'
p935
(lp936
g328
aVmrs. murray abo
p937
ag233
asS'elliot maraniss'
p938
(lp939
g15
asS'sidney claibourne'
p940
(lp941
g11
asS'milton henry'
p942
(lp943
g61
asS'tom. dombrowski'
p944
(lp945
g151
ag3
ag4
asS'abraham maymadus'
p946
(lp947
g61
asS'harry gilder'
p948
(lp949
g87
asS'kay bassman'
p950
(lp951
Vf. martin
p952
ag148
asS'catherine vandercar'
p953
(lp954
g324
asS'carroll barnes'
p955
(lp956
g138
asS'gordon williams'
p957
(lp958
g138
ag11
asVmr. lazarus
p959
(lp960
sS'philip connelly'
p961
(lp962
g101
ag22
ag262
ag263
asVmrs. julian gordon
p963
(lp964
g15
asS'helen samuels'
p965
(lp966
g87
asS'mary m maraniss'
p967
(lp968
Vmary morrison
p969
asS'sidney freeman'
p970
(lp971
g705
asS'rose malloy'
p972
(lp973
g87
asS'ruth burrows'
p974
(lp975
g90
asVdildar sandow
p976
(lp977
g138
ag976
asS'dora garber'
p978
(lp979
g87
asS'edward chodorov'
p980
(lp981
g742
asS'billie mogill'
p982
(lp983
Vmrs. george mogill
p984
ag15
asS'charles katz'
p985
(lp986
g885
ag486
ag308
ag360
asS'edith landall'
p987
(lp988
g87
ag230
ag169
ag90
ag170
asS'pete kowal'
p989
(lp990
g15
asS'agnes grigg'
p991
(lp992
g15
asS'joe rohr'
p993
(lp994
g87
asS'andy lancey'
p995
(lp996
g151
asS'benny goodman'
p997
(lp998
g61
asS'boleslaw gebert'
p999
(lp1000
g714
asS'leon meadows'
p1001
(lp1002
g388
asS'stanley chapman'
p1003
(lp1004
g84
asS'fred fine'
p1005
(lp1006
Vdave averill
p1007
ag25
ag3
ag15
ag133
ag27
ag68
ag32
asS'tillie olelvsiuk'
p1008
(lp1009
g87
asS'lee gold'
p1010
(lp1011
g333
aVmrs. irving
p1012
ag227
aVmrs. nathan gold
p1013
ag164
asS'anthony matusek'
p1014
(lp1015
g340
asS'john nowak'
p1016
(lp1017
g15
asS'jack mondress'
p1018
(lp1019
g95
asS'mitchell lindeman'
p1020
(lp1021
g80
ag388
ag81
asS'julius dassin'
p1022
(lp1023
g32
ag35
asS'blackie meyers'
p1024
(lp1025
g112
asS'salvatore gentilli'
p1026
(lp1027
g629
asS'david perloff'
p1028
(lp1029
Vabraham lin
p1030
asS'carmen melia'
p1031
(lp1032
g11
asS'louis geller'
p1033
(lp1034
g53
ag164
ag333
asS'kurt davis'
p1035
(lp1036
g15
asS'ida whipple'
p1037
(lp1038
g3
asS'paul endicott'
p1039
(lp1040
g3
ag15
asS'hank morley'
p1041
(lp1042
g561
asS'lawrence west'
p1043
(lp1044
g61
asS'selma bachelis'
p1045
(lp1046
g561
ag885
ag486
ag308
ag360
asS'mary robinson'
p1047
(lp1048
g764
ag80
ag81
asVmr. rossen
p1049
(lp1050
g238
asS'herbert march'
p1051
(lp1052
g104
ag68
asS'earl phillips'
p1053
(lp1054
g138
ag11
asS'kate lawson'
p1055
(lp1056
g561
asS'oscar barnes'
p1057
(lp1058
g151
asVsam reznick
p1059
(lp1060
g101
asS'jacob druckman'
p1061
(lp1062
g1059
asS'saul wellman'
p1063
(lp1064
g15
asS'cliff stice'
p1065
(lp1066
g87
asS'ruth s ryan'
p1067
(lp1068
g324
ag61
asS'james tracy'
p1069
(lp1070
g22
asS'june kelleher'
p1071
(lp1072
g87
asS'clarence tobet'
p1073
(lp1074
g138
ag139
asS'florence criley'
p1075
(lp1076
g369
ag367
asS'also he fascism'
p1077
(lp1078
g56
aVjohn edmiston
p1079
ag58
asS'ben olson'
p1080
(lp1081
g227
ag84
asS'john anderson'
p1082
(lp1083
g3
ag4
asS'arthur lishner'
p1084
(lp1085
g1084
asS'john mcternan'
p1086
(lp1087
g486
ag308
ag360
asS'casper kennedy'
p1088
(lp1089
g3
asS'pfc. searles'
p1090
(lp1091
g3
asS'sam h allen'
p1092
(lp1093
g308
ag360
asS'jake jacobowitz'
p1094
(lp1095
g15
asVwilliam l.patterson
p1096
(lp1097
g340
ag104
ag68
asS'philip stevenson'
p1098
(lp1099
g178
ag90
asS'cecil beard'
p1100
(lp1101
g561
asS'hyman koppelman'
p1102
(lp1103
g84
asS'laurie blankfort'
p1104
(lp1105
g230
asS'robert sloan'
p1106
(lp1107
g270
asS'william j. bailey'
p1108
(lp1109
g112
asS'ernie sorenson'
p1110
(lp1111
g4
ag15
asS'clara ward'
p1112
(lp1113
g22
ag298
asS'naomi robeson'
p1114
(lp1115
g178
ag109
asS'howland chamberlin'
p1116
(lp1117
Vmrs. charles glenn
p1118
ag61
asS'ann r morgan'
p1119
(lp1120
Vann roth morgan richards
p1121
aS'ann rotti'
p1122
asS'frauces capelle'
p1123
(lp1124
g138
ag130
ag139
asS'catherine becker'
p1125
(lp1126
g90
asS'sidney barclay'
p1127
(lp1128
g15
asS'john bittman'
p1129
(lp1130
g11
asS'vern anthony'
p1131
(lp1132
g87
asS'bruno bartnick'
p1133
(lp1134
g340
asS'bill daley'
p1135
(lp1136
g3
asS'john jeffrey'
p1137
(lp1138
g270
ag61
ag58
asS'louise todd'
p1139
(lp1140
g22
ag298
asS'blaehevherbert'
p1141
(lp1142
g119
asS'ishmael flory'
p1143
(lp1144
g53
ag629
asS'donald tiegland'
p1145
(lp1146
g50
asS'robert wachsman'
p1147
(lp1148
Vcharles daggett
p1149
asVmr. cham
p1150
(lp1151
Vben davis club
p1152
ag3
asS'clem dalton'
p1153
(lp1154
g15
asS'sam cloner'
p1155
(lp1156
g561
asS'rose kliue'
p1157
(lp1158
g87
asS'bert cooper'
p1159
(lp1160
g764
asS'leo baroway'
p1161
(lp1162
g61
asVmr. goldstein
p1163
(lp1164
g87
aVherbert philbrick
p1165
asS'tersil t. obriot'
p1166
(lp1167
g98
ag15
asS'marjorie eisler'
p1168
(lp1169
g11
ag130
asS'shirley taylor'
p1170
(lp1171
g84
asS'millard lanipell'
p1172
(lp1173
g227
asS'eleanor price'
p1174
(lp1175
g94
asS'rose elfman'
p1176
(lp1177
g298
asVharvey narcisenfeld
p1178
(lp1179
sS'albert maltz'
p1180
(lp1181
g270
ag806
ag178
ag26
ag28
ag30
ag32
ag324
ag119
ag325
ag35
asS'george sklar'
p1182
(lp1183
g230
ag26
ag328
asS'al white'
p1184
(lp1185
g87
ag58
ag65
ag421
asS'louis sciverras'
p1186
(lp1187
g4
asS'sam kushner'
p1188
(lp1189
g133
ag68
asS'mary bray'
p1190
(lp1191
g151
ag15
asS'elinor maki'
p1192
(lp1193
Vmrs. william
p1194
ag15
asS'david flacks'
p1195
(lp1196
g84
asVmrs. irving riskin
p1197
(lp1198
g151
ag1197
ag4
asS'jessie pedrick'
p1199
(lp1200
g65
ag138
aVmax appleman
p1201
ag130
asS'leona mcginty'
p1202
(lp1203
g61
aVmrs. howland cham
p1204
asS'duncan keir'
p1205
(lp1206
g112
asS'ethel karson'
p1207
(lp1208
g87
asS'hannah shapiro'
p1209
(lp1210
g164
ag333
asS'si fialkoff'
p1211
(lp1212
g53
asS'annie alexander'
p1213
(lp1214
g104
asVpaul zilseh daniel fine
p1215
(lp1216
Vpeter bent
p1217
asS'harry boskey'
p1218
(lp1219
g3
ag15
asVmr. levy
p1220
(lp1221
Vharry j. marks
p1222
asS'omar kidwell'
p1223
(lp1224
g3
asS'ozzo marrow'
p1225
(lp1226
g130
asS'tom chapman'
p1227
(lp1228
g25
ag178
asS'john wexley'
p1229
(lp1230
g372
ag169
ag3
ag27
ag230
ag90
ag35
asS'jessie burns'
p1231
(lp1232
g25
ag26
asS'jack burris'
p1233
(lp1234
g65
asS'david livingston'
p1235
(lp1236
sS'clarice chapman'
p1237
(lp1238
g178
asS'shirley stone'
p1239
(lp1240
g87
aVshirley ellis
p1241
asS'pauline vinson'
p1242
(lp1243
Vmrs. owen vinson
p1244
aS'pauline hopkins'
p1245
asg486
(lp1246
g885
ag308
ag360
asS'maurice cook'
p1247
(lp1248
g151
ag3
ag15
ag4
asS'alexander riskin'
p1249
(lp1250
g1059
ag61
asS'harry norman'
p1251
(lp1252
g87
ag230
asS'donald baker'
p1253
(lp1254
g65
asS'edna ocko'
p1255
(lp1256
g742
asVtim potter
p1257
(lp1258
g22
asS'harold klein'
p1259
(lp1260
g53
ag164
ag333
asS'marie rinaldo'
p1261
(lp1262
Vn. y.
p1263
ag27
asS'annette harper'
p1264
(lp1265
g80
ag109
ag173
ag388
ag81
asg323
(lp1266
g94
asS'arthur hendle'
p1267
(lp1268
g50
asS'bob cohn'
p1269
(lp1270
g101
asS'emily gordon'
p1271
(lp1272
g1271
ag963
ag61
ag15
asS'ted kalman'
p1273
(lp1274
g138
ag130
ag139
asS'miss j gilbert'
p1275
(lp1276
g11
asS'louise. todd'
p1277
(lp1278
g138
ag11
ag61
asS'dewey mcgee'
p1279
(lp1280
g1007
asS'teresa kalman'
p1281
(lp1282
g130
asS'william connors'
p1283
(lp1284
g4
asS'isaac folkoff'
p1285
(lp1286
Vsterling hayden
p1287
asS'john rapf'
p1288
(lp1289
g764
ag178
ag90
asS'joe adams'
p1290
(lp1291
g87
asS'tamara hovey'
p1292
(lp1293
g227
asS'howard fast'
p1294
(lp1295
g94
ag90
asS'gene lien'
p1296
(lp1297
g138
ag421
asS'ben margolis'
p1298
(lp1299
g690
asS'sam gelfand'
p1300
(lp1301
g61
asS'max ireland'
p1302
(lp1303
g151
asS'paul curtis'
p1304
(lp1305
g230
asS'ella gonzales'
p1306
(lp1307
g421
asS'sven falk'
p1308
(lp1309
g3
ag15
asS'bjorne halliug'
p1310
(lp1311
g191
ag84
asVu. s.
p1312
(lp1313
g616
asS'barbara bick'
p1314
(lp1315
g11
asS'herbert klein'
p1316
(lp1317
g22
ag61
asS'carl dorfman'
p1318
(lp1319
g323
ag31
aVwilliam z. foster
p1320
asS'ruth webb'
p1321
(lp1322
g714
ag4
asS'charles dorenz'
p1323
(lp1324
g53
ag164
ag629
asS'herta uerkvitz'
p1325
(lp1326
g25
asS'gertrude warwick'
p1327
(lp1328
g130
ag11
ag139
asS'ruth finkelstein'
p1329
(lp1330
g84
asS'lawn brooks'
p1331
(lp1332
g87
asVmr. andren
p1333
(lp1334
sS'hank ripken'
p1335
(lp1336
g15
asS'eugene a toopeekoff'
p1337
(lp1338
g112
asS'ken pettus'
p1339
(lp1340
g81
asS'florence tobey'
p1341
(lp1342
g65
ag138
ag139
ag191
aVmr. tobey
p1343
asS'lee coe'
p1344
(lp1345
g138
ag11
ag139
asS'charles stone'
p1346
(lp1347
g87
asS'shimen raskin'
p1348
(lp1349
g236
asS'ole fagerhaugh'
p1350
(lp1351
g11
asS'abe sokolov'
p1352
(lp1353
g95
asS'leon turrett'
p1354
(lp1355
g359
ag308
asS'william m. samuels'
p1356
(lp1357
g308
asS'tony kraber'
p1358
(lp1359
Velia kazan
p1360
aVclifford odets
p1361
asS'dave grant'
p1362
(lp1363
g1222
asS'edward turner'
p1364
(lp1365
g151
ag1263
ag15
ag4
asS'paul perlin'
p1366
(lp1367
g561
asS'nathan goldstein'
p1368
(lp1369
g164
ag333
asS'jeauette dworkin'
p1370
(lp1371
g164
ag333
asS'donald hatcliigan'
p1372
(lp1373
g53
ag164
ag629
asS'serrill gerber'
p1374
(lp1375
g87
ag65
asS'max bogner'
p1376
(lp1377
g61
asS'charles blacklock'
p1378
(lp1379
g11
asS'ida miller'
p1380
(lp1381
S'john hell'
p1382
asS'edith hershey'
p1383
(lp1384
g87
asS'rude lambert'
p1385
(lp1386
g138
ag298
asS'oscar fuss'
p1387
(lp1388
g61
asg984
(lp1389
g15
asS'byron t darling'
p1390
(lp1391
S'robert bush'
p1392
aVedward gewirts
p1393
aS'charles gainor'
p1394
asS'paul jarrico'
p1395
(lp1396
g806
ag169
ag25
ag421
ag26
ag373
ag33
ag29
ag30
ag1395
ag80
ag119
ag325
asS'royce kennedy'
p1397
(lp1398
g15
asS'caroline perloff'
p1399
(lp1400
Vmrs. perloff
p1401
asS'minna klein'
p1402
(lp1403
g262
ag373
ag263
ag61
ag101
ag22
ag298
asS'warner calloway'
p1404
(lp1405
g130
asS'harold dimsdale'
p1406
(lp1407
g87
asS'daniel zahari'
p1408
(lp1409
g15
ag1007
asS'lillian heron'
p1410
(lp1411
g87
asS'elizabeth. augustine'
p1412
(lp1413
g389
asS'cookie wexley'
p1414
(lp1415
g90
asS'opal terry'
p1416
(lp1417
g11
asS'leonard cohen'
p1418
(lp1419
g15
asS'jean richardson'
p1420
(lp1421
g61
asS'george mclean'
p1422
(lp1423
g61
asS'what is smith'
p1424
(lp1425
g676
asS'matt vidaver'
p1426
(lp1427
g227
asS'larne mccormiek'
p1428
(lp1429
g61
asS'beulah wales'
p1430
(lp1431
g61
asS'roy hudson'
p1432
(lp1433
g87
ag56
ag3
ag65
asS'lottie glicker'
p1434
(lp1435
g68
asS'arnold dorenz'
p1436
(lp1437
g53
asS'shelly davis'
p1438
(lp1439
g11
asS'hilliard chamblis'
p1440
(lp1441
g15
asS'leo gallagher'
p1442
(lp1443
g308
asS'henry peterson'
p1444
(lp1445
g230
ag169
ag561
asS'albert r williams'
p1446
(lp1447
g57
asS'elizabeth guarnaccia'
p1448
(lp1449
Vherbert a. philbrick
p1450
asS'julian shapiro'
p1451
(lp1452
g308
ag736
asValice wil
p1453
(lp1454
g715
asS'anna l strong'
p1455
(lp1456
g57
asS'gay bailey'
p1457
(lp1458
g4
asS'al heltness'
p1459
(lp1460
g61
asS'ernest scott'
p1461
(lp1462
g94
asS'zema matlin'
p1463
(lp1464
g61
asS'elizabetb barlow'
p1465
(lp1466
g138
aVmrs. edward bar
p1467
ag130
ag139
asS'shirley bollin'
p1468
(lp1469
Vmrs. cliff bollin
p1470
ag15
asS'dorothy pezinan'
p1471
(lp1472
g101
asS'elaine black'
p1473
(lp1474
g65
asS'rose clinton'
p1475
(lp1476
g84
asS'sue rossen'
p1477
(lp1478
g90
asS'lem belton'
p1479
(lp1480
g84
asS'louis seofield'
p1481
(lp1482
Vmr. vinson
p1483
aVmr. seofield
p1484
ag81
asg22
(lp1485
g50
ag94
ag15
asS'dorothy uris'
p1486
(lp1487
g32
ag325
ag15
ag31
ag28
asg659
(lp1488
g657
ag227
asS'funn dorothy k'
p1489
(lp1490
sS'ivirs. sarah kaufman'
p1491
(lp1492
g164
ag333
asS'robert treuhaft'
p1493
(lp1494
g11
asS'bobbie karson'
p1495
(lp1496
g87
asS'ella winter'
p1497
(lp1498
g230
aVmrs. willard parker bereniece baldwin
p1499
ag56
asS'henry winston'
p1500
(lp1501
g3
asS'bert stone'
p1502
(lp1503
g61
asS'jean erickson'
p1504
(lp1505
g173
asS'jeannette finkelstein'
p1506
(lp1507
g84
asS'dorothy pezman'
p1508
(lp1509
g61
asS'virginia schulberg'
p1510
(lp1511
g25
aVmrs. peter martin
p1512
asS'benjamin d anton'
p1513
(lp1514
sS'nick baltic'
p1515
(lp1516
g15
asS'ray blossom'
p1517
(lp1518
g3
ag15
asS'harry shepro'
p1519
(lp1520
g705
ag61
ag62
asS'frank allen'
p1521
(lp1522
g104
ag68
asS'val burton'
p1523
(lp1524
g230
asS'bruce anderson'
p1525
(lp1526
g421
asS'mary c grier'
p1527
(lp1528
Vgeological grier
p1529
asS'john k ellis'
p1530
(lp1531
Vjohn joseph ellis
p1532
asS'helen pate'
p1533
(lp1534
g87
asS'irving goff'
p1535
(lp1536
g94
asS'symanthia washington'
p1537
(lp1538
g104
asS'james cutno'
p1539
(lp1540
g104
asS'sam hammersmark'
p1541
(lp1542
g68
asS'johnny cole'
p1543
(lp1544
g178
asS'john looschen'
p1545
(lp1546
sS'irwin lieberman'
p1547
(lp1548
g31
asS'sue cohen'
p1549
(lp1550
g61
asS'jack robinson'
p1551
(lp1552
g764
ag80
asS'howard dimsdale'
p1553
(lp1554
g230
ag227
asS'helen palmquist'
p1555
(lp1556
g285
ag15
asS'ora kelly'
p1557
(lp1558
g11
asS'donald murray'
p1559
(lp1560
g61
asS'leslie edgley'
p1561
(lp1562
g230
ag90
ag328
asS'sam witczak'
p1563
(lp1564
g233
asS'leon shapiro'
p1565
(lp1566
g164
ag333
asVjay rubin
p1567
(lp1568
sS'willie gale'
p1569
(lp1570
g4
asS'anne froelich'
p1571
(lp1572
g178
asS'louise janis'
p1573
(lp1574
g90
asS'stanley roberts'
p1575
(lp1576
g169
aS'sarah oilman'
p1577
aVedna rosen
p1578
asS'fred m. snider'
p1579
(lp1580
g308
asS'jeff kibre'
p1581
(lp1582
g561
ag22
ag298
ag170
asS'raphael haskell'
p1583
(lp1584
g15
asS'paul boatin'
p1585
(lp1586
g151
ag3
ag15
ag1007
asS'edwin m max'
p1587
(lp1588
g80
ag81
asS'bernard vorhaus'
p1589
(lp1590
g32
ag169
asS'thelma dale'
p1591
(lp1592
g84
asS'lane thomas'
p1593
(lp1594
g94
ag104
asS'sid partridge'
p1595
(lp1596
g11
asS'jack raskin'
p1597
(lp1598
g3
ag15
asS'dalton trumbo'
p1599
(lp1600
g32
ag373
ag30
ag31
ag28
asS'ruth weber'
p1601
(lp1602
g178
asS'joe dougher'
p1603
(lp1604
g95
asS'stephanie allan'
p1605
(lp1606
g1194
ag15
asS'maurice clark'
p1607
(lp1608
g372
ag169
ag230
ag32
ag271
ag35
asS'richard lynden'
p1609
(lp1610
g65
asS'william s. johnson'
p1611
(lp1612
g84
asS'ruth dombrowski'
p1613
(lp1614
g944
ag3
asS'bob raven'
p1615
(lp1616
g47
ag87
asS'meridel leseuer'
p1617
(lp1618
g11
asS'ed strong'
p1619
(lp1620
g94
asS'walter rogalski'
p1621
(lp1622
g133
ag68
asS'louise losey'
p1623
(lp1624
Vlouise losey
p1625
aVmrs. joseph losey
p1626
ag90
ag27
asS'yal burton'
p1627
(lp1628
g328
asS'phoebe brand'
p1629
(lp1630
g1360
ag1361
ag236
ag27
asS'freda marcus'
p1631
(lp1632
g101
asS'max weitzman'
p1633
(lp1634
g1165
asS'noum light'
p1635
(lp1636
g308
asS'frank oppenheimer'
p1637
(lp1638
g61
asS'seymour bennett'
p1639
(lp1640
g230
asS'john mcgrew'
p1641
(lp1642
g672
asS'jean mayer'
p1643
(lp1644
g61
asS'theodore s. polumbaum'
p1645
(lp1646
sS'ludwig donath'
p1647
(lp1648
g236
asS'mort newman'
p1649
(lp1650
g65
asS'mr. dillard'
p1651
(lp1652
g4
asS'henry beitscher'
p1653
(lp1654
g84
asS'naomi. robeson'
p1655
(lp1656
g81
asS'charlotte kyer'
p1657
(lp1658
g138
asS'milton schleicher'
p1659
(lp1660
g15
asS'jack gore'
p1661
(lp1662
g22
ag3
ag15
asS'rachael carter'
p1663
(lp1664
g340
ag173
asS'dorothy olson'
p1665
(lp1666
g87
ag227
asS'mills sampy'
p1667
(lp1668
g4
asS'jeannie kudlik'
p1669
(lp1670
g15
asS'lynn whitney'
p1671
(lp1672
g80
asS'harold robertson'
p1673
(lp1674
g15
asS'julian gordon'
p1675
(lp1676
g53
ag629
asS'as a condon'
p1677
(lp1678
Vdr. condon
p1679
asS'charles young'
p1680
(lp1681
g298
asS'josef michel'
p1682
(lp1683
g169
asS'sue lawson'
p1684
(lp1685
g340
ag25
ag34
ag173
ag1016
asS'roland kibbee'
p1686
(lp1687
g26
asS'bernice eraser'
p1688
(lp1689
g29
asS'sidney burke'
p1690
(lp1691
g22
asS'janet scott'
p1692
(lp1693
g61
ag164
ag333
asS'felix maise'
p1694
(lp1695
g15
asS'frieda schweukmyer'
p1696
(lp1697
g53
ag629
asS'martin berkeley'
p1698
(lp1699
sS'janet mcharg'
p1700
(lp1701
g138
asS'harriet belinky'
p1702
(lp1703
g164
ag333
asS'jim tourney'
p1704
(lp1705
g22
ag298
asS'hilton wolf'
p1706
(lp1707
g87
asS'betty seklen'
p1708
(lp1709
g61
asS'leo gerstinheim'
p1710
(lp1711
g53
asS'nell higman'
p1712
(lp1713
g65
asS'gladys black'
p1714
(lp1715
g130
ag11
ag139
asS'richard frank'
p1716
(lp1717
g397
asS'gurley walker'
p1718
(lp1719
g15
asS'marcus singer'
p1720
(lp1721
g788
asS'amalia p crago'
p1722
(lp1723
g53
ag164
ag629
ag333
asS'hugo butler'
p1724
(lp1725
g169
ag31
ag28
ag230
ag32
ag271
asS'sidney bloomfield'
p1726
(lp1727
g274
ag1222
asS'ruth hultgren'
p1728
(lp1729
g11
ag139
asVmarguerite roberts
p1730
(lp1731
g169
ag736
ag230
ag178
ag705
ag90
asS'frank rogers'
p1732
(lp1733
g173
asS'albert hickox'
p1734
(lp1735
g22
asS'anne witkowski'
p1736
(lp1737
g87
asS'pope huff'
p1738
(lp1739
g340
asS'dorothy anhattzer'
p1740
(lp1741
g87
asS'theo kruse'
p1742
(lp1743
g50
asS'jane march'
p1744
(lp1745
g61
asS'sam kalish'
p1746
(lp1747
g705
ag61
ag62
asS'lena wiena'
p1748
(lp1749
g87
asS'james keller'
p1750
(lp1751
g3
ag4
asS'jack s. zucker'
p1752
(lp1753
g84
asS'arthur strawn'
p1754
(lp1755
g178
asS'john wilson'
p1756
(lp1757
g50
asS'francis faragoh'
p1758
(lp1759
g325
ag35
asS'joseph starobin'
p1760
(lp1761
g68
asS'willie howell'
p1762
(lp1763
g104
asS'robert purdy'
p1764
(lp1765
g15
asg112
(lp1766
g53
ag629
asS'margaret ginsberg'
p1767
(lp1768
g61
asS'wesley bodkin'
p1769
(lp1770
g138
ag11
asS'richard mcmahon'
p1771
(lp1772
g714
asg62
(lp1773
g61
ag62
asS'edward biberman'
p1774
(lp1775
g270
ag561
ag31
ag230
aVzachary schwartz
p1776
ag32
ag325
asS'sara kusiiitz'
p1777
(lp1778
g87
ag61
asS'morris keller'
p1779
(lp1780
g138
asS'lloyd gough'
p1781
(lp1782
g80
ag238
ag742
ag31
asS'martha campion'
p1783
(lp1784
g56
ag1783
asS'harry tanner'
p1785
(lp1786
g324
asS'carl winter'
p1787
(lp1788
g90
ag61
ag3
ag15
ag4
asS'paula miller'
p1789
(lp1790
g1360
ag298
ag1789
aVmr. kazan
p1791
aVsee lee
p1792
asS'bert witkowski'
p1793
(lp1794
g87
asS'robert d katz'
p1795
(lp1796
g486
ag308
ag360
asS'sadie dawson'
p1797
(lp1798
g87
asS'carl rogers'
p1799
(lp1800
g151
asS'celia edwards'
p1801
(lp1802
g15
asS'lucy warren'
p1803
(lp1804
g87
ag90
asS'ethel claibourne'
p1805
(lp1806
Vmrs. sidney clai
p1807
ag11
asS'matilda lewis'
p1808
(lp1809
g705
ag11
ag61
ag62
asS'john matsuto'
p1810
(lp1811
g61
asS'wilma shore'
p1812
(lp1813
g230
ag328
asS'frank moskin'
p1814
(lp1815
g87
asS'morris karson'
p1816
(lp1817
g87
asS'maurice braverman'
p1818
(lp1819
g84
asS'dave ellis'
p1820
(lp1821
g81
asS'mildred grossman'
p1822
(lp1823
g84
asS'bob robinson'
p1824
(lp1825
g87
asS'mort furay'
p1826
(lp1827
g15
asS'sis cunningham'
p1828
(lp1829
g690
aS'hy gordon'
p1830
ag4
asS'abe burrows'
p1831
(lp1832
g81
asS'joe ayeroff'
p1833
(lp1834
g65
asVmargaret und
p1835
(lp1836
g57
asS'loretta adam'
p1837
(lp1838
g22
asS'jack tenner'
p1839
(lp1840
g359
ag486
ag308
asS'arthur o wright'
p1841
(lp1842
Vmr. wright
p1843
asS'julius jacobs'
p1844
(lp1845
g84
asS'abe gelbart'
p1846
(lp1847
g469
ag788
ag564
asS'douglas w ward'
p1848
(lp1849
g11
asS'herman waldreen'
p1850
(lp1851
Vdavid wolfe
p1852
ag47
aVherman waldman
p1853
asS'rose pearson'
p1854
(lp1855
g270
asS'larry blyth'
p1856
(lp1857
g3
asS'victor shapiro'
p1858
(lp1859
g230
ag169
ag178
ag148
asS'bill rutter'
p1860
(lp1861
g138
asS'jean hedley'
p1862
(lp1863
g138
asS'bob klonsky'
p1864
(lp1865
g94
asS'jessie carufo'
p1866
(lp1867
g324
asS'dorothy woods'
p1868
(lp1869
g138
asS'elmer hanoff'
p1870
(lp1871
g22
ag298
asS'charles oberkirch'
p1872
(lp1873
g138
ag629
asS'joe. bentzenhoffer'
p1874
(lp1875
S'joseph bezenhoffer'
p1876
asS'fred davey'
p1877
(lp1878
g3
asS'art braunlich'
p1879
(lp1880
g3
asS'charles mcclaughlan'
p1881
(lp1882
g885
asS'pressley green'
p1883
(lp1884
g3
asS'ralph glick'
p1885
(lp1886
g95
ag94
asS'phil schatz'
p1887
(lp1888
g3
ag15
asS'bill redner'
p1889
(lp1890
g421
asS'alice cohee'
p1891
(lp1892
g101
ag262
ag263
asS'barbara stern'
p1893
(lp1894
g15
ag4
asS'harry gordon'
p1895
(lp1896
g274
ag47
ag164
ag333
asS'simson marcus'
p1897
(lp1898
g1059
asS'paul heide'
p1899
(lp1900
g65
ag138
ag11
asS'daniel mccombe'
p1901
(lp1902
Vmr. kaplan
p1903
asS'nat praeger'
p1904
(lp1905
g22
ag298
asS'virgil akeson'
p1906
(lp1907
g84
asS'joseph schlicht'
p1908
(lp1909
g15
asS'louis perry'
p1910
(lp1911
g4
asS'daniel trees'
p1912
(lp1913
g15
asS'raynal lofgren'
p1914
(lp1915
g133
ag68
asS'bob morrell'
p1916
(lp1917
g94
asS'walter dorosh'
p1918
(lp1919
g98
ag15
asS'edith johnson'
p1920
(lp1921
g87
asVdorothy healy
p1922
(lp1923
g50
ag101
ag885
ag262
ag263
asS'esther siegel'
p1924
(lp1925
g15
ag4
asS'malcolm wright'
p1926
(lp1927
g15
asS'angela clarke'
p1928
(lp1929
g388
asS'anya lieberson'
p1930
(lp1931
g61
asS'milt kashner'
p1932
(lp1933
g101
asS'rose segure'
p1934
(lp1935
g101
ag61
asg1626
(lp1936
g27
asS'sarah wepman'
p1937
(lp1938
Vmrs. wepman
p1939
asS'john sobczak'
p1940
(lp1941
g15
asS'fran salit'
p1942
(lp1943
g87
asS'will campbell'
p1944
(lp1945
g11
asS'arthur l. levy'
p1946
(lp1947
g1946
asS'albert lockett'
p1948
(lp1949
g61
asS'dave moore'
p1950
(lp1951
g15
asS'richard l. rykoff'
p1952
(lp1953
g308
asS'jess whipple'
p1954
(lp1955
g3
asS'henriette martin'
p1956
(lp1957
g230
ag90
asS'charlotte wacker'
p1958
(lp1959
g84
asg65
(lp1960
g65
asS'joseph pentacost'
p1961
(lp1962
g340
asS'nettie rubenstein'
p1963
(lp1964
Vrobert louis stevenson school
p1965
asS'sig hesse'
p1966
(lp1967
g138
asS'barbara darling'
p1968
(lp1969
sS'harry c. steinmetz'
p1970
(lp1971
g61
asS'wilhelmina maise'
p1972
(lp1973
g61
asS'nora hallgren'
p1974
(lp1975
g32
aVmrs. george hall
p1976
ag119
ag26
asS'harry carlyle'
p1977
(lp1978
g764
ag90
asS'gil green'
p1979
(lp1980
g133
ag340
ag104
ag68
asS'sarah. hartman'
p1981
(lp1982
g1981
asS'ruth jennings'
p1983
(lp1984
g1983
ag53
asS'helen leonard'
p1985
(lp1986
g230
ag324
ag90
asS'tassia freed'
p1987
(lp1988
g61
asS'mrs. pieper'
p1989
(lp1990
g11
asS'adrian scott'
p1991
(lp1992
g230
ag169
ag35
asS'nicholas bela'
p1993
(lp1994
g230
ag90
ag27
asS'betty gannett'
p1995
(lp1996
g22
ag61
ag298
ag4
asS'harry haywood'
p1997
(lp1998
g65
asS'gordon rosenblum'
p1999
(lp2000
g233
asS'jules abercauph'
p2001
(lp2002
g95
asS'jody gilbert'
p2003
(lp2004
g1178
asS'sam ornitz'
p2005
(lp2006
g47
ag138
asS'ballis blaisdell'
p2007
(lp2008
sS'elizabeth l glenn'
p2009
(lp2010
Velizabeth leech
p2011
ag1118
asS'dorothy tree'
p2012
(lp2013
g236
ag238
asg1470
(lp2014
g15
asS'bertram edises'
p2015
(lp2016
g11
asS'miss campbell'
p2017
(lp2018
g3
asS'martha schkurman'
p2019
(lp2020
g15
asS'grace zarniack'
p2021
(lp2022
g173
asS'edith bomser'
p2023
(lp2024
g87
asS'russell coppock'
p2025
(lp2026
g3
asS'bill young'
p2027
(lp2028
g227
asS'rude lauibtmt'
p2029
(lp2030
g61
asS'william mckie'
p2031
(lp2032
g98
ag3
asS'margaret gilbert'
p2033
(lp2034
g1450
asS'bridget poison'
p2035
(lp2036
g15
asS'abraham mlnkus'
p2037
(lp2038
g705
ag61
ag62
asS'julian zimet'
p2039
(lp2040
g230
ag90
asS'william winston'
p2041
(lp2042
g333
asS'lou baron'
p2043
(lp2044
g61
asS'ellen davidson'
p2045
(lp2046
g80
asS'miriam solomon'
p2047
(lp2048
g101
asS'anthony koss'
p2049
(lp2050
g133
asS'ben pollin'
p2051
(lp2052
g764
asS'charles reichman'
p2053
(lp2054
g87
asS'ben dobbs'
p2055
(lp2056
g65
asS'arthur birnkarnt'
p2057
(lp2058
g230
ag90
asS'joe terry'
p2059
(lp2060
g11
asS'clarence hathaway'
p2061
(lp2062
g56
ag263
asS'andrew overgaard'
p2063
(lp2064
g1360
ag1361
asS'allen boretz'
p2065
(lp2066
g230
asS'robert brown'
p2067
(lp2068
g15
asS'goldie gregurek'
p2069
(lp2070
Vmrs. funn
p2071
asS'roi sherman'
p2072
(lp2073
g65
ag191
asS'francis e faragoh'
p2074
(lp2075
Vreis rosenberg
p2076
aVedward dmytryk
p2077
asS'barbara springer'
p2078
(lp2079
g4
asS'tania tuttle'
p2080
(lp2081
g33
ag325
ag28
asVharold t. woerner, jr.
p2082
(lp2083
sS'jules keivetz'
p2084
(lp2085
g65
asS'alice ferris'
p2086
(lp2087
g4
asS'elaine gonda'
p2088
(lp2089
g388
asS'timothy shay'
p2090
(lp2091
g151
ag1257
ag4
asS'charles klare'
p2092
(lp2093
g87
asS'jane wallace'
p2094
(lp2095
S'jane wilson'
p2096
asS'hodges mason'
p2097
(lp2098
g15
asS'ina lamaux'
p2099
(lp2100
g68
asS'jack ginsberg'
p2101
(lp2102
g61
asS'ann yanish'
p2103
(lp2104
g138
ag11
ag130
ag139
asS'lewis leverett'
p2105
(lp2106
g1360
ag1361
asS'margaret cowl'
p2107
(lp2108
S'margaret undjus'
p2109
asS'matt snyder'
p2110
(lp2111
g94
asS'fred steinmetz'
p2112
(lp2113
g885
aVmax silver
p2114
ag486
ag308
ag360
asS'luke hinman'
p2115
(lp2116
g87
ag170
asS'archie acciacca'
p2117
(lp2118
g15
ag1007
asS'jerry bond'
p2119
(lp2120
g3
asS'vera harris'
p2121
(lp2122
g25
ag22
ag298
asS'william sheehan'
p2123
(lp2124
g68
asS'frances price'
p2125
(lp2126
g15
asS'herman burt'
p2127
(lp2128
g15
asS'murray abowitz'
p2129
(lp2130
g328
ag233
asS'roy wilson'
p2131
(lp2132
g98
ag151
asS'sam a darcy'
p2133
(lp2134
g22
ag298
ag94
asS'richard b lewis'
p2135
(lp2136
Vbart mar.
p2137
asS'maurice murphy'
p2138
(lp2139
g25
ag26
asS'james lerner'
p2140
(lp2141
g57
asS'allen l ryan'
p2142
(lp2143
g61
ag2114
asS'sanders shelf'
p2144
(lp2145
g61
asS'william holther'
p2146
(lp2147
g298
asS'aubrey grossman'
p2148
(lp2149
g65
ag138
asS'florence jacobs'
p2150
(lp2151
g84
asS'alan campbell'
p2152
(lp2153
S'dorothy parker'
p2154
asS'mary nolan'
p2155
(lp2156
g57
ag1776
ag561
asS'dan slinger'
p2157
(lp2158
g95
asS'reva handle'
p2159
(lp2160
g61
asS'gordon kahn'
p2161
(lp2162
g270
ag806
ag178
ag26
ag373
ag33
ag230
ag30
ag31
ag299
ag119
ag325
ag35
asS'arcus reddock'
p2163
(lp2164
g61
asS'dave davis'
p2165
(lp2166
g94
ag95
asVsonja dahl
p2167
(lp2168
g32
ag25
aVleona martin
p2169
ag31
ag952
asS'hyman s kraft'
p2170
(lp2171
g169
asS'jack birch'
p2172
(lp2173
g68
asg1776
(lp2174
g87
asS'rubby sherr'
p2175
(lp2176
sS'emma williams'
p2177
(lp2178
g15
asS'kostas dakchoylous'
p2179
(lp2180
g164
asS'helen allison'
p2181
(lp2182
g2181
asS'jim frazier'
p2183
(lp2184
g3
asS'nina handman'
p2185
(lp2186
g87
asVjanet stephenson
p2187
(lp2188
Vjanet george glass
p2189
ag2187
ag328
aVmrs. philip steven
p2190
asS'john spears'
p2191
(lp2192
g61
asS'catherine larkin'
p2193
(lp2194
g324
asS'cleveland hearn'
p2195
(lp2196
g11
asS'alfred wagenknecht'
p2197
(lp2198
g56
ag68
asS'louis l. kaplan'
p2199
(lp2200
g94
asS'daniel b schirmer'
p2201
(lp2202
g1222
asS'fred graff'
p2203
(lp2204
Vmr. graff
p2205
asS'betty ireland'
p2206
(lp2207
g151
ag4
asS'james widmark'
p2208
(lp2209
g3
asg888
(lp2210
g87
asS'jens simousgard'
p2211
(lp2212
g61
asS'alexander trachtenberg'
p2213
(lp2214
g593
asS'nerval crutcher'
p2215
(lp2216
g561
asS'ann white'
p2217
(lp2218
g764
ag388
asVmr. green
p2219
(lp2220
g11
ag139
ag138
asS'clement wilenchick'
p2221
(lp2222
sS'jane grodzins'
p2223
(lp2224
g308
asS'robert rossen'
p2225
(lp2226
g30
ag119
ag27
ag325
asS'oscar elkins'
p2227
(lp2228
g1059
asS'mack libby'
p2229
(lp2230
g1222
asS'george corey'
p2231
(lp2232
g15
ag35
asS'calvin cousins'
p2233
(lp2234
g84
asS'kenneth roach'
p2235
(lp2236
g15
asg292
(lp2237
g25
ag298
ag27
ag35
asS'lloyd seeliger'
p2238
(lp2239
g65
asS'john berry'
p2240
(lp2241
g32
ag27
ag31
ag28
asS'mildred. pierce'
p2242
(lp2243
g105
asS'rob hall'
p2244
(lp2245
g56
asS'fred gebelle'
p2246
(lp2247
g15
asS'cea geiselman'
p2248
(lp2249
g95
aVmrs. joe kres
p2250
asS'jane. wallace'
p2251
(lp2252
g22
asS'hymie aliiert'
p2253
(lp2254
g87
asS'roger capelle'
p2255
(lp2256
g138
ag130
asg915
(lp2257
g373
ag119
ag31
ag27
ag325
asS'abe feinglass'
p2258
(lp2259
g68
asVmary bradsher
p2260
(lp2261
g2260
asS'don cameron'
p2262
(lp2263
g191
asS'mary sherwood'
p2264
(lp2265
g138
asS'sue showerman'
p2266
(lp2267
g15
asg145
(lp2268
g11
ag112
asS'joe carr'
p2269
(lp2270
g53
ag629
asS'martha fletcher'
p2271
(lp2272
g1450
aVmrs. harry
p2273
asg1118
(lp2274
g32
ag80
ag119
ag27
asS'charles a page'
p2275
(lp2276
Vmorris appelman
p2277
asVjack 01
p2278
(lp2279
g274
ag468
ag65
ag11
ag61
ag470
ag471
ag421
ag564
asS'michael wilson'
p2280
(lp2281
g230
ag324
asS'peggy wellman'
p2282
(lp2283
g15
asS'florence kniep'
p2284
(lp2285
g3
asS'percy solotoy'
p2286
(lp2287
g22
ag373
ag298
asS'mary kotick'
p2288
(lp2289
g164
asS'gertrude selig'
p2290
(lp2291
g61
asg803
(lp2292
g15
asS'miss s wells'
p2293
(lp2294
Vmrs. arnaud d'us
p2295
asS'morris carnovsky'
p2296
(lp2297
g1360
ag373
ag27
ag236
ag238
ag299
asS'charles hendley'
p2298
(lp2299
g274
asS'godine eagle'
p2300
(lp2301
g138
asS'pat callahan'
p2302
(lp2303
g22
asS'sam wixman'
p2304
(lp2305
g61
asS'mrs. fisher'
p2306
(lp2307
g87
asS'nina klowden'
p2308
(lp2309
g764
ag80
ag109
ag388
ag81
asS'carl brodsky'
p2310
(lp2311
g164
asS'david hillierman'
p2312
(lp2313
g561
asS'thomas wood'
p2314
(lp2315
g104
asS'sylvia. marrow'
p2316
(lp2317
g915
asS'andy charles'
p2318
(lp2319
g65
asS'rosalie crockett'
p2320
(lp2321
g139
asS'bill lawrence'
p2322
(lp2323
g47
ag53
ag139
ag138
asS'norris wood'
p2324
(lp2325
g94
asS'thomas deaoon'
p2326
(lp2327
Vsulzberger junior high
p2328
asS'jimmy allen'
p2329
(lp2330
g22
ag298
asS'trudy peck'
p2331
(lp2332
g270
asS'john stanford'
p2333
(lp2334
g230
ag90
asS'alvin hammer'
p2335
(lp2336
g80
asg742
(lp2337
g61
ag742
asS'walter kirkon'
p2338
(lp2339
g11
asS'fanya friedman'
p2340
(lp2341
g61
asS'saul friedburg'
p2342
(lp2343
g1222
asS'john doberty'
p2344
(lp2345
g87
asS'elena beck'
p2346
(lp2347
g90
aVmildred benoff
p2348
asS'marta bogner'
p2349
(lp2350
g101
asS'selma lahne'
p2351
(lp2352
g53
asS'booker white'
p2353
(lp2354
g340
asS'eleanor smith'
p2355
(lp2356
g11
ag130
asS'evelyn weinstein'
p2357
(lp2358
g164
ag2357
asS'william bottcher'
p2359
(lp2360
g164
ag333
asS'george kristalsky'
p2361
(lp2362
g714
ag3
asS'sylvia jarrico'
p2363
(lp2364
g25
ag2363
ag27
asS'ethel holmstock'
p2365
(lp2366
g61
asg130
(lp2367
g130
asS'larry davis'
p2368
(lp2369
g15
asS'alice buchmah'
p2370
(lp2371
Vmorris l. appelman
p2372
asS'florence mcdonald'
p2373
(lp2374
g87
asS'bernyce p fleury'
p2375
(lp2376
Vmrs. eugene
p2377
asS'lucy stander'
p2378
(lp2379
g22
ag373
ag298
asS'freda spivak'
p2380
(lp2381
g87
asS'ann r richards'
p2382
(lp2383
g372
ag169
ag1204
ag90
ag230
ag178
ag324
ag328
asS'elinor l cook'
p2384
(lp2385
g151
ag1192
ag4
asg2154
(lp2386
g2152
asS'fred biedenkapp'
p2387
(lp2388
g56
asg669
(lp2389
g11
asS'gerald liefchild'
p2390
(lp2391
g101
asg42
(lp2392
g164
aVmrs. harry john mills davis
p2393
ag333
asS'jane wilson'
p2394
(lp2395
g705
ag22
ag61
asS'dolph winebrenner'
p2396
(lp2397
g101
ag373
ag262
ag263
ag61
asS'charles lassiter'
p2398
(lp2399
g340
asS'herbert naboisek'
p2400
(lp2401
g421
asS'waldo salt'
p2402
(lp2403
g119
ag27
ag230
ag29
ag33
ag1263
ag170
ag325
asS'george shaffer'
p2404
(lp2405
g61
asS'maurice howard'
p2406
(lp2407
g561
asS'morton nadler'
p2408
(lp2409
g61
asS'marjorie canrlght'
p2410
(lp2411
g11
aVmrs. norman can
p2412
asS'anne green'
p2413
(lp2414
g178
asg609
(lp2415
g87
asS'matt savola'
p2416
(lp2417
g3
ag15
ag4
asS'ben polin'
p2418
(lp2419
g80
asS'ernest boykin'
p2420
(lp2421
g11
ag112
asS'sarah simonsgard'
p2422
(lp2423
g61
asS'john little'
p2424
(lp2425
g47
ag3
asS'michael gordon'
p2426
(lp2427
g32
asS'glen showerman'
p2428
(lp2429
g3
asS'leila thompson'
p2430
(lp2431
g138
ag11
ag130
ag139
asS'chris alston'
p2432
(lp2433
g15
ag4
asS'mrs. strasberg'
p2434
(lp2435
g1789
asS'everett weil'
p2436
(lp2437
g90
asS'ian hunter'
p2438
(lp2439
g169
ag90
asS'ethel spiller'
p2440
(lp2441
g94
asS'sidney buchman'
p2442
(lp2443
g2442
asS'lawrence arguimbau'
p2444
(lp2445
g469
ag788
ag564
asS'jonathan eddy'
p2446
(lp2447
g373
asS'betty laros'
p2448
(lp2449
g164
ag629
ag333
asS'mary casaro'
p2450
(lp2451
g50
asVbella lewitzky
p2452
(lp2453
Vmrs. newell rey
p2454
ag61
asS'stanley adamski'
p2455
(lp2456
g3
ag15
asS'bernhard stern'
p2457
(lp2458
g468
asS'marian redner'
p2459
(lp2460
g421
asS'alex treskiu'
p2461
(lp2462
g138
asS'hjalmar peterson'
p2463
(lp2464
g561
asS'harry g itskowitz'
p2465
(lp2466
g1895
asS'robert richards'
p2467
(lp2468
g90
asS'carl grossenbacher'
p2469
(lp2470
g469
ag788
asS'alexander kolker'
p2471
(lp2472
g178
ag227
ag164
aVmrs. lou lou rosser
p2473
ag90
ag333
asS'paul trabusis'
p2474
(lp2475
g230
asS'frank iglesias'
p2476
(lp2477
g4
asS'joseph kuzma'
p2478
(lp2479
g94
ag95
asS'eva shafran'
p2480
(lp2481
g32
ag22
asS'jack white'
p2482
(lp2483
g3
ag15
ag4
asS'joy pepper'
p2484
(lp2485
g27
asS'anna shepro'
p2486
(lp2487
g705
ag62
asS'arthur osman'
p2488
(lp2489
g56
ag669
aVoifioe workei
p2490
asS'ed robbins'
p2491
(lp2492
g101
ag373
ag262
ag263
asS'maurice perlman'
p2493
(lp2494
g87
asS'marjorie macgregor'
p2495
(lp2496
g705
ag90
asS'walter laniliert'
p2497
(lp2498
g230
ag61
ag227
asS'gerald j boyd'
p2499
(lp2500
g3
ag4
asVmr. silver
p2501
(lp2502
sS'louise gilliam'
p2503
(lp2504
g139
asS'clyde champion'
p2505
(lp2506
g22
asS'len decaux'
p2507
(lp2508
g84
asS'louise seidel'
p2509
(lp2510
g25
asS'marie phillips'
p2511
(lp2512
g138
asS'stanley hancock'
p2513
(lp2514
g811
asS'lettie stever'
p2515
(lp2516
g742
asS'murray levine'
p2517
(lp2518
g50
asS'marie. rinaldo'
p2519
(lp2520
g90
ag2348
asS'van brook'
p2521
(lp2522
g15
asS'james gilliam'
p2523
(lp2524
g139
asS'louis green'
p2525
(lp2526
g11
asS'paul chown'
p2527
(lp2528
g138
ag11
asS'benjamin lieberman'
p2529
(lp2530
S'robert lieberman'
p2531
asS'adeline cole'
p2532
(lp2533
g3
asS'paul geiselman'
p2534
(lp2535
g95
asS'dorothy zadow'
p2536
(lp2537
g61
asS'eunice mindlin'
p2538
(lp2539
g230
asS'mary v farmer'
p2540
(lp2541
g298
asS'luther talley'
p2542
(lp2543
g68
asS'joe. marlovits'
p2544
(lp2545
g1876
asS'darr smith'
p2546
(lp2547
g1360
ag262
ag263
ag1361
ag68
ag101
asS'dick criley'
p2548
(lp2549
g65
asS'evelyn hanson'
p2550
(lp2551
g11
asS'thomas anderson'
p2552
(lp2553
g151
ag4
asS'dean hood'
p2554
(lp2555
g65
asS'jack lazar'
p2556
(lp2557
g87
ag53
asS'john cherveny'
p2558
(lp2559
g101
ag262
ag263
ag15
asS'sally attarian'
p2560
(lp2561
g11
asS'frieda trachgin'
p2562
(lp2563
g87
asS'pat toohey'
p2564
(lp2565
g151
ag3
ag4
asS'fay g grossman'
p2566
(lp2567
g15
asS'tillie lerner'
p2568
(lp2569
g33
asS'don gordon'
p2570
(lp2571
g61
ag561
asS'herman mazer'
p2572
(lp2573
g87
asS'jim keller'
p2574
(lp2575
g104
asS'gertrude evans'
p2576
(lp2577
g84
asS'roy narancich'
p2578
(lp2579
g15
ag1007
asS'john poziomek'
p2580
(lp2581
g65
ag164
ag333
asS'jack j pompquist'
p2582
(lp2583
g15
asS'esther shandler'
p2584
(lp2585
g486
ag360
asS'phil hommer'
p2586
(lp2587
g15
asS'bill clifford'
p2588
(lp2589
g138
ag139
asS'john smith'
p2590
(lp2591
g11
asS'ray halpern'
p2592
(lp2593
g130
asS'raphael konigsburg'
p2594
(lp2595
g101
asS'matilda maxwell'
p2596
(lp2597
S'jesse parrish'
p2598
ag4
asS'pettis perry'
p2599
(lp2600
g101
ag61
ag298
ag263
asg607
(lp2601
g65
asS'zina b haskell'
p2602
(lp2603
g15
asS'phillis mcray'
p2604
(lp2605
Vmrs. otis mcray
p2606
asS'jerry fielde'
p2607
(lp2608
g50
asS'edward barlow'
p2609
(lp2610
g138
ag130
asS'sanford bernstein'
p2611
(lp2612
g87
asS'tom cullen'
p2613
(lp2614
g101
ag262
asS'clarence stoecker'
p2615
(lp2616
g340
asS'hannah s donath'
p2617
(lp2618
Vmrs ludwig donath
p2619
aVmrs. donath
p2620
asS'ruth standish'
p2621
(lp2622
g11
asVann roth morgan
p2623
(lp2624
g2623
asS'hazel jones'
p2625
(lp2626
g50
asS'reva redstone'
p2627
(lp2628
g151
ag4
asS'irving gold'
p2629
(lp2630
g164
ag333
asS'matt richman'
p2631
(lp2632
g359
ag308
asS'robert dwinnell'
p2633
(lp2634
g11
asS'moe finklestein'
p2635
(lp2636
g397
asS'johnny weber'
p2637
(lp2638
g1222
asS'hoyt haddock'
p2639
(lp2640
g84
asS'sophia malloy'
p2641
(lp2642
g87
asS'joe poskonka'
p2643
(lp2644
g104
asS'cliff lechrome'
p2645
(lp2646
g22
asS'john gray'
p2647
(lp2648
g68
asS'sophia elfont'
p2649
(lp2650
Vstetson junior
p2651
aVmiss ell
p2652
asS'george tyne'
p2653
(lp2654
g236
asS'mr. mcallister'
p2655
(lp2656
g3
asS'david engelstein'
p2657
(lp2658
g68
asS'izzy berenson'
p2659
(lp2660
g151
ag4
asS'reuben ship'
p2661
(lp2662
g80
ag90
ag388
asS'peter chaunt'
p2663
(lp2664
g56
ag138
asS'elias schwarzbart'
p2665
(lp2666
g164
ag333
asS'percy llewelyn'
p2667
(lp2668
g151
ag15
asS'virginia mullen'
p2669
(lp2670
sS'anna mcintosh'
p2671
(lp2672
g11
aVben davis club
p2673
asS'mary morrell'
p2674
(lp2675
g94
aVmrs. robert morrell
p2676
ag95
asS'albert byler'
p2677
(lp2678
g61
asS'henry meihs'
p2679
(lp2680
g68
asS'dan james'
p2681
(lp2682
g230
ag372
ag90
asS'joseph zadow'
p2683
(lp2684
g61
asS'esther shapiro'
p2685
(lp2686
g22
ag80
ag15
asS'edna r coleman'
p2687
(lp2688
g84
ag1578
asS'john stapp'
p2689
(lp2690
g81
ag25
ag26
ag27
ag32
ag80
ag325
ag34
asS'william schneiderman'
p2691
(lp2692
g230
ag65
ag11
ag61
ag119
asS'russell w bnrnstein'
p2693
(lp2694
g324
asS'david rappaport'
p2695
(lp2696
g53
ag164
ag2695
ag629
ag333
asVk. funn
p2697
(lp2698
g230
ag170
asS'ann revere'
p2699
(lp2700
g236
ag238
asS'george manning'
p2701
(lp2702
g104
asS'harold schachter'
p2703
(lp2704
Vcarlton col
p2705
ag11
asg676
(lp2706
g47
ag674
asg469
(lp2707
g138
asS'john watkins'
p2708
(lp2709
g50
asS'spencer austrian'
p2710
(lp2711
g22
ag298
asS'ben barzman'
p2712
(lp2713
g169
ag328
ag373
ag31
ag27
ag90
asS'harold koppelman'
p2714
(lp2715
g2714
asS'mattie l woodson'
p2716
(lp2717
g3
ag4
asS'carl hanson'
p2718
(lp2719
g130
ag11
ag61
ag139
asS'george lafortune'
p2720
(lp2721
g53
ag629
asS'philip e stevenson'
p2722
(lp2723
g328
asS'prokop j prokop'
p2724
(lp2725
Vmr. prokop
p2726
asS'george newsorne'
p2727
(lp2728
Vmr. novak
p2729
aVfrank novak
p2730
ag3
ag4
asS'marie calloway'
p2731
(lp2732
g130
asS'dodd bella v'
p2733
(lp2734
g84
asVdavid amarigio
p2735
(lp2736
g47
aS'david leeds'
p2737
asg1843
(lp2738
g1843
ag333
asS'midge asslin'
p2739
(lp2740
g151
ag4
asS'jean lees'
p2741
(lp2742
g138
ag324
ag421
asS'albert legard'
p2743
(lp2744
g11
asS'leo cefkin'
p2745
(lp2746
g233
asS'michael frank'
p2747
(lp2748
g87
asS'georgia burns'
p2749
(lp2750
g270
asS'carl foreman'
p2751
(lp2752
g230
ag324
ag271
asS'victor killian'
p2753
(lp2754
g236
ag238
asS'clara walden'
p2755
(lp2756
g90
asS'frank tarloff'
p2757
(lp2758
g230
ag90
asg2737
(lp2759
g2735
asS'william esterman'
p2760
(lp2761
g486
ag308
ag360
asS'bill gardner'
p2762
(lp2763
g50
ag22
ag298
asVjoe charlotte darling adams
p2764
(lp2765
g87
asS'paul cline'
p2766
(lp2767
g262
ag61
ag263
ag811
ag101
ag22
ag298
asS'patricia lewis'
p2768
(lp2769
g104
asS'james walker'
p2770
(lp2771
g15
asS'hilda geller'
p2772
(lp2773
g164
ag333
asS'dorothy w. douglas'
p2774
(lp2775
g274
asS'john leech'
p2776
(lp2777
g22
ag61
ag298
asS'herbert biberman'
p2778
(lp2779
g270
ag264
ag178
ag170
asS'sidney davenport'
p2780
(lp2781
g104
asg25
(lp2782
g369
asS'james anderson'
p2783
(lp2784
g151
ag4
asS'al bigford'
p2785
(lp2786
g3
asS'otis revis'
p2787
(lp2788
g15
asS'julius sorbonya'
p2789
(lp2790
g15
asS'katrina manley'
p2791
(lp2792
g138
ag130
asS'revels. cayton'
p2793
(lp2794
g65
ag84
asS'david herman'
p2795
(lp2796
g53
ag2795
ag629
asS'verna mcallister'
p2797
(lp2798
g15
asS'joy williams'
p2799
(lp2800
g65
asS'bob washington'
p2801
(lp2802
g3
asS'warren batterson'
p2803
(lp2804
g50
asS'morris feder'
p2805
(lp2806
g1059
asS'nicholas c bartlett'
p2807
(lp2808
sS'william bender'
p2809
(lp2810
g164
asS'cleophas brown'
p2811
(lp2812
g11
ag139
asS'david saunders'
p2813
(lp2814
g112
asS'clare burnstein'
p2815
(lp2816
g324
asS'wendell h. furry'
p2817
(lp2818
g274
ag469
ag468
asS'bill ingham'
p2819
(lp2820
g61
asS'marjorie robinson'
p2821
(lp2822
g87
asS'isadore reivich'
p2823
(lp2824
sS'beatrice huff'
p2825
(lp2826
g340
asS'ann v boatin'
p2827
(lp2828
g1585
ag15
asS'mabel mitchell'
p2829
(lp2830
g4
asS'kathleen griffitli'
p2831
(lp2832
g2831
asS'gertrude lane'
p2833
(lp2834
g629
asS'karen morley'
p2835
(lp2836
g764
ag373
ag31
ag27
ag238
ag80
ag299
asS'billie wachter'
p2837
(lp2838
g138
ag139
asS'nemmy sparks'
p2839
(lp2840
g178
ag119
ag1222
ag27
ag32
ag90
asS'clara riebej'
p2841
(lp2842
g84
asS'john saari'
p2843
(lp2844
g1007
asS'sam edelsteiu'
p2845
(lp2846
g53
asS'richard o. boyer'
p2847
(lp2848
g90
asS'beruyce p fleury'
p2849
(lp2850
Vmrs. fleury
p2851
asS'dorothy comingore'
p2852
(lp2853
g230
asS'merle work'
p2854
(lp2855
g3
ag15
asS'richard younce'
p2856
(lp2857
g11
asS'hugh bryson'
p2858
(lp2859
g65
ag112
asS'louis ivens'
p2860
(lp2861
sS'bill williams'
p2862
(lp2863
g139
asS'sol kaplan'
p2864
(lp2865
g1903
ag112
asS'james m. simmons'
p2866
(lp2867
g98
ag4
asS'mary bindley'
p2868
(lp2869
g87
asS'elliott sullivan'
p2870
(lp2871
g236
ag742
asS'marjorie. macgregor'
p2872
(lp2873
g289
asS'leo t physician'
p2874
(lp2875
g25
ag29
asS'jules carson'
p2876
(lp2877
g61
asVrobert decormier
p2878
(lp2879
g2878
asS'al saxton'
p2880
(lp2881
g191
asS'martin mackie'
p2882
(lp2883
g11
asS'rose most'
p2884
(lp2885
g705
ag61
asS'marge price'
p2886
(lp2887
g139
asS'clariua michelson'
p2888
(lp2889
g56
asS'robert scott'
p2890
(lp2891
g68
asS'gerry schlein'
p2892
(lp2893
g236
asS'ring lardner'
p2894
(lp2895
g25
ag373
ag33
ag2894
ag30
ag32
ag119
asg550
(lp2896
g87
asS'joseph mccann'
p2897
(lp2898
g94
asS'jack wetherwax'
p2899
(lp2900
g61
asS'jean frederick'
p2901
(lp2902
g421
aVmrs. george van fred
p2903
asS'jessie sehneiderinan'
p2904
(lp2905
g95
asS'william pomerance'
p2906
(lp2907
g561
ag169
ag90
asS'jack manley'
p2908
(lp2909
g138
asS'sidney weinbaum'
p2910
(lp2911
g705
asS'mike gates'
p2912
(lp2913
g95
asg2531
(lp2914
g32
ag27
ag1007
asS'dewey garrett'
p2915
(lp2916
g4
asS'max posey'
p2917
(lp2918
g65
asS'naomi workman'
p2919
(lp2920
g47
asS'matt pellman'
p2921
(lp2922
Vmike martin
p2923
aVmax appleinan
p2924
ag2114
asS'sam parks'
p2925
(lp2926
g104
asS'david kinkead'
p2927
(lp2928
g138
asS'ferdinand c smith'
p2929
(lp2930
g84
ag112
asS'joan place'
p2931
(lp2932
g61
asS'sidney benson'
p2933
(lp2934
g1360
ag1361
ag90
ag27
asS'gertrude fuller'
p2935
(lp2936
g178
asS'vida drown'
p2937
(lp2938
g3
asS'paul trivers'
p2939
(lp2940
g32
ag28
ag31
ag35
asg969
(lp2941
g938
ag15
asS'josephine. woods'
p2942
(lp2943
g904
asS'norman byrne'
p2944
(lp2945
g705
asS'james jones'
p2946
(lp2947
g98
asS'kenneth roberts'
p2948
(lp2949
g11
asS'rose banks'
p2950
(lp2951
g3
asS'paul brooks'
p2952
(lp2953
g15
ag4
asS'janet stevenson'
p2954
(lp2955
Vmrs. philip steven
p2956
ag90
asS'mortimer offner'
p2957
(lp2958
g25
ag27
ag230
aVmrs. bob roberts
p2959
ag323
ag2923
ag271
asg1852
(lp2960
g1850
ag227
asS'cedric h belfrage'
p2961
(lp2962
sS'allen matthews'
p2963
(lp2964
g25
asS'harry campbell'
p2965
(lp2966
g87
asS'jan jeffries'
p2967
(lp2968
g1360
ag1263
ag33
ag1361
ag32
ag22
ag119
ag461
asS'charles j newspaperman'
p2969
(lp2970
g101
ag262
asS'calif hayward'
p2971
(lp2972
g138
asg2011
(lp2973
g372
ag81
ag25
ag90
ag26
ag27
ag61
ag32
ag119
ag34
asS'joe young'
p2974
(lp2975
g65
aS'charles gladstone'
p2976
asVmildred perl
p2977
(lp2978
g2242
ag15
asS'bill ellis'
p2979
(lp2980
g47
asS'inez hearn'
p2981
(lp2982
g11
asS'george hallgren'
p2983
(lp2984
g26
asS'juanita wheeler'
p2985
(lp2986
g11
asS'solomon haas'
p2987
(lp2988
sS'jean pestana'
p2989
(lp2990
g308
asS'elizabeth moos'
p2991
(lp2992
g1450
asS'miriam cliassen'
p2993
(lp2994
g87
asS'wilhelmina laughery'
p2995
(lp2996
g421
ag130
ag139
ag138
asS'lionel berman'
p2997
(lp2998
g742
asS'louise koczyalka'
p2999
(lp3000
g2999
ag94
asS'marguerite. sanford'
p3001
(lp3002
g1730
asS'herbert feay'
p3003
(lp3004
g53
ag629
asS'nina parris'
p3005
(lp3006
g94
asVjack edith macia
p3007
(lp3008
g112
asS'charlotte hull'
p3009
(lp3010
g22
ag298
asS'loretta starvus'
p3011
(lp3012
g65
ag138
ag1222
ag139
asS'desired ball'
p3013
(lp3014
g277
ag1903
asS'bob rasland'
p3015
(lp3016
g421
asS'otis a hood'
p3017
(lp3018
g1165
asS'ann nechemias'
p3019
(lp3020
g84
asS'edwin schoenfeld'
p3021
(lp3022
g340
asS'mary mclntyre'
p3023
(lp3024
Vann arbor
p3025
ag43
ag15
asS'bill danzig'
p3026
(lp3027
g11
asS'george sandy'
p3028
(lp3029
g61
asg610
(lp3030
sS'charles lindouf'
p3031
(lp3032
g15
asS'norman smith'
p3033
(lp3034
g94
asS'alfred levitt'
p3035
(lp3036
g230
ag178
ag323
asS'jane trivers'
p3037
(lp3038
g31
ag28
asS'casey gurewitz'
p3039
(lp3040
g84
asS'morrie smolan'
p3041
(lp3042
g811
ag61
asS'bill gandall'
p3043
(lp3044
g47
asS'ruth yanover'
p3045
(lp3046
g4
asS'robert arnold'
p3047
(lp3048
g164
asS'lynn hames'
p3049
(lp3050
g11
asS'alan philbrick'
p3051
(lp3052
g1222
asS'ned young'
p3053
(lp3054
g11
asS'langston hughes'
p3055
(lp3056
g56
asS'these organizations communists'
p3057
(lp3058
g612
ag1263
asg1394
(lp3059
Vdr. gainor
p3060
asg291
(lp3061
Vgregor manoff
p3062
asS'frank beye'
p3063
(lp3064
g87
ag61
asS'bob reed'
p3065
(lp3066
g3
ag4
asS'bella reynolds'
p3067
(lp3068
g2452
asS'git perlman'
p3069
(lp3070
g87
asS'esther j wagner'
p3071
(lp3072
g324
asS'frank martin'
p3073
(lp3074
g15
asS'harold wells'
p3075
(lp3076
g15
asS'perry dunson'
p3077
(lp3078
g104
asS'robert travis'
p3079
(lp3080
g50
asS'saul wachter'
p3081
(lp3082
g139
asS'tommy downs'
p3083
(lp3084
g87
asS'paul r zllsel'
p3085
(lp3086
sS'herman beilan'
p3087
(lp3088
sS'james branca'
p3089
(lp3090
g84
asS'elizabeth faragoh'
p3091
(lp3092
g2071
ag90
ag35
asg1903
(lp3093
g65
aVthomas delaney
p3094
ag1903
asS'dick jones'
p3095
(lp3096
g3
asg239
(lp3097
g25
ag26
ag33
ag28
ag29
ag31
ag32
ag325
ag35
asS'henrietta palley'
p3098
(lp3099
g61
asg2976
(lp3100
g87
asS'edward goodlaw'
p3101
(lp3102
Vdr. goodlaw optometrist
p3103
asS'lester cole'
p3104
(lp3105
g230
ag169
ag25
ag271
ag26
ag33
ag34
ag178
ag323
ag32
ag299
ag119
ag325
ag35
asg2348
(lp3106
g11
asS'goldie bromberg'
p3107
(lp3108
g32
ag90
aVmrs. george martin
p3109
asS'lucy arnold'
p3110
(lp3111
g61
asS'joe brandt'
p3112
(lp3113
g3
ag15
asS'mollie penkovosky'
p3114
(lp3115
g104
asS'ceorge shanta'
p3116
(lp3117
g173
asS'frank sykes'
p3118
(lp3119
g3
ag15
asS'edwin davis'
p3120
(lp3121
Vhoward dr. mendell krieger
p3122
ag328
asS'mortimer w pomerance'
p3123
(lp3124
g672
asS'joseph aidlin'
p3125
(lp3126
g22
ag373
asS'edwina pomerance'
p3127
(lp3128
g561
ag90
asS'emil freed'
p3129
(lp3130
g22
ag61
ag148
asS'miriam brooks'
p3131
(lp3132
g61
asS'irving velson'
p3133
(lp3134
g47
asS'janette scofield'
p3135
(lp3136
g81
asS'jay moss'
p3137
(lp3138
g61
asS'preston hill'
p3139
(lp3140
g65
ag11
asS'john delgado'
p3141
(lp3142
g11
asS'martin hall'
p3143
(lp3144
g57
asg616
(lp3145
g53
ag561
asS'andrew mays'
p3146
(lp3147
g130
asS'georgia backus'
p3148
(lp3149
g169
ag388
ag81
ag764
ag109
ag227
ag80
asS'mabel wilson'
p3150
(lp3151
g50
ag28
asS'james dow'
p3152
(lp3153
g138
ag139
ag170
ag112
asS'kathleen goldman'
p3154
(lp3155
Vmrs. harold gold
p3156
asS'sam moore'
p3157
(lp3158
g109
ag764
ag227
ag90
ag81
asS'henderson gates'
p3159
(lp3160
g4
asS'leo selfrid'
p3161
(lp3162
g61
asg547
(lp3163
g138
asS'helen tenney'
p3164
(lp3165
g593
asS'lilith james'
p3166
(lp3167
g90
ag372
ag169
ag328
asS'ann beiswenger'
p3168
(lp3169
g192
ag151
ag3
ag4
ag1007
asS'peter stein'
p3170
(lp3171
sS'clarence sanders'
p3172
(lp3173
g15
asS'doreen holtz'
p3174
(lp3175
g87
asS'harold buchman'
p3176
(lp3177
g169
ag25
ag27
ag230
ag30
ag90
ag170
asS'lillian jones'
p3178
(lp3179
g22
ag61
asS'art wolstenholme'
p3180
(lp3181
g11
asS'bess taffel'
p3182
(lp3183
g230
ag178
ag27
asS'a englehart'
p3184
(lp3185
g87
ag138
asS'capt. ward tompkins'
p3186
(lp3187
Vmr. townsend
p3188
ag27
asS'gene hammond'
p3189
(lp3190
g421
asS'jack nedelman'
p3191
(lp3192
g101
aVdr. nedelman
p3193
ag262
ag263
ag298
asS'kicliard goodwin'
p3194
(lp3195
g274
ag471
asS'hy fireman'
p3196
(lp3197
g15
asS'felix miller'
p3198
(lp3199
g151
ag4
asS'michael dworkin'
p3200
(lp3201
g164
ag333
asS'bernadette doyle'
p3202
(lp3203
g138
asS'max weiss'
p3204
(lp3205
g68
asg2598
(lp3206
g3
ag4
asS'samuel m kaplan'
p3207
(lp3208
g94
asS'charles walters'
p3209
(lp3210
g15
asS'hope smith'
p3211
(lp3212
g15
asS'harold smith'
p3213
(lp3214
g15
asS'peter lyon'
p3215
(lp3216
g236
ag90
asS'ambur salt'
p3217
(lp3218
g119
asS'norman perlman'
p3219
(lp3220
g87
asS'emmett teague'
p3221
(lp3222
g138
asS'john h lawson'
p3223
(lp3224
g270
ag806
ag178
ag372
ag230
ag236
ag90
ag170
asS'leola cones'
p3225
(lp3226
g3
asS'joe bernstein'
p3227
(lp3228
g151
ag50
ag15
ag4
asS'barta numovna'
p3229
(lp3230
g705
ag61
ag62
asS'estelle foreman'
p3231
(lp3232
g230
ag324
asS'art shields'
p3233
(lp3234
Vdorrhy k. fttttj
p3235
asS'maureen ryan'
p3236
(lp3237
g101
ag61
asS'henry meyers'
p3238
(lp3239
g373
ag27
asS'mr. black'
p3240
(lp3241
g3
asS'frances tandy'
p3242
(lp3243
g138
asS'evelyn fargo'
p3244
(lp3245
g61
asS'guy endore'
p3246
(lp3247
g230
ag324
ag169
ag328
ag178
asS'fred rinaldo'
p3248
(lp3249
g169
ag90
asS'tom brown'
p3250
(lp3251
g65
ag138
ag61
ag421
asg702
(lp3252
g3
asS'henry jansen'
p3253
(lp3254
g15
asS'frank stepanchenko'
p3255
(lp3256
g1007
asS'pat killoran'
p3257
(lp3258
g101
ag262
ag263
asS'leo bigelman'
p3259
(lp3260
g1059
ag169
ag90
ag61
asS'carl williams'
p3261
(lp3262
g191
asS'bob roberts'
p3263
(lp3264
g230
asS'alex greenherg'
p3265
(lp3266
g31
asS'rather party'
p3267
(lp3268
g47
asS'william michelson'
p3269
(lp3270
g11
ag164
asS'lem harris'
p3271
(lp3272
g25
ag22
ag298
ag68
asS'sophia salit'
p3273
(lp3274
g87
asS'rose rosenberg'
p3275
(lp3276
g101
ag486
asS'sandra young'
p3277
(lp3278
g87
asS'helen winter'
p3279
(lp3280
g151
ag3
ag15
ag4
asS'pat amato'
p3281
(lp3282
g133
ag68
asg1030
(lp3283
g178
asS'katherine lynch'
p3284
(lp3285
g4
asS'steve simmons'
p3286
(lp3287
g15
asS'jean johnson'
p3288
(lp3289
g4
asS'leo rossman'
p3290
(lp3291
g112
asVmr. maurice murphy
p3292
(lp3293
g170
asS'paul henley'
p3294
(lp3295
g3
ag15
ag4
asS'charles pfeiffer'
p3296
(lp3297
g65
asS'andreas dinam'
p3298
(lp3299
g90
asS'clara davis'
p3300
(lp3301
g333
asS'margaret maltz'
p3302
(lp3303
g324
asS'evelyn howard'
p3304
(lp3305
sS'leo turner'
p3306
(lp3307
g68
asS'james ford'
p3308
(lp3309
g3
asS'george bratoff'
p3310
(lp3311
g138
asS'martin chancey'
p3312
(lp3313
g84
asS'frank parsons'
p3314
(lp3315
g230
ag138
ag61
ag130
ag421
asg369
(lp3316
g68
asS'walter christie'
p3317
(lp3318
g15
asS'grant oakes'
p3319
(lp3320
g50
asS'nathan jacobson'
p3321
(lp3322
g191
asg1392
(lp3323
g1392
ag90
asS'herman waldman'
p3324
(lp3325
g80
ag81
asS'carneller foreman'
p3326
(lp3327
g15
ag4
asS'joseph hittleman'
p3328
(lp3329
g1059
asS'tanya tuttle'
p3330
(lp3331
g90
asS'jacob geyer'
p3332
(lp3333
g87
asS'oleta o yates'
p3334
(lp3335
Voleta o'connor
p3336
ag65
asS'inirs. alvah bessie'
p3337
(lp3338
g230
ag178
ag169
asS'elsie monjar'
p3339
(lp3340
g65
aVmiss monjar
p3341
asS'fred dutner'
p3342
(lp3343
g68
asS'william glenn'
p3344
(lp3345
g3
asS'lou. schneiderman'
p3346
(lp3347
g120
asS'stanley waxman'
p3348
(lp3349
g80
ag81
asS'sam sperling'
p3350
(lp3351
g1059
asS'flora webster'
p3352
(lp3353
g277
asS'jay riibiu'
p3354
(lp3355
g53
ag1567
ag629
asS'edith sharpe'
p3356
(lp3357
g130
ag11
ag139
asS'rose hobart'
p3358
(lp3359
g236
asS'louise moss'
p3360
(lp3361
g230
ag87
ag1567
asS'george edwards'
p3362
(lp3363
g138
ag11
ag139
asS'harry bridges'
p3364
(lp3365
g112
asS'sam rizzo'
p3366
(lp3367
g98
asS'harry carlisle'
p3368
(lp3369
g33
asS'max chait'
p3370
(lp3371
g98
ag15
asS'dorothy. connelly'
p3372
(lp3373
g1922
asS'fanny lehman'
p3374
(lp3375
g11
ag139
asg1382
(lp3376
g151
ag119
ag3
ag15
ag1007
asS'carl brandt'
p3377
(lp3378
g65
ag61
asS'melvyn letzman'
p3379
(lp3380
g22
asg1876
(lp3381
g104
asS'leon katzen'
p3382
(lp3383
g68
asS'frederick reynolds'
p3384
(lp3385
g1059
asS'harry rich'
p3386
(lp3387
g65
ag53
aS'al lannon'
p3388
ag629
asS'pasco soso'
p3389
(lp3390
g68
asS'jeff corey'
p3391
(lp3392
g80
ag299
asS'mercier reese'
p3393
(lp3394
g101
asS'libby corngold'
p3395
(lp3396
g65
asS'alice smith'
p3397
(lp3398
g133
ag68
asS'sonya solotoy'
p3399
(lp3400
g61
asS'helen demarco'
p3401
(lp3402
g2165
ag94
ag95
asS'glenda sullivan'
p3403
(lp3404
g169
asS'dave himinelstein'
p3405
(lp3406
g65
asS'nick daniels'
p3407
(lp3408
g15
asS'margaret gruen'
p3409
(lp3410
g25
ag80
asS'mike fersick'
p3411
(lp3412
g95
asS'shirley fields'
p3413
(lp3414
g53
ag3413
asS'ann ganley'
p3415
(lp3416
g151
ag3
ag15
ag4
asS'foss baker'
p3417
(lp3418
g3
asS'albert blumberg'
p3419
(lp3420
g84
asS'ruby heide'
p3421
(lp3422
g138
ag11
asS'walter barry'
p3423
(lp3424
g94
asS'harry judis'
p3425
(lp3426
g87
ag3425
asS'george morris'
p3427
(lp3428
g65
asS'rex wheelock'
p3429
(lp3430
g50
asS'marvin gladstone'
p3431
(lp3432
g3156
ag15
asS'fred williams'
p3433
(lp3434
g130
ag3
ag15
asS'libby hilherman'
p3435
(lp3436
Vmrs. dave hilber
p3437
asS'simon moskalik'
p3438
(lp3439
g1007
asS'donald henderson'
p3440
(lp3441
g56
asS'jean rand'
p3442
(lp3443
g65
ag3442
asS'john milkovitch'
p3444
(lp3445
g50
asS'rudy baker'
p3446
(lp3447
g550
asS'miriam holtz'
p3448
(lp3449
g61
asS'walter stack'
p3450
(lp3451
g65
ag112
asS'sam mcghee'
p3452
(lp3453
g4
asS'dr. reznick'
p3454
(lp3455
g3454
asS'paul mcvey'
p3456
(lp3457
g109
ag764
ag3456
ag388
asS'eva lapin'
p3458
(lp3459
g11
asS'robert black'
p3460
(lp3461
g130
ag11
ag139
asS'sally davis'
p3462
(lp3463
g15
asS'ruth poison'
p3464
(lp3465
g15
asS'alvah bessie'
p3466
(lp3467
g32
ag26
ag34
ag27
ag35
asS'barrows dunham'
p3468
(lp3469
sg3388
(lp3470
g84
asS'hattie johnson'
p3471
(lp3472
g4
asS'carl hacker'
p3473
(lp3474
g53
ag629
asS'dave silverberg'
p3475
(lp3476
g4
asS'steve oleksink'
p3477
(lp3478
g87
asS'gene morse'
p3479
(lp3480
g47
asS'fred franchi'
p3481
(lp3482
g486
ag263
ag359
ag101
aVj. allen louise light silver
p3483
ag308
asS'leo m. hurvich'
p3484
(lp3485
g138
asS'aaron bindman'
p3486
(lp3487
g68
asS'olga zenchuck'
p3488
(lp3489
g15
asS'nathan w margolis'
p3490
(lp3491
sS'charles spencer'
p3492
(lp3493
g95
asS'hulda j flynn'
p3494
(lp3495
g274
asS'steve murdock'
p3496
(lp3497
g11
asS'jack fox'
p3498
(lp3499
g65
ag61
aVmrs. fred franchi
p3500
ag629
asS'joe dennis'
p3501
(lp3502
g104
asS'will geer'
p3503
(lp3504
g22
asS'archie brown'
p3505
(lp3506
g47
ag65
ag11
ag191
asS'arthur newman'
p3507
(lp3508
g138
ag84
asS'pauline laserfin'
p3509
(lp3510
g230
asS'jacob mindel'
p3511
(lp3512
g65
asS'maurice rapf'
p3513
(lp3514
g169
ag25
ag27
ag230
ag90
ag170
asS'george altman'
p3515
(lp3516
g308
ag360
asS'sylvia elfenbein'
p3517
(lp3518
g84
asS'george stathis'
p3519
(lp3520
g53
ag164
asS'lou amster'
p3521
(lp3522
g262
asS'glass glassgold'
p3523
(lp3524
g4
asS'george gorchoff'
p3525
(lp3526
g47
asS'horace pratt'
p3527
(lp3528
g87
asS'flo goodman'
p3529
(lp3530
g4
asS'nathan rosen'
p3531
(lp3532
g788
asS'william t. parry'
p3533
(lp3534
g274
asS'esther goodman'
p3535
(lp3536
g65
asS'jerome chodorov'
p3537
(lp3538
g742
asS'edward strong'
p3539
(lp3540
g84
asS'madeline lee'
p3541
(lp3542
g742
asS'nina ingham'
p3543
(lp3544
g61
asS'ida pratt'
p3545
(lp3546
g87
asS'jane callender'
p3547
(lp3548
g87
asS'gus browne'
p3549
(lp3550
g11
asS'calvin goodman'
p3551
(lp3552
g4
asS'hoke higdon'
p3553
(lp3554
g3
asS'louis terkel'
p3555
(lp3556
g81
asS'frank cestare'
p3557
(lp3558
g94
ag95
asS'betty selden'
p3559
(lp3560
g101
asS'john porter'
p3561
(lp3562
g885
ag486
ag308
ag360
asS'jack palmquist'
p3563
(lp3564
g285
ag15
asS'willie schulz'
p3565
(lp3566
g53
ag629
asS'ralph izzard'
p3567
(lp3568
g11
asS'cyril endfield'
p3569
(lp3570
g230
asS'pauline l finn'
p3571
(lp3572
g169
aS'pauline. lauber'
p3573
ag388
ag119
ag585
ag90
asS'phil bard'
p3574
(lp3575
g47
asS'william wolff'
p3576
(lp3577
g80
ag388
ag81
asS'sara geyer'
p3578
(lp3579
g87
asS'lillian gerber'
p3580
(lp3581
g87
asS'verne piazza'
p3582
(lp3583
g15
asS'harold oakerly'
p3584
(lp3585
g112
asS'david jenkins'
p3586
(lp3587
g191
ag112
asS'rose dreyfus'
p3588
(lp3589
g87
asS'rosalind freud'
p3590
(lp3591
g87
asg1577
(lp3592
Vgilman rosenblatt
p3593
ag84
asS'jack chassen'
p3594
(lp3595
g87
asS'irvin richter'
p3596
(lp3597
g84
asVmary charles d. blodgett
p3598
(lp3599
g90
asS'roy cones'
p3600
(lp3601
g3
asS'eugene parker'
p3602
(lp3603
g11
asS'tony s lucia'
p3604
(lp3605
g47
asS'norman canright'
p3606
(lp3607
g11
asS'edward huebseh'
p3608
(lp3609
g32
ag31
ag323
ag27
asS'samuel stember'
p3610
(lp3611
g47
ag2037
asS'gail knappen'
p3612
(lp3613
g101
asS'ohio. cincinnati'
p3614
(lp3615
g53
ag629
asS'mike obermier'
p3616
(lp3617
g53
ag629
asS'davida franchi'
p3618
(lp3619
g101
ag263
asS'henrietta pally'
p3620
(lp3621
g101
asS'faye mcdonnell'
p3622
(lp3623
g122
ag3
asS'margaret e. forsyth'
p3624
(lp3625
g56
asS'ann kelly'
p3626
(lp3627
g151
ag3
ag4
asS'john bright'
p3628
(lp3629
g270
ag169
ag629
ag25
ag53
ag33
ag230
aS'john bright'
p3630
ag164
ag32
ag119
ag170
ag333
asS'rena dodd'
p3631
(lp3632
g164
ag629
ag333
asS'kenneth arnold'
p3633
(lp3634
g788
asg1263
(lp3635
g130
ag1096
ag22
aVwilliam ted isiartin
p3636
ag388
ag788
ag15
ag1215
ag1121
ag80
ag68
ag1946
ag2082
ag396
ag81
ag509
ag1645
ag65
ag11
ag61
ag139
ag138
as.